
5dbac793-f574-4871-8ad3-04331ec17f24.elf:     file format elf64-littleaarch64
5dbac793-f574-4871-8ad3-04331ec17f24.elf
architecture: aarch64, flags 0x00000150:
HAS_SYMS, DYNAMIC, D_PAGED
start address 0x0000000000000020

Program Header:
    LOAD off    0x0000000000010000 vaddr 0x0000000000000000 paddr 0x0000000000000000 align 2**16
         filesz 0x000000000000ada8 memsz 0x000000000000ada8 flags r-x
    LOAD off    0x000000000001ada8 vaddr 0x000000000000ada8 paddr 0x000000000000ada8 align 2**16
         filesz 0x0000000000001e50 memsz 0x0000000000001e50 flags r--
    LOAD off    0x000000000001d000 vaddr 0x000000000000d000 paddr 0x000000000000d000 align 2**16
         filesz 0x0000000000000144 memsz 0x000000000000ad48 flags rw-
 DYNAMIC off    0x000000000001ca80 vaddr 0x000000000000ca80 paddr 0x000000000000ca80 align 2**3
         filesz 0x0000000000000110 memsz 0x0000000000000110 flags rw-

Dynamic Section:
  HASH                 0x000000000000cbe0
  GNU_HASH             0x000000000000c660
  STRTAB               0x000000000000cbd8
  SYMTAB               0x000000000000cb90
  STRSZ                0x0000000000000001
  SYMENT               0x0000000000000018
  DEBUG                0x0000000000000000
  RELA                 0x000000000000c680
  RELASZ               0x0000000000000378
  RELAENT              0x0000000000000018
  FLAGS_1              0x0000000008000000
  RELACOUNT            0x0000000000000018
private flags = 0:

Sections:
Idx Name          Size      VMA               LMA               File off  Algn
  0 .ta_head      00000020  0000000000000000  0000000000000000  00010000  2**3
                  CONTENTS, ALLOC, LOAD, DATA
  1 .text         0000ad88  0000000000000020  0000000000000020  00010020  2**2
                  CONTENTS, ALLOC, LOAD, READONLY, CODE
  2 .rodata       000018b2  000000000000ada8  000000000000ada8  0001ada8  2**3
                  CONTENTS, ALLOC, LOAD, READONLY, DATA
  3 .gnu.hash     0000001c  000000000000c660  000000000000c660  0001c660  2**3
                  CONTENTS, ALLOC, LOAD, READONLY, DATA
  4 .dynsym       00000048  000000000000cb90  000000000000cb90  0001cb90  2**3
                  CONTENTS, ALLOC, LOAD, READONLY, DATA
  5 .rela.dyn     00000240  000000000000c680  000000000000c680  0001c680  2**3
                  CONTENTS, ALLOC, LOAD, READONLY, DATA
  6 .got          00000088  000000000000c8c0  000000000000c8c0  0001c8c0  2**3
                  CONTENTS, ALLOC, LOAD, DATA
  7 .rela.got     00000138  000000000000c948  000000000000c948  0001c948  2**3
                  CONTENTS, ALLOC, LOAD, READONLY, DATA
  8 .dynamic      00000110  000000000000ca80  000000000000ca80  0001ca80  2**3
                  CONTENTS, ALLOC, LOAD, DATA
  9 .dynstr       00000001  000000000000cbd8  000000000000cbd8  0001cbd8  2**0
                  CONTENTS, ALLOC, LOAD, READONLY, DATA
 10 .hash         00000018  000000000000cbe0  000000000000cbe0  0001cbe0  2**3
                  CONTENTS, ALLOC, LOAD, READONLY, DATA
 11 .data         00000144  000000000000d000  000000000000d000  0001d000  2**3
                  CONTENTS, ALLOC, LOAD, DATA
 12 .bss          0000ac00  000000000000d148  000000000000d148  0001d144  2**3
                  ALLOC
 13 .debug_info   00014e05  0000000000000000  0000000000000000  0001d144  2**0
                  CONTENTS, READONLY, DEBUGGING
 14 .debug_abbrev 00004770  0000000000000000  0000000000000000  00031f49  2**0
                  CONTENTS, READONLY, DEBUGGING
 15 .debug_loc    0001dc9c  0000000000000000  0000000000000000  000366b9  2**0
                  CONTENTS, READONLY, DEBUGGING
 16 .debug_aranges 00000c70  0000000000000000  0000000000000000  00054360  2**4
                  CONTENTS, READONLY, DEBUGGING
 17 .debug_ranges 00001400  0000000000000000  0000000000000000  00054fd0  2**4
                  CONTENTS, READONLY, DEBUGGING
 18 .debug_macro  000056bc  0000000000000000  0000000000000000  000563d0  2**0
                  CONTENTS, READONLY, DEBUGGING
 19 .debug_line   00007217  0000000000000000  0000000000000000  0005ba8c  2**0
                  CONTENTS, READONLY, DEBUGGING
 20 .debug_str    00011daa  0000000000000000  0000000000000000  00062ca3  2**0
                  CONTENTS, READONLY, DEBUGGING
 21 .comment      0000005d  0000000000000000  0000000000000000  00074a4d  2**0
                  CONTENTS, READONLY
 22 .debug_frame  00003180  0000000000000000  0000000000000000  00074ab0  2**3
                  CONTENTS, READONLY, DEBUGGING
SYMBOL TABLE:
0000000000000000 l    d  .ta_head	0000000000000000 .ta_head
0000000000000020 l    d  .text	0000000000000000 .text
000000000000ada8 l    d  .rodata	0000000000000000 .rodata
000000000000c660 l    d  .gnu.hash	0000000000000000 .gnu.hash
000000000000c680 l    d  .rela.dyn	0000000000000000 .rela.dyn
000000000000c8c0 l    d  .got	0000000000000000 .got
000000000000c948 l    d  .rela.got	0000000000000000 .rela.got
000000000000ca80 l    d  .dynamic	0000000000000000 .dynamic
000000000000cb90 l    d  .dynsym	0000000000000000 .dynsym
000000000000cbd8 l    d  .dynstr	0000000000000000 .dynstr
000000000000cbe0 l    d  .hash	0000000000000000 .hash
000000000000d000 l    d  .data	0000000000000000 .data
000000000000d148 l    d  .bss	0000000000000000 .bss
0000000000000000 l    d  .debug_info	0000000000000000 .debug_info
0000000000000000 l    d  .debug_abbrev	0000000000000000 .debug_abbrev
0000000000000000 l    d  .debug_loc	0000000000000000 .debug_loc
0000000000000000 l    d  .debug_aranges	0000000000000000 .debug_aranges
0000000000000000 l    d  .debug_ranges	0000000000000000 .debug_ranges
0000000000000000 l    d  .debug_macro	0000000000000000 .debug_macro
0000000000000000 l    d  .debug_line	0000000000000000 .debug_line
0000000000000000 l    d  .debug_str	0000000000000000 .debug_str
0000000000000000 l    d  .comment	0000000000000000 .comment
0000000000000000 l    d  .debug_frame	0000000000000000 .debug_frame
0000000000000000 l    df *ABS*	0000000000000000 user_ta_header.c
000000000000adb0 l     O .rodata	0000000000000004 __compound_literal.5
000000000000adb4 l     O .rodata	0000000000000004 __compound_literal.4
000000000000adb8 l     O .rodata	0000000000000004 __compound_literal.3
000000000000adbc l     O .rodata	0000000000000001 __compound_literal.2
000000000000adbd l     O .rodata	0000000000000001 __compound_literal.1
000000000000adbe l     O .rodata	0000000000000001 __compound_literal.0
0000000000000000 l    df *ABS*	0000000000000000 aes_ta.c
000000000000bcd4 l     O .rodata	0000000000000019 __func__.3910
000000000000bced l     O .rodata	000000000000001a __func__.3915
000000000000bd07 l     O .rodata	0000000000000010 __func__.3866
000000000000bd17 l     O .rodata	000000000000000f __func__.3839
000000000000bd26 l     O .rodata	0000000000000010 __func__.3847
000000000000bd36 l     O .rodata	000000000000000f __func__.3855
000000000000bd45 l     O .rodata	000000000000000c __func__.3879
000000000000bd51 l     O .rodata	000000000000000d __func__.3889
000000000000bd5e l     O .rodata	000000000000000e __func__.3897
000000000000bd6c l     O .rodata	000000000000001b __func__.3927
0000000000000000 l    df *ABS*	0000000000000000 tee_api.c
000000000000d148 l     O .bss	0000000000000008 tee_api_instance_data
0000000000000000 l    df *ABS*	0000000000000000 tee_api_objects.c
0000000000000000 l    df *ABS*	0000000000000000 tee_api_operations.c
00000000000038f8 l     F .text	000000000000021c tee_buffer_update
0000000000000000 l    df *ABS*	0000000000000000 tee_api_panic.c
0000000000000000 l    df *ABS*	0000000000000000 user_ta_entry.c
0000000000003b1c l     F .text	0000000000000028 ta_header_get_session
0000000000003b44 l     F .text	0000000000000088 ta_header_remove_session
0000000000017d42 l     O .bss	0000000000000001 init_done
000000000000d0e0 l     O .data	0000000000000010 ta_sessions
0000000000000000 l    df *ABS*	0000000000000000 utee_syscalls_a64.o
0000000000000000 l    df *ABS*	0000000000000000 gprof_a64.o
0000000000000000 l    df *ABS*	0000000000000000 tee_user_mem.c
0000000000004138 l     F .text	0000000000000058 print_buf
0000000000004190 l     F .text	0000000000000104 check_elem
000000000000add0 l     O .rodata	000000000000000b __func__.3881
000000000000ade0 l     O .rodata	000000000000000f __func__.3876
000000000000adf0 l     O .rodata	0000000000000013 __func__.3901
000000000000ae08 l     O .rodata	0000000000000012 __func__.3918
000000000000ae20 l     O .rodata	0000000000000018 __func__.3926
000000000000ae38 l     O .rodata	0000000000000010 __func__.3886
000000000000ae48 l     O .rodata	0000000000000014 __func__.3931
000000000000d198 l     O .bss	0000000000000008 heap_level
000000000000d1a0 l     O .bss	0000000000000010 global_stats
0000000000000000 l    df *ABS*	0000000000000000 assert.c
0000000000000000 l    df *ABS*	0000000000000000 tee_api_arith.c
0000000000004dec l     F .text	0000000000000028 TEE_BigInt_Panic
000000000000d1b0 l     O .bss	0000000000001b40 mempool_u32
0000000000000000 l    df *ABS*	0000000000000000 utee_misc.c
0000000000000000 l    df *ABS*	0000000000000000 trace_ext.c
0000000000000000 l    df *ABS*	0000000000000000 bget_malloc.c
0000000000004fa8 l     F .text	0000000000000040 raw_malloc_return_hook.isra.3
0000000000004fe8 l     F .text	0000000000000110 create_free_block.constprop.11
000000000000ae60 l     O .rodata	0000000000000012 __func__.3452
000000000000ae78 l     O .rodata	0000000000000005 __func__.3308
000000000000ae80 l     O .rodata	0000000000000006 __func__.3323
000000000000ae88 l     O .rodata	0000000000000005 __func__.3340
000000000000ae90 l     O .rodata	0000000000000006 __func__.3332
000000000000ae98 l     O .rodata	0000000000000006 __func__.3349
000000000000aea0 l     O .rodata	0000000000000007 __func__.3359
000000000000aea8 l     O .rodata	000000000000000d __func__.3488
000000000000aeb8 l     O .rodata	000000000000000c __func__.3462
000000000000aec8 l     O .rodata	000000000000000b __func__.3473
000000000000aed8 l     O .rodata	0000000000000010 __func__.3540
000000000000aee8 l     O .rodata	000000000000000e __func__.3494
000000000000aef8 l     O .rodata	0000000000000013 __func__.3400
000000000000ecf0 l     O .bss	0000000000000038 mstats
000000000000ed28 l     O .bss	0000000000000008 malloc_pool_len
000000000000ed30 l     O .bss	0000000000000008 malloc_pool
000000000000d100 l     O .data	0000000000000038 malloc_poolset
0000000000000000 l    df *ABS*	0000000000000000 snprintf.c
0000000000000000 l    df *ABS*	0000000000000000 stack_check.c
0000000000000000 l    df *ABS*	0000000000000000 memcmp.c
0000000000000000 l    df *ABS*	0000000000000000 memcpy.c
0000000000000000 l    df *ABS*	0000000000000000 memmove.c
0000000000000000 l    df *ABS*	0000000000000000 memset.c
0000000000000000 l    df *ABS*	0000000000000000 strlen.c
0000000000000000 l    df *ABS*	0000000000000000 snprintk.c
000000000000af10 l     O .rodata	0000000000000011 HEXDIGITS
000000000000af28 l     O .rodata	0000000000000011 hexdigits
0000000000000000 l    df *ABS*	0000000000000000 buf_compare_ct.c
0000000000000000 l    df *ABS*	0000000000000000 trace.c
000000000000af40 l     O .rodata	0000000000000005 lvl_strs.3168
0000000000000000 l    df *ABS*	0000000000000000 memchr.c
0000000000000000 l    df *ABS*	0000000000000000 mpa_misc.c
0000000000000000 l    df *ABS*	0000000000000000 mpa_montgomery.c
0000000000000000 l    df *ABS*	0000000000000000 mpa_primetest.c
000000000000bbb0 l     O .rodata	0000000000000010 const_miller_rabin_proof_limit
000000000000bbc0 l     O .rodata	000000000000001c proof_a.3549
000000000000bbe0 l     O .rodata	000000000000000c const_two
000000000000bbf0 l     O .rodata	00000000000000b8 const_small_prime_factors
0000000000000000 l    df *ABS*	0000000000000000 mpa_conv.c
0000000000000000 l    df *ABS*	0000000000000000 mpa_div.c
0000000000000000 l    df *ABS*	0000000000000000 mpa_gcd.c
00000000000083fc l     F .text	0000000000000080 __mpa_divby2
000000000000847c l     F .text	000000000000016c __mpa_gcd.part.0
00000000000085e8 l     F .text	0000000000000380 __mpa_egcd
0000000000000000 l    df *ABS*	0000000000000000 mpa_mem_static.c
0000000000000000 l    df *ABS*	0000000000000000 mpa_mul.c
0000000000000000 l    df *ABS*	0000000000000000 mpa_random.c
000000000000ed38 l     O .bss	0000000000000008 get_rng_array
0000000000000000 l    df *ABS*	0000000000000000 mpa_shift.c
0000000000000000 l    df *ABS*	0000000000000000 mpa_addsub.c
0000000000000000 l    df *ABS*	0000000000000000 mpa_cmp.c
0000000000000000 l    df *ABS*	0000000000000000 mpa_expmod.c
0000000000000000 l    df *ABS*	0000000000000000 mpa_init.c
0000000000000000 l    df *ABS*	0000000000000000 mpa_io.c
000000000000a3b4 l     F .text	0000000000000044 __mpa_word_to_hexstr
000000000000a3f8 l     F .text	0000000000000114 __mpa_mpanum_to_hexstr
000000000000a50c l     F .text	000000000000003c __mpa_isspace
000000000000bcb0 l     O .rodata	000000000000000c __func__.3623
000000000000bcc0 l     O .rodata	000000000000000c __func__.3637
000000000000ed40 l     O .bss	0000000000001002 buf.3609
0000000000000000 l    df *ABS*	0000000000000000 mpa_modulus.c
0000000000000000 l    df *ABS*	0000000000000000 
000000000000ca80 l     O *ABS*	0000000000000000 _DYNAMIC
000000000000c8d8 l     O *ABS*	0000000000000000 _GLOBAL_OFFSET_TABLE_
0000000000004110 g     F .text	000000000000000c utee_se_channel_transmit
0000000000004f6c g     F .text	000000000000003c putchar
000000000000a330 g     F .text	000000000000001c mpa_init_static
0000000000000e6c g     F .text	00000000000000c0 TEE_PopulateTransientObject
0000000000007144 g     F .text	0000000000000054 mpa_copy
0000000000004d2c g     F .text	000000000000001c TEE_BigIntConvertToFMM
0000000000004c0c g     F .text	000000000000000c TEE_BigIntSquareMod
000000000000488c g     F .text	0000000000000004 TEE_BigIntShiftRight
0000000000007a4c g     F .text	0000000000000074 mpa_get_S32
00000000000071c8 g     F .text	0000000000000044 mpa_highest_bit_index
0000000000003fd8 g     F .text	000000000000000c utee_storage_obj_create
00000000000040ec g     F .text	000000000000000c utee_se_session_close
0000000000003de0 g     F .text	000000000000000c utee_return
0000000000002518 g     F .text	0000000000000070 TEE_DigestUpdate
000000000000408c g     F .text	000000000000000c utee_se_service_get_readers
0000000000000a30 g     F .text	0000000000000008 TEE_Realloc
0000000000007b3c g     F .text	0000000000000148 __mpa_div_q_r_internal_word
0000000000004524 g     F .text	00000000000000bc tee_user_mem_realloc
0000000000002268 g     F .text	0000000000000190 TEE_SetOperationKey2
0000000000009b68 g     F .text	000000000000019c mpa_sub
0000000000004e60 g     F .text	00000000000000cc printf
00000000000043e0 g     F .text	0000000000000144 tee_user_mem_free
0000000000003dec g     F .text	000000000000000c utee_log
000000000000bca8 g     O .rodata	0000000000000004 NR_STORED_PRIMES
0000000000000f2c g     F .text	0000000000000054 TEE_InitRefAttribute
0000000000000760 g     F .text	00000000000000b4 TEE_InvokeTACommand
0000000000007250 g     F .text	000000000000001c mpa_can_hold
0000000000008e20 g     F .text	0000000000000098 __mpa_abs_mul_word
0000000000002f5c g     F .text	00000000000001a8 TEE_AEEncryptFinal
00000000000075ec g     F .text	0000000000000088 mpa_montgomery_mul
0000000000006d58 g     F .text	0000000000000054 vsnprintk
000000000000726c g     F .text	000000000000000c mpa_parity
000000000000612c g     F .text	000000000000004c memmove
00000000000096f0 g     F .text	0000000000000020 __mpa_full_adder_ackum
0000000000006008 g     F .text	0000000000000078 snprintf
0000000000004888 g     F .text	0000000000000004 TEE_BigIntCmpS32
000000000000d138 g     O .data	0000000000000008 __stack_chk_guard
0000000000000f80 g     F .text	0000000000000050 TEE_InitValueAttribute
00000000000048c4 g     F .text	000000000000000c TEE_BigIntAdd
0000000000003e10 g     F .text	000000000000000c utee_get_property_name_to_index
000000000000adc0 g     O .rodata	0000000000000008 ta_heap_size
000000000000bcac g     O .rodata	0000000000000004 MAX_TABULATED_PRIME
0000000000000e18 g     F .text	0000000000000054 TEE_ResetTransientObject
0000000000004e1c g     F .text	0000000000000004 utee_malloc
0000000000003e94 g     F .text	000000000000000c utee_cryp_state_alloc
0000000000003f9c g     F .text	000000000000000c utee_authenc_enc_final
0000000000008e00 g     F .text	0000000000000020 __mpa_mul_add_word_cum
000000000000264c g     F .text	00000000000000a4 TEE_CipherInit
00000000000048dc g     F .text	0000000000000004 TEE_BigIntNeg
000000000000830c g     F .text	00000000000000f0 mpa_div
0000000000000020 g       .text	0000000000000000 __text_start
000000000000143c g     F .text	0000000000000050 TEE_StartPersistentObjectEnumerator
000000000000af48 g     O .rodata	000000000000000c const_one
0000000000005f9c g     F .text	000000000000006c malloc_buffer_overlaps_heap
000000000000a070 g     F .text	0000000000000018 __mpa_abs_less_than
0000000000004a9c g     F .text	00000000000000a8 TEE_BigIntSubMod
0000000000002cb4 g     F .text	00000000000000c4 TEE_AEInit
0000000000009160 g     F .text	0000000000000114 mpa_get_random
0000000000004e2c g     F .text	0000000000000004 get_rng_array
0000000000006e94 g     F .text	000000000000022c trace_printf
0000000000004074 g     F .text	000000000000000c utee_se_service_open
000000000000610c g     F .text	0000000000000020 memcpy
0000000000003eac g     F .text	000000000000000c utee_cryp_state_free
0000000000007114 g     F .text	0000000000000030 mpa_wipe
0000000000004d48 g     F .text	0000000000000094 TEE_BigIntConvertFromFMM
0000000000003b14 g     F .text	0000000000000008 TEE_Panic
0000000000004104 g     F .text	000000000000000c utee_se_channel_get_select_resp
00000000000023f8 g     F .text	0000000000000120 TEE_CopyOperation
0000000000004f2c g     F .text	0000000000000040 puts
0000000000004ddc g     F .text	0000000000000010 TEE_BigIntComputeFMM
0000000000007ac0 g     F .text	0000000000000014 mpa_set_word
0000000000005808 g     F .text	0000000000000030 malloc_get_stats
00000000000093dc g     F .text	0000000000000190 mpa_shift_left
0000000000003ef4 g     F .text	000000000000000c utee_cipher_final
0000000000008fac g     F .text	00000000000000e4 mpa_mul
0000000000000a00 g     F .text	0000000000000028 TEE_GetREETime
0000000000001390 g     F .text	000000000000005c TEE_AllocatePersistentObjectEnumerator
000000000000d000 g     O .data	00000000000000d8 ta_props
000000000000329c g     F .text	0000000000000144 TEE_AsymmetricEncrypt
0000000000005838 g     F .text	0000000000000050 malloc
0000000000003f30 g     F .text	000000000000000c utee_cryp_obj_close
00000000000040b0 g     F .text	000000000000000c utee_se_reader_open_session
0000000000006080 g     F .text	0000000000000054 vsnprintf
00000000000010d0 g     F .text	0000000000000084 TEE_GenerateKey
000000000000d140 g     O .data	0000000000000004 trace_level
0000000000004e14 g     F .text	0000000000000008 utee_get_ta_exec_id
0000000000004884 g     F .text	0000000000000004 TEE_BigIntCmp
0000000000004e20 g     F .text	0000000000000004 utee_realloc
000000000000ada8 g     O .rodata	0000000000000008 ta_num_props
00000000000055dc g     F .text	00000000000000a8 bgetr
0000000000003f90 g     F .text	000000000000000c utee_authenc_update_payload
00000000000026f0 g     F .text	000000000000015c TEE_CipherUpdate
0000000000004820 g     F .text	0000000000000040 TEE_BigIntConvertToOctetString
0000000000001fb8 g     F .text	0000000000000148 TEE_GetOperationInfoMultiple
0000000000004128 g     F .text	000000000000000c utee_cache_operation
0000000000003f78 g     F .text	000000000000000c utee_authenc_init
0000000000004890 g     F .text	000000000000001c TEE_BigIntGetBit
000000000000adc8 g     O .rodata	0000000000000003 trace_ext_prefix
0000000000009710 g     F .text	00000000000000f4 __mpa_abs_add
00000000000052b8 g     F .text	0000000000000088 bgetz
00000000000008b8 g     F .text	000000000000000c TEE_GetInstanceData
0000000000000904 g     F .text	000000000000003c TEE_Wait
0000000000004044 g     F .text	000000000000000c utee_storage_obj_write
0000000000008d9c g     F .text	000000000000004c mpa_free_static_temp_var
0000000000007674 g     F .text	00000000000003ac mpa_is_prob_prime
000000000000411c g     F .text	000000000000000c utee_se_channel_close
0000000000009090 g     F .text	00000000000000c4 mpa_mul_word
0000000000000a44 g     F .text	0000000000000008 TEE_CacheFlush
0000000000000028 g     F .text	0000000000000004 TA_DestroyEntryPoint
0000000000004700 g     F .text	0000000000000044 _assert_log
00000000000047e4 g     F .text	0000000000000014 TEE_BigIntFMMContextSizeInU32
0000000000002bf4 g     F .text	00000000000000c0 TEE_MACCompareFinal
0000000000001324 g     F .text	000000000000006c TEE_RenamePersistentObject
0000000000002588 g     F .text	00000000000000c4 TEE_DigestDoFinal
0000000000007c84 g     F .text	0000000000000688 __mpa_div_q_r
0000000000004758 g     F .text	000000000000002c _TEE_MathAPI_Init
000000000000402c g     F .text	000000000000000c utee_storage_next_enum
00000000000060d4 g     F .text	0000000000000004 __stack_chk_fail
000000000000fd42 g     O .bss	0000000000008000 ta_heap
0000000000004c18 g     F .text	000000000000006c TEE_BigIntInvMod
0000000000000090 g     F .text	0000000000000060 TA_CloseSessionEntryPoint
00000000000033e0 g     F .text	0000000000000148 TEE_AsymmetricDecrypt
0000000000001154 g     F .text	0000000000000098 TEE_OpenPersistentObject
0000000000003df8 g     F .text	000000000000000c __utee_panic
0000000000003ea0 g     F .text	000000000000000c utee_cryp_state_copy
00000000000000f0 g     F .text	00000000000004cc TA_InvokeCommandEntryPoint
000000000000a86c g     F .text	0000000000000110 mpa_set_oct_str
00000000000040e0 g     F .text	000000000000000c utee_se_session_open_channel
00000000000092e0 g     F .text	0000000000000098 __mpa_shift_words_left
0000000000003f24 g     F .text	000000000000000c utee_cryp_obj_alloc
0000000000003e88 g     F .text	000000000000000c utee_set_ta_time
0000000000003f18 g     F .text	000000000000000c utee_cryp_obj_get_attr
000000000000107c g     F .text	0000000000000054 TEE_CopyObjectAttributes
00000000000072fc g     F .text	0000000000000090 __mpa_montgomery_sub_ack
000000000000589c g     F .text	0000000000000064 calloc
0000000000000a28 g     F .text	0000000000000008 TEE_Malloc
0000000000003e64 g     F .text	000000000000000c utee_mask_cancellation
0000000000003f3c g     F .text	000000000000000c utee_cryp_obj_reset
0000000000000898 g     F .text	0000000000000014 TEE_CheckMemoryAccessRights
0000000000017d48 g       .bss	0000000000000000 __gprof_buf_end
0000000000009d04 g     F .text	000000000000002c mpa_neg
000000000000af78 g     O .rodata	0000000000000c38 PRIME_TABLE
0000000000001510 g     F .text	0000000000000068 TEE_ReadObjectData
0000000000000bbc g     F .text	00000000000000ac TEE_GetObjectBufferAttribute
000000000000002c g     F .text	0000000000000064 TA_OpenSessionEntryPoint
0000000000008968 g     F .text	0000000000000120 mpa_gcd
0000000000007198 g     F .text	0000000000000030 mpa_abs
0000000000004020 g     F .text	000000000000000c utee_storage_start_enum
0000000000001708 g     F .text	0000000000000044 TEE_FreeOperation
000000000000a550 g     F .text	0000000000000298 mpa_set_str
0000000000003ff0 g     F .text	000000000000000c utee_storage_obj_rename
000000000000d150 g     O .bss	0000000000000004 ta_param_types
0000000000000a54 g     F .text	000000000000004c __utee_from_attr
0000000000004d08 g     F .text	0000000000000024 TEE_BigIntIsProbablePrime
0000000000008d8c g     F .text	0000000000000010 mpa_alloc_static_temp_var
00000000000012b4 g     F .text	0000000000000044 TEE_CloseAndDeletePersistentObject1
0000000000009154 g     F .text	000000000000000c mpa_set_random_generator
0000000000003e04 g     F .text	000000000000000c utee_get_property
0000000000003104 g     F .text	0000000000000198 TEE_AEDecryptFinal
0000000000004784 g     F .text	0000000000000004 TEE_BigIntInit
00000000000008c4 g     F .text	0000000000000008 TEE_MemMove
00000000000047f8 g     F .text	0000000000000028 TEE_BigIntConvertFromOctetString
000000000000d0d8 g     O .data	0000000000000008 _ref__utee_mcount
00000000000029f4 g     F .text	00000000000000a4 TEE_MACInit
0000000000003528 g     F .text	000000000000013c TEE_AsymmetricSignDigest
00000000000070c4 g     F .text	000000000000002c memchr
0000000000000840 g     F .text	000000000000002c TEE_UnmaskCancellation
0000000000000aa0 g     F .text	0000000000000048 TEE_GetObjectInfo
000000000000ac10 g     F .text	0000000000000084 mpa_mul_mod
0000000000003fe4 g     F .text	000000000000000c utee_storage_obj_del
0000000000002e0c g     F .text	0000000000000150 TEE_AEUpdate
000000000000405c g     F .text	000000000000000c utee_storage_obj_seek
0000000000000dc4 g     F .text	0000000000000054 TEE_FreeTransientObject
00000000000074b0 g     F .text	000000000000013c mpa_compute_fmm_context
0000000000003ec4 g     F .text	000000000000000c utee_hash_update
0000000000008c74 g     F .text	0000000000000018 mpa_init_scratch_mem_sync
0000000000004134  w    F .text	0000000000000004 __utee_mcount
0000000000001f70 g     F .text	0000000000000048 TEE_GetOperationInfo
0000000000004960 g     F .text	0000000000000094 TEE_BigIntMod
00000000000040f8 g     F .text	000000000000000c utee_se_channel_select_next
0000000000003e28 g     F .text	000000000000000c utee_close_ta_session
00000000000048fc g     F .text	0000000000000064 TEE_BigIntDiv
00000000000057f0 g     F .text	0000000000000018 malloc_reset_stats
0000000000003ee8 g     F .text	000000000000000c utee_cipher_update
0000000000000b28 g     F .text	0000000000000044 TEE_RestrictObjectUsage1
00000000000040d4 g     F .text	000000000000000c utee_se_session_get_atr
0000000000005900 g     F .text	0000000000000050 realloc
0000000000009804 g     F .text	00000000000000cc __mpa_abs_add_ackum
0000000000003fc0 g     F .text	000000000000000c utee_asymm_verify
00000000000048e0 g     F .text	000000000000000c TEE_BigIntMul
0000000000002100 g     F .text	0000000000000078 TEE_ResetOperation
0000000000007ad4 g     F .text	0000000000000018 mpa_get_word
00000000000008d4 g     F .text	0000000000000008 TEE_MemFill
00000000000060d8 g     F .text	0000000000000034 memcmp
0000000000005d08 g     F .text	0000000000000114 malloc_add_pool
0000000000002a98 g     F .text	00000000000000a0 TEE_MACUpdate
0000000000006e84 g     F .text	0000000000000010 trace_get_level
0000000000003f6c g     F .text	000000000000000c utee_cryp_random_number_generate
0000000000000b6c g     F .text	0000000000000050 TEE_RestrictObjectUsage
00000000000047d4 g     F .text	0000000000000010 TEE_BigIntFMMSizeInU32
0000000000004788 g     F .text	0000000000000014 TEE_BigIntInitFMM
0000000000003fb4 g     F .text	000000000000000c utee_asymm_operate
0000000000000d38 g     F .text	0000000000000028 TEE_CloseObject
0000000000003bcc g     F .text	0000000000000208 __utee_entry
000000000000ada8 g       .text	0000000000000000 __text_end
0000000000004c84 g     F .text	0000000000000078 TEE_BigIntRelativePrime
0000000000009274 g     F .text	000000000000006c mpa_get_random_digits
0000000000005684 g     F .text	00000000000000d4 bpool
0000000000007a20 g     F .text	000000000000002c mpa_set_S32
000000000000a34c g     F .text	0000000000000068 mpa_init_static_fmm_context
0000000000000814 g     F .text	000000000000002c TEE_GetCancellationFlag
0000000000004080 g     F .text	000000000000000c utee_se_service_close
0000000000004294 g     F .text	000000000000014c tee_user_mem_alloc
000000000000d0f0 g     O .data	0000000000000010 user_mem_head
00000000000009c0 g     F .text	0000000000000040 TEE_SetTAPersistentTime
0000000000009d30 g     F .text	000000000000013c mpa_add_word
0000000000004098 g     F .text	000000000000000c utee_se_reader_get_prop
0000000000006178 g     F .text	000000000000001c memset
0000000000000940 g     F .text	0000000000000080 TEE_GetTAPersistentTime
00000000000070c0 g     F .text	0000000000000004 dhex_dump
00000000000011ec g     F .text	00000000000000c8 TEE_CreatePersistentObject
000000000000086c g     F .text	000000000000002c TEE_MaskCancellation
00000000000096cc g     F .text	0000000000000024 __mpa_full_sub
0000000000002d78 g     F .text	0000000000000094 TEE_AEUpdateAAD
0000000000004038 g     F .text	000000000000000c utee_storage_obj_read
00000000000015dc g     F .text	000000000000005c TEE_TruncateObjectData
0000000000004e24 g     F .text	0000000000000004 utee_calloc
0000000000003f48 g     F .text	000000000000000c utee_cryp_obj_populate
000000000000a088 g     F .text	0000000000000068 mpa_cmp
000000000000ac94 g     F .text	0000000000000114 mpa_inv_mod
0000000000009e6c g     F .text	0000000000000138 mpa_sub_word
0000000000008de8 g     F .text	0000000000000018 __mpa_mul_add_word
00000000000099d4 g     F .text	0000000000000194 mpa_add
000000000000a174 g     F .text	00000000000001bc mpa_exp_mod
0000000000000ae8 g     F .text	0000000000000040 TEE_GetObjectInfo1
0000000000009378 g     F .text	0000000000000064 __mpa_shift_words_right
0000000000006e60 g     F .text	0000000000000024 trace_set_level
00000000000040c8 g     F .text	000000000000000c utee_se_session_is_closed
0000000000003f00 g     F .text	000000000000000c utee_cryp_obj_get_info
0000000000000c68 g     F .text	00000000000000d0 TEE_GetObjectValueAttribute
0000000000002178 g     F .text	00000000000000f0 TEE_SetOperationKey
0000000000003ffc g     F .text	000000000000000c utee_storage_alloc_enum
0000000000004014 g     F .text	000000000000000c utee_storage_reset_enum
0000000000004050 g     F .text	000000000000000c utee_storage_obj_trunc
000000000000aaf0 g     F .text	0000000000000018 mpa_mod
000000000000a054 g     F .text	000000000000001c __mpa_abs_greater_than
0000000000004864 g     F .text	0000000000000020 TEE_BigIntConvertToS32
00000000000048d0 g     F .text	000000000000000c TEE_BigIntSub
0000000000003e40 g     F .text	000000000000000c utee_get_cancellation_flag
0000000000003eb8 g     F .text	000000000000000c utee_hash_init
00000000000005bc g     F .text	0000000000000008 tahead_get_trace_level
00000000000005c4 g     F .text	0000000000000078 __utee_from_param
0000000000001638 g     F .text	00000000000000d0 TEE_SeekObjectData
000000000000af58 g     O .rodata	0000000000000010 Const_1_LShift_Base
000000000000063c g     F .text	000000000000006c __utee_to_param
0000000000005950 g     F .text	00000000000003b8 memalign
000000000000284c g     F .text	00000000000001a8 TEE_CipherDoFinal
0000000000004860 g     F .text	0000000000000004 TEE_BigIntConvertFromS32
000000000000ab8c g     F .text	0000000000000084 mpa_sub_mod
0000000000003f0c g     F .text	000000000000000c utee_cryp_obj_restrict_usage
0000000000005e1c g     F .text	0000000000000180 malloc_buffer_is_within_alloced
0000000000003f54 g     F .text	000000000000000c utee_cryp_obj_copy
000000000000956c g     F .text	0000000000000144 mpa_shift_right
000000000000479c g     F .text	0000000000000038 TEE_BigIntInitFMMContext
0000000000003f60 g     F .text	000000000000000c utee_cryp_derive_key
000000000000738c g     F .text	0000000000000124 __mpa_montgomery_mul
000000000000a97c g     F .text	0000000000000174 mpa_get_oct_str
000000000000a0f0 g     F .text	0000000000000084 mpa_cmp_short
0000000000003fa8 g     F .text	000000000000000c utee_authenc_dec_final
0000000000001578 g     F .text	0000000000000064 TEE_WriteObjectData
0000000000001414 g     F .text	0000000000000028 TEE_ResetPersistentObjectEnumerator
0000000000009fa4 g     F .text	00000000000000b0 __mpa_abs_cmp
00000000000048ec g     F .text	0000000000000010 TEE_BigIntSquare
0000000000000020 g     F .text	0000000000000008 TA_CreateEntryPoint
0000000000006dac g     F .text	0000000000000074 snprintk
00000000000048ac g     F .text	0000000000000018 TEE_BigIntGetBitCount
0000000000004b44 g     F .text	00000000000000c8 TEE_BigIntMulMod
0000000000003790 g     F .text	0000000000000144 TEE_DeriveKey
000000000000d158 g     O .bss	0000000000000040 ta_params
0000000000008eb8 g     F .text	00000000000000f4 __mpa_abs_mul
00000000000050f8 g     F .text	00000000000001c0 bget
0000000000000d60 g     F .text	0000000000000064 TEE_AllocateTransientObject
0000000000000a38 g     F .text	0000000000000004 TEE_Free
00000000000040a4 g     F .text	000000000000000c utee_se_reader_get_name
0000000000000a4c g     F .text	0000000000000008 TEE_CacheInvalidate
0000000000003edc g     F .text	000000000000000c utee_cipher_init
0000000000004744 g     F .text	0000000000000014 _assert_break
00000000000049f4 g     F .text	00000000000000a8 TEE_BigIntAddMod
0000000000004008 g     F .text	000000000000000c utee_storage_free_enum
0000000000003f84 g     F .text	000000000000000c utee_authenc_update_aad
000000000000720c g     F .text	0000000000000044 mpa_get_bit
000000000000174c g     F .text	0000000000000824 TEE_AllocateOperation
0000000000008c8c g     F .text	0000000000000018 mpa_init_scratch_mem
00000000000038d4 g     F .text	0000000000000024 TEE_GenerateRandom
00000000000008cc g     F .text	0000000000000008 TEE_MemCompare
00000000000061b0 g     F .text	0000000000000ba8 __vsnprintf
00000000000013ec g     F .text	0000000000000028 TEE_FreePersistentObjectEnumerator
0000000000003dd4 g     F .text	000000000000000c utee_panic
00000000000006a8 g     F .text	0000000000000090 TEE_OpenTASession
0000000000004e30 g     F .text	0000000000000028 trace_ext_puts
0000000000004688 g     F .text	0000000000000078 tee_user_mem_garbage
0000000000004e58 g     F .text	0000000000000008 trace_ext_get_thread_id
00000000000012f8 g     F .text	000000000000002c TEE_CloseAndDeletePersistentObject
0000000000000a3c g     F .text	0000000000000008 TEE_CacheClean
0000000000003e1c g     F .text	000000000000000c utee_open_ta_session
0000000000006e20 g     F .text	0000000000000040 buf_compare_ct
0000000000007aec g     F .text	0000000000000050 __mpa_div_dword
00000000000070f0 g     F .text	0000000000000024 __mpa_set_unused_digits_to_zero
000000000000af68 g     O .rodata	000000000000000c const_largest_deci_base
000000000000a548 g     F .text	0000000000000008 mpa_get_str_size
00000000000045ec g     F .text	000000000000009c tee_user_mem_check_heap
0000000000000fd0 g     F .text	00000000000000ac TEE_CopyObjectAttributes1
0000000000003ed0 g     F .text	000000000000000c utee_hash_final
0000000000006194 g     F .text	000000000000001c strlen
0000000000004cfc g     F .text	000000000000000c TEE_BigIntComputeExtendedGcd
0000000000008a88 g     F .text	00000000000001ec mpa_extended_gcd
000000000000ab08 g     F .text	0000000000000084 mpa_add_mod
0000000000003fcc g     F .text	000000000000000c utee_storage_obj_open
0000000000003e34 g     F .text	000000000000000c utee_invoke_ta_command
000000000000a7e8 g     F .text	0000000000000084 mpa_get_str
0000000000003e70 g     F .text	000000000000000c utee_wait
0000000000004e28 g     F .text	0000000000000004 utee_free
00000000000045e0 g     F .text	000000000000000c tee_user_mem_mark_heap
00000000000008dc g     F .text	0000000000000028 TEE_GetSystemTime
0000000000000000 g     O .ta_head	0000000000000020 ta_head
0000000000005340 g     F .text	000000000000029c brel
0000000000008ca4 g     F .text	00000000000000e8 mpa_alloc_static_temp_var_size
0000000000003e7c g     F .text	000000000000000c utee_get_time
0000000000007284 g     F .text	0000000000000078 __mpa_montgomery_mul_add
00000000000008ac g     F .text	000000000000000c TEE_SetInstanceData
0000000000003e58 g     F .text	000000000000000c utee_unmask_cancellation
0000000000003e4c g     F .text	000000000000000c utee_check_access_rights
00000000000040bc g     F .text	000000000000000c utee_se_reader_close_sessions
000000000000148c g     F .text	0000000000000084 TEE_GetNextPersistentObject
0000000000004068 g     F .text	000000000000000c utee_cryp_obj_generate_key
0000000000007278 g     F .text	000000000000000c mpa_constant_one
0000000000000738 g     F .text	0000000000000028 TEE_CloseTASession
0000000000003664 g     F .text	000000000000012c TEE_AsymmetricVerifyDigest
00000000000096b0 g     F .text	000000000000001c __mpa_full_adder
00000000000098d0 g     F .text	0000000000000104 __mpa_abs_sub
0000000000017d48 g       .bss	0000000000000000 __gprof_buf_start
0000000000005888 g     F .text	0000000000000014 free
0000000000005758 g     F .text	0000000000000098 bstats
0000000000002b38 g     F .text	00000000000000bc TEE_MACComputeFinal



Disassembly of section .text:

0000000000000020 <TA_CreateEntryPoint>:
TA_CreateEntryPoint():
/home/ubuntu/rpi3_optee_cachegrab/apps/aes/ta/aes_ta.c:368
      20:	52800000 	mov	w0, #0x0                   	// #0
      24:	d65f03c0 	ret

0000000000000028 <TA_DestroyEntryPoint>:
TA_DestroyEntryPoint():
/home/ubuntu/rpi3_optee_cachegrab/apps/aes/ta/aes_ta.c:373
      28:	d65f03c0 	ret

000000000000002c <TA_OpenSessionEntryPoint>:
TA_OpenSessionEntryPoint():
/home/ubuntu/rpi3_optee_cachegrab/apps/aes/ta/aes_ta.c:378
      2c:	a9be7bfd 	stp	x29, x30, [sp, #-32]!
/home/ubuntu/rpi3_optee_cachegrab/apps/aes/ta/aes_ta.c:386
      30:	52800001 	mov	w1, #0x0                   	// #0
      34:	52800400 	mov	w0, #0x20                  	// #32
/home/ubuntu/rpi3_optee_cachegrab/apps/aes/ta/aes_ta.c:378
      38:	910003fd 	mov	x29, sp
      3c:	f9000bf3 	str	x19, [sp, #16]
      40:	aa0203f3 	mov	x19, x2
/home/ubuntu/rpi3_optee_cachegrab/apps/aes/ta/aes_ta.c:386
      44:	94000279 	bl	a28 <TEE_Malloc>
/home/ubuntu/rpi3_optee_cachegrab/apps/aes/ta/aes_ta.c:387
      48:	b4000200 	cbz	x0, 88 <TA_OpenSessionEntryPoint+0x5c>
/home/ubuntu/rpi3_optee_cachegrab/apps/aes/ta/aes_ta.c:390
      4c:	a9017c1f 	stp	xzr, xzr, [x0, #16]
/home/ubuntu/rpi3_optee_cachegrab/apps/aes/ta/aes_ta.c:394
      50:	aa0003e5 	mov	x5, x0
/home/ubuntu/rpi3_optee_cachegrab/apps/aes/ta/aes_ta.c:393
      54:	f9000260 	str	x0, [x19]
/home/ubuntu/rpi3_optee_cachegrab/apps/aes/ta/aes_ta.c:394
      58:	f0000044 	adrp	x4, b000 <PRIME_TABLE+0x88>
      5c:	52800023 	mov	w3, #0x1                   	// #1
      60:	91365c84 	add	x4, x4, #0xd97
      64:	52800062 	mov	w2, #0x3                   	// #3
      68:	52803141 	mov	w1, #0x18a                 	// #394
      6c:	f0000040 	adrp	x0, b000 <PRIME_TABLE+0x88>
      70:	91335000 	add	x0, x0, #0xcd4
      74:	94001b88 	bl	6e94 <trace_printf>
/home/ubuntu/rpi3_optee_cachegrab/apps/aes/ta/aes_ta.c:396
      78:	52800000 	mov	w0, #0x0                   	// #0
/home/ubuntu/rpi3_optee_cachegrab/apps/aes/ta/aes_ta.c:397
      7c:	f9400bf3 	ldr	x19, [sp, #16]
      80:	a8c27bfd 	ldp	x29, x30, [sp], #32
      84:	d65f03c0 	ret
/home/ubuntu/rpi3_optee_cachegrab/apps/aes/ta/aes_ta.c:388
      88:	129ffe60 	mov	w0, #0xffff000c            	// #-65524
      8c:	17fffffc 	b	7c <TA_OpenSessionEntryPoint+0x50>

0000000000000090 <TA_CloseSessionEntryPoint>:
TA_CloseSessionEntryPoint():
/home/ubuntu/rpi3_optee_cachegrab/apps/aes/ta/aes_ta.c:400
      90:	a9be7bfd 	stp	x29, x30, [sp, #-32]!
/home/ubuntu/rpi3_optee_cachegrab/apps/aes/ta/aes_ta.c:404
      94:	aa0003e5 	mov	x5, x0
      98:	f0000044 	adrp	x4, b000 <PRIME_TABLE+0x88>
      9c:	52800023 	mov	w3, #0x1                   	// #1
/home/ubuntu/rpi3_optee_cachegrab/apps/aes/ta/aes_ta.c:400
      a0:	910003fd 	mov	x29, sp
      a4:	f9000bf3 	str	x19, [sp, #16]
      a8:	aa0003f3 	mov	x19, x0
/home/ubuntu/rpi3_optee_cachegrab/apps/aes/ta/aes_ta.c:404
      ac:	f0000040 	adrp	x0, b000 <PRIME_TABLE+0x88>
      b0:	91335000 	add	x0, x0, #0xcd4
      b4:	91006400 	add	x0, x0, #0x19
      b8:	9136cc84 	add	x4, x4, #0xdb3
      bc:	52800062 	mov	w2, #0x3                   	// #3
      c0:	52803281 	mov	w1, #0x194                 	// #404
      c4:	94001b74 	bl	6e94 <trace_printf>
/home/ubuntu/rpi3_optee_cachegrab/apps/aes/ta/aes_ta.c:408
      c8:	f9400e60 	ldr	x0, [x19, #24]
      cc:	b4000040 	cbz	x0, d4 <TA_CloseSessionEntryPoint+0x44>
/home/ubuntu/rpi3_optee_cachegrab/apps/aes/ta/aes_ta.c:409
      d0:	9400033d 	bl	dc4 <TEE_FreeTransientObject>
/home/ubuntu/rpi3_optee_cachegrab/apps/aes/ta/aes_ta.c:410
      d4:	f9400a60 	ldr	x0, [x19, #16]
      d8:	b4000040 	cbz	x0, e0 <TA_CloseSessionEntryPoint+0x50>
/home/ubuntu/rpi3_optee_cachegrab/apps/aes/ta/aes_ta.c:411
      dc:	9400058b 	bl	1708 <TEE_FreeOperation>
/home/ubuntu/rpi3_optee_cachegrab/apps/aes/ta/aes_ta.c:412
      e0:	aa1303e0 	mov	x0, x19
/home/ubuntu/rpi3_optee_cachegrab/apps/aes/ta/aes_ta.c:413
      e4:	f9400bf3 	ldr	x19, [sp, #16]
      e8:	a8c27bfd 	ldp	x29, x30, [sp], #32
/home/ubuntu/rpi3_optee_cachegrab/apps/aes/ta/aes_ta.c:412
      ec:	14000253 	b	a38 <TEE_Free>

00000000000000f0 <TA_InvokeCommandEntryPoint>:
TA_InvokeCommandEntryPoint():
/home/ubuntu/rpi3_optee_cachegrab/apps/aes/ta/aes_ta.c:419
      f0:	a9ba7bfd 	stp	x29, x30, [sp, #-96]!
/home/ubuntu/rpi3_optee_cachegrab/apps/aes/ta/aes_ta.c:420
      f4:	71000c3f 	cmp	w1, #0x3
/home/ubuntu/rpi3_optee_cachegrab/apps/aes/ta/aes_ta.c:419
      f8:	910003fd 	mov	x29, sp
      fc:	a9025bf5 	stp	x21, x22, [sp, #32]
     100:	2a0203f6 	mov	w22, w2
     104:	90000062 	adrp	x2, c000 <__func__.3927+0x294>
     108:	aa0003f5 	mov	x21, x0
     10c:	a90153f3 	stp	x19, x20, [sp, #16]
     110:	f0000053 	adrp	x19, b000 <PRIME_TABLE+0x88>
     114:	f9447042 	ldr	x2, [x2, #2272]
     118:	f9400040 	ldr	x0, [x2]
     11c:	f9002fa0 	str	x0, [x29, #88]
     120:	d2800000 	mov	x0, #0x0                   	// #0
     124:	f9001bf7 	str	x23, [sp, #48]
/home/ubuntu/rpi3_optee_cachegrab/apps/aes/ta/aes_ta.c:420
     128:	54002268 	b.hi	574 <TA_InvokeCommandEntryPoint+0x484>  // b.pmore
     12c:	f0000040 	adrp	x0, b000 <PRIME_TABLE+0x88>
     130:	aa0303f4 	mov	x20, x3
     134:	91333000 	add	x0, x0, #0xccc
     138:	78615800 	ldrh	w0, [x0, w1, uxtw #1]
     13c:	10000061 	adr	x1, 148 <TA_InvokeCommandEntryPoint+0x58>
     140:	8b20a820 	add	x0, x1, w0, sxth #2
     144:	d61f0000 	br	x0
alloc_resources():
/home/ubuntu/rpi3_optee_cachegrab/apps/aes/ta/aes_ta.c:124
     148:	91335277 	add	x23, x19, #0xcd4
     14c:	aa1503e5 	mov	x5, x21
     150:	f0000044 	adrp	x4, b000 <PRIME_TABLE+0x88>
     154:	52800023 	mov	w3, #0x1                   	// #1
     158:	91373c84 	add	x4, x4, #0xdcf
     15c:	52800062 	mov	w2, #0x3                   	// #3
     160:	52800f81 	mov	w1, #0x7c                  	// #124
     164:	9100cee0 	add	x0, x23, #0x33
     168:	94001b4b 	bl	6e94 <trace_printf>
/home/ubuntu/rpi3_optee_cachegrab/apps/aes/ta/aes_ta.c:128
     16c:	710446df 	cmp	w22, #0x111
     170:	540001c1 	b.ne	1a8 <TA_InvokeCommandEntryPoint+0xb8>  // b.any
/home/ubuntu/rpi3_optee_cachegrab/apps/aes/ta/aes_ta.c:131
     174:	b9400285 	ldr	w5, [x20]
ta2tee_algo_id():
/home/ubuntu/rpi3_optee_cachegrab/apps/aes/ta/aes_ta.c:59
     178:	710004bf 	cmp	w5, #0x1
     17c:	54000520 	b.eq	220 <TA_InvokeCommandEntryPoint+0x130>  // b.none
     180:	34000265 	cbz	w5, 1cc <TA_InvokeCommandEntryPoint+0xdc>
     184:	710008bf 	cmp	w5, #0x2
     188:	54000500 	b.eq	228 <TA_InvokeCommandEntryPoint+0x138>  // b.none
/home/ubuntu/rpi3_optee_cachegrab/apps/aes/ta/aes_ta.c:70
     18c:	f0000044 	adrp	x4, b000 <PRIME_TABLE+0x88>
     190:	91010ee0 	add	x0, x23, #0x43
     194:	9137cc84 	add	x4, x4, #0xdf3
     198:	52800023 	mov	w3, #0x1                   	// #1
     19c:	52800022 	mov	w2, #0x1                   	// #1
     1a0:	528008c1 	mov	w1, #0x46                  	// #70
ta2tee_key_size():
/home/ubuntu/rpi3_optee_cachegrab/apps/aes/ta/aes_ta.c:82
     1a4:	94001b3c 	bl	6e94 <trace_printf>
/home/ubuntu/rpi3_optee_cachegrab/apps/aes/ta/aes_ta.c:83
     1a8:	129fff34 	mov	w20, #0xffff0006            	// #-65530
TA_InvokeCommandEntryPoint():
/home/ubuntu/rpi3_optee_cachegrab/apps/aes/ta/aes_ta.c:433
     1ac:	90000062 	adrp	x2, c000 <__func__.3927+0x294>
     1b0:	2a1403e0 	mov	w0, w20
     1b4:	f9447042 	ldr	x2, [x2, #2272]
     1b8:	f9402fa3 	ldr	x3, [x29, #88]
     1bc:	f9400041 	ldr	x1, [x2]
     1c0:	ca010061 	eor	x1, x3, x1
     1c4:	b4001f21 	cbz	x1, 5a8 <TA_InvokeCommandEntryPoint+0x4b8>
     1c8:	940017c3 	bl	60d4 <__stack_chk_fail>
ta2tee_algo_id():
/home/ubuntu/rpi3_optee_cachegrab/apps/aes/ta/aes_ta.c:61
     1cc:	52800200 	mov	w0, #0x10                  	// #16
/home/ubuntu/rpi3_optee_cachegrab/apps/aes/ta/aes_ta.c:64
     1d0:	72a20000 	movk	w0, #0x1000, lsl #16
     1d4:	b90002a0 	str	w0, [x21]
alloc_resources():
/home/ubuntu/rpi3_optee_cachegrab/apps/aes/ta/aes_ta.c:135
     1d8:	b9401285 	ldr	w5, [x20, #16]
ta2tee_key_size():
/home/ubuntu/rpi3_optee_cachegrab/apps/aes/ta/aes_ta.c:76
     1dc:	710040bf 	cmp	w5, #0x10
     1e0:	54000060 	b.eq	1ec <TA_InvokeCommandEntryPoint+0xfc>  // b.none
     1e4:	710080bf 	cmp	w5, #0x20
     1e8:	54000241 	b.ne	230 <TA_InvokeCommandEntryPoint+0x140>  // b.any
/home/ubuntu/rpi3_optee_cachegrab/apps/aes/ta/aes_ta.c:79
     1ec:	b9000aa5 	str	w5, [x21, #8]
alloc_resources():
/home/ubuntu/rpi3_optee_cachegrab/apps/aes/ta/aes_ta.c:139
     1f0:	b9402285 	ldr	w5, [x20, #32]
ta2tee_mode_id():
/home/ubuntu/rpi3_optee_cachegrab/apps/aes/ta/aes_ta.c:88
     1f4:	34000685 	cbz	w5, 2c4 <TA_InvokeCommandEntryPoint+0x1d4>
     1f8:	710004bf 	cmp	w5, #0x1
     1fc:	540002a0 	b.eq	250 <TA_InvokeCommandEntryPoint+0x160>  // b.none
/home/ubuntu/rpi3_optee_cachegrab/apps/aes/ta/aes_ta.c:96
     200:	91335260 	add	x0, x19, #0xcd4
     204:	f0000044 	adrp	x4, b000 <PRIME_TABLE+0x88>
     208:	52800023 	mov	w3, #0x1                   	// #1
     20c:	91385c84 	add	x4, x4, #0xe17
     210:	52800022 	mov	w2, #0x1                   	// #1
     214:	52800c01 	mov	w1, #0x60                  	// #96
     218:	91018800 	add	x0, x0, #0x62
     21c:	17ffffe2 	b	1a4 <TA_InvokeCommandEntryPoint+0xb4>
ta2tee_algo_id():
/home/ubuntu/rpi3_optee_cachegrab/apps/aes/ta/aes_ta.c:64
     220:	52802200 	mov	w0, #0x110                 	// #272
     224:	17ffffeb 	b	1d0 <TA_InvokeCommandEntryPoint+0xe0>
/home/ubuntu/rpi3_optee_cachegrab/apps/aes/ta/aes_ta.c:67
     228:	52804200 	mov	w0, #0x210                 	// #528
     22c:	17ffffe9 	b	1d0 <TA_InvokeCommandEntryPoint+0xe0>
ta2tee_key_size():
/home/ubuntu/rpi3_optee_cachegrab/apps/aes/ta/aes_ta.c:82
     230:	91335260 	add	x0, x19, #0xcd4
     234:	f0000044 	adrp	x4, b000 <PRIME_TABLE+0x88>
     238:	52800023 	mov	w3, #0x1                   	// #1
     23c:	91380c84 	add	x4, x4, #0xe03
     240:	52800022 	mov	w2, #0x1                   	// #1
     244:	52800a41 	mov	w1, #0x52                  	// #82
     248:	91014800 	add	x0, x0, #0x52
     24c:	17ffffd6 	b	1a4 <TA_InvokeCommandEntryPoint+0xb4>
ta2tee_mode_id():
/home/ubuntu/rpi3_optee_cachegrab/apps/aes/ta/aes_ta.c:90
     250:	b90006bf 	str	wzr, [x21, #4]
alloc_resources():
/home/ubuntu/rpi3_optee_cachegrab/apps/aes/ta/aes_ta.c:151
     254:	f9400aa0 	ldr	x0, [x21, #16]
     258:	b4000040 	cbz	x0, 260 <TA_InvokeCommandEntryPoint+0x170>
/home/ubuntu/rpi3_optee_cachegrab/apps/aes/ta/aes_ta.c:152
     25c:	9400052b 	bl	1708 <TEE_FreeOperation>
/home/ubuntu/rpi3_optee_cachegrab/apps/aes/ta/aes_ta.c:155
     260:	29400aa1 	ldp	w1, w2, [x21]
     264:	910042a0 	add	x0, x21, #0x10
     268:	b9400aa3 	ldr	w3, [x21, #8]
     26c:	531d7063 	lsl	w3, w3, #3
     270:	94000537 	bl	174c <TEE_AllocateOperation>
     274:	2a0003f4 	mov	w20, w0
/home/ubuntu/rpi3_optee_cachegrab/apps/aes/ta/aes_ta.c:159
     278:	340002c0 	cbz	w0, 2d0 <TA_InvokeCommandEntryPoint+0x1e0>
/home/ubuntu/rpi3_optee_cachegrab/apps/aes/ta/aes_ta.c:160
     27c:	91335260 	add	x0, x19, #0xcd4
     280:	f0000044 	adrp	x4, b000 <PRIME_TABLE+0x88>
     284:	52800023 	mov	w3, #0x1                   	// #1
     288:	91389c84 	add	x4, x4, #0xe27
     28c:	52800022 	mov	w2, #0x1                   	// #1
     290:	52801401 	mov	w1, #0xa0                  	// #160
     294:	9100cc00 	add	x0, x0, #0x33
     298:	94001aff 	bl	6e94 <trace_printf>
/home/ubuntu/rpi3_optee_cachegrab/apps/aes/ta/aes_ta.c:161
     29c:	f9000abf 	str	xzr, [x21, #16]
/home/ubuntu/rpi3_optee_cachegrab/apps/aes/ta/aes_ta.c:211
     2a0:	f9400aa0 	ldr	x0, [x21, #16]
     2a4:	b4000040 	cbz	x0, 2ac <TA_InvokeCommandEntryPoint+0x1bc>
/home/ubuntu/rpi3_optee_cachegrab/apps/aes/ta/aes_ta.c:212
     2a8:	94000518 	bl	1708 <TEE_FreeOperation>
/home/ubuntu/rpi3_optee_cachegrab/apps/aes/ta/aes_ta.c:215
     2ac:	f9400ea0 	ldr	x0, [x21, #24]
/home/ubuntu/rpi3_optee_cachegrab/apps/aes/ta/aes_ta.c:213
     2b0:	f9000abf 	str	xzr, [x21, #16]
/home/ubuntu/rpi3_optee_cachegrab/apps/aes/ta/aes_ta.c:215
     2b4:	b4000040 	cbz	x0, 2bc <TA_InvokeCommandEntryPoint+0x1cc>
/home/ubuntu/rpi3_optee_cachegrab/apps/aes/ta/aes_ta.c:216
     2b8:	940002c3 	bl	dc4 <TEE_FreeTransientObject>
/home/ubuntu/rpi3_optee_cachegrab/apps/aes/ta/aes_ta.c:217
     2bc:	f9000ebf 	str	xzr, [x21, #24]
     2c0:	17ffffbb 	b	1ac <TA_InvokeCommandEntryPoint+0xbc>
ta2tee_mode_id():
/home/ubuntu/rpi3_optee_cachegrab/apps/aes/ta/aes_ta.c:93
     2c4:	52800020 	mov	w0, #0x1                   	// #1
     2c8:	b90006a0 	str	w0, [x21, #4]
     2cc:	17ffffe2 	b	254 <TA_InvokeCommandEntryPoint+0x164>
alloc_resources():
/home/ubuntu/rpi3_optee_cachegrab/apps/aes/ta/aes_ta.c:166
     2d0:	f9400ea0 	ldr	x0, [x21, #24]
     2d4:	b4000040 	cbz	x0, 2dc <TA_InvokeCommandEntryPoint+0x1ec>
/home/ubuntu/rpi3_optee_cachegrab/apps/aes/ta/aes_ta.c:167
     2d8:	940002bb 	bl	dc4 <TEE_FreeTransientObject>
/home/ubuntu/rpi3_optee_cachegrab/apps/aes/ta/aes_ta.c:170
     2dc:	b9400aa1 	ldr	w1, [x21, #8]
     2e0:	52800200 	mov	w0, #0x10                  	// #16
     2e4:	910062a2 	add	x2, x21, #0x18
     2e8:	72b40000 	movk	w0, #0xa000, lsl #16
     2ec:	531d7021 	lsl	w1, w1, #3
     2f0:	9400029c 	bl	d60 <TEE_AllocateTransientObject>
     2f4:	2a0003f4 	mov	w20, w0
/home/ubuntu/rpi3_optee_cachegrab/apps/aes/ta/aes_ta.c:173
     2f8:	34000160 	cbz	w0, 324 <TA_InvokeCommandEntryPoint+0x234>
/home/ubuntu/rpi3_optee_cachegrab/apps/aes/ta/aes_ta.c:174
     2fc:	91335260 	add	x0, x19, #0xcd4
     300:	f0000044 	adrp	x4, b000 <PRIME_TABLE+0x88>
     304:	52800023 	mov	w3, #0x1                   	// #1
     308:	91391084 	add	x4, x4, #0xe44
     30c:	52800022 	mov	w2, #0x1                   	// #1
     310:	528015c1 	mov	w1, #0xae                  	// #174
     314:	9100cc00 	add	x0, x0, #0x33
     318:	94001adf 	bl	6e94 <trace_printf>
/home/ubuntu/rpi3_optee_cachegrab/apps/aes/ta/aes_ta.c:175
     31c:	f9000ebf 	str	xzr, [x21, #24]
     320:	17ffffe0 	b	2a0 <TA_InvokeCommandEntryPoint+0x1b0>
/home/ubuntu/rpi3_optee_cachegrab/apps/aes/ta/aes_ta.c:188
     324:	b9400aa0 	ldr	w0, [x21, #8]
     328:	52800001 	mov	w1, #0x0                   	// #0
     32c:	940001bf 	bl	a28 <TEE_Malloc>
/home/ubuntu/rpi3_optee_cachegrab/apps/aes/ta/aes_ta.c:189
     330:	b4000460 	cbz	x0, 3bc <TA_InvokeCommandEntryPoint+0x2cc>
/home/ubuntu/rpi3_optee_cachegrab/apps/aes/ta/aes_ta.c:194
     334:	b9400aa3 	ldr	w3, [x21, #8]
     338:	910103b4 	add	x20, x29, #0x40
     33c:	aa0003e2 	mov	x2, x0
     340:	52b80001 	mov	w1, #0xc0000000            	// #-1073741824
     344:	aa1403e0 	mov	x0, x20
     348:	940002f9 	bl	f2c <TEE_InitRefAttribute>
/home/ubuntu/rpi3_optee_cachegrab/apps/aes/ta/aes_ta.c:196
     34c:	f9400ea0 	ldr	x0, [x21, #24]
     350:	aa1403e1 	mov	x1, x20
     354:	52800022 	mov	w2, #0x1                   	// #1
     358:	940002c5 	bl	e6c <TEE_PopulateTransientObject>
     35c:	2a0003f4 	mov	w20, w0
/home/ubuntu/rpi3_optee_cachegrab/apps/aes/ta/aes_ta.c:197
     360:	34000160 	cbz	w0, 38c <TA_InvokeCommandEntryPoint+0x29c>
/home/ubuntu/rpi3_optee_cachegrab/apps/aes/ta/aes_ta.c:198
     364:	f0000044 	adrp	x4, b000 <PRIME_TABLE+0x88>
     368:	91335260 	add	x0, x19, #0xcd4
     36c:	2a1403e5 	mov	w5, w20
     370:	9139a084 	add	x4, x4, #0xe68
     374:	52800023 	mov	w3, #0x1                   	// #1
     378:	52800022 	mov	w2, #0x1                   	// #1
     37c:	528018c1 	mov	w1, #0xc6                  	// #198
/home/ubuntu/rpi3_optee_cachegrab/apps/aes/ta/aes_ta.c:204
     380:	9100cc00 	add	x0, x0, #0x33
     384:	94001ac4 	bl	6e94 <trace_printf>
     388:	17ffffc6 	b	2a0 <TA_InvokeCommandEntryPoint+0x1b0>
/home/ubuntu/rpi3_optee_cachegrab/apps/aes/ta/aes_ta.c:202
     38c:	a94106a0 	ldp	x0, x1, [x21, #16]
     390:	9400077a 	bl	2178 <TEE_SetOperationKey>
     394:	2a0003f4 	mov	w20, w0
/home/ubuntu/rpi3_optee_cachegrab/apps/aes/ta/aes_ta.c:203
     398:	34fff0a0 	cbz	w0, 1ac <TA_InvokeCommandEntryPoint+0xbc>
/home/ubuntu/rpi3_optee_cachegrab/apps/aes/ta/aes_ta.c:204
     39c:	f0000044 	adrp	x4, b000 <PRIME_TABLE+0x88>
     3a0:	91335260 	add	x0, x19, #0xcd4
     3a4:	2a1403e5 	mov	w5, w20
     3a8:	913a3c84 	add	x4, x4, #0xe8f
     3ac:	52800023 	mov	w3, #0x1                   	// #1
     3b0:	52800022 	mov	w2, #0x1                   	// #1
     3b4:	52801981 	mov	w1, #0xcc                  	// #204
     3b8:	17fffff2 	b	380 <TA_InvokeCommandEntryPoint+0x290>
/home/ubuntu/rpi3_optee_cachegrab/apps/aes/ta/aes_ta.c:190
     3bc:	129ffe74 	mov	w20, #0xffff000c            	// #-65524
     3c0:	17ffffb8 	b	2a0 <TA_InvokeCommandEntryPoint+0x1b0>
set_aes_key():
/home/ubuntu/rpi3_optee_cachegrab/apps/aes/ta/aes_ta.c:240
     3c4:	91335260 	add	x0, x19, #0xcd4
     3c8:	aa1503e5 	mov	x5, x21
     3cc:	9101c413 	add	x19, x0, #0x71
     3d0:	f0000044 	adrp	x4, b000 <PRIME_TABLE+0x88>
     3d4:	52800023 	mov	w3, #0x1                   	// #1
     3d8:	913ab484 	add	x4, x4, #0xead
     3dc:	52800062 	mov	w2, #0x3                   	// #3
     3e0:	52801e01 	mov	w1, #0xf0                  	// #240
     3e4:	aa1303e0 	mov	x0, x19
     3e8:	94001aab 	bl	6e94 <trace_printf>
/home/ubuntu/rpi3_optee_cachegrab/apps/aes/ta/aes_ta.c:244
     3ec:	710016df 	cmp	w22, #0x5
     3f0:	54ffedc1 	b.ne	1a8 <TA_InvokeCommandEntryPoint+0xb8>  // b.any
/home/ubuntu/rpi3_optee_cachegrab/apps/aes/ta/aes_ta.c:248
     3f4:	b9400a83 	ldr	w3, [x20, #8]
/home/ubuntu/rpi3_optee_cachegrab/apps/aes/ta/aes_ta.c:250
     3f8:	b9400aa6 	ldr	w6, [x21, #8]
     3fc:	6b06007f 	cmp	w3, w6
     400:	54000140 	b.eq	428 <TA_InvokeCommandEntryPoint+0x338>  // b.none
/home/ubuntu/rpi3_optee_cachegrab/apps/aes/ta/aes_ta.c:251
     404:	f0000044 	adrp	x4, b000 <PRIME_TABLE+0x88>
     408:	913b2c84 	add	x4, x4, #0xecb
     40c:	2a0303e5 	mov	w5, w3
     410:	52800022 	mov	w2, #0x1                   	// #1
     414:	52800023 	mov	w3, #0x1                   	// #1
     418:	52801f81 	mov	w1, #0xfc                  	// #252
cipher_buffer():
/home/ubuntu/rpi3_optee_cachegrab/apps/aes/ta/aes_ta.c:348
     41c:	aa1303e0 	mov	x0, x19
     420:	94001a9d 	bl	6e94 <trace_printf>
     424:	17ffff61 	b	1a8 <TA_InvokeCommandEntryPoint+0xb8>
set_aes_key():
/home/ubuntu/rpi3_optee_cachegrab/apps/aes/ta/aes_ta.c:273
     428:	f9400282 	ldr	x2, [x20]
     42c:	910103a0 	add	x0, x29, #0x40
     430:	aa0003f4 	mov	x20, x0
     434:	52b80001 	mov	w1, #0xc0000000            	// #-1073741824
     438:	940002bd 	bl	f2c <TEE_InitRefAttribute>
/home/ubuntu/rpi3_optee_cachegrab/apps/aes/ta/aes_ta.c:275
     43c:	f9400ea0 	ldr	x0, [x21, #24]
     440:	94000276 	bl	e18 <TEE_ResetTransientObject>
/home/ubuntu/rpi3_optee_cachegrab/apps/aes/ta/aes_ta.c:276
     444:	f9400ea0 	ldr	x0, [x21, #24]
     448:	aa1403e1 	mov	x1, x20
     44c:	52800022 	mov	w2, #0x1                   	// #1
     450:	94000287 	bl	e6c <TEE_PopulateTransientObject>
     454:	2a0003f4 	mov	w20, w0
/home/ubuntu/rpi3_optee_cachegrab/apps/aes/ta/aes_ta.c:277
     458:	34000140 	cbz	w0, 480 <TA_InvokeCommandEntryPoint+0x390>
/home/ubuntu/rpi3_optee_cachegrab/apps/aes/ta/aes_ta.c:278
     45c:	f0000044 	adrp	x4, b000 <PRIME_TABLE+0x88>
     460:	2a0003e5 	mov	w5, w0
     464:	9139a084 	add	x4, x4, #0xe68
     468:	52800023 	mov	w3, #0x1                   	// #1
     46c:	52800022 	mov	w2, #0x1                   	// #1
     470:	528022c1 	mov	w1, #0x116                 	// #278
/home/ubuntu/rpi3_optee_cachegrab/apps/aes/ta/aes_ta.c:285
     474:	aa1303e0 	mov	x0, x19
     478:	94001a87 	bl	6e94 <trace_printf>
     47c:	17ffff4c 	b	1ac <TA_InvokeCommandEntryPoint+0xbc>
/home/ubuntu/rpi3_optee_cachegrab/apps/aes/ta/aes_ta.c:282
     480:	f9400aa0 	ldr	x0, [x21, #16]
     484:	9400071f 	bl	2100 <TEE_ResetOperation>
/home/ubuntu/rpi3_optee_cachegrab/apps/aes/ta/aes_ta.c:283
     488:	a94106a0 	ldp	x0, x1, [x21, #16]
     48c:	9400073b 	bl	2178 <TEE_SetOperationKey>
     490:	2a0003f4 	mov	w20, w0
/home/ubuntu/rpi3_optee_cachegrab/apps/aes/ta/aes_ta.c:284
     494:	34ffe8c0 	cbz	w0, 1ac <TA_InvokeCommandEntryPoint+0xbc>
/home/ubuntu/rpi3_optee_cachegrab/apps/aes/ta/aes_ta.c:285
     498:	f0000044 	adrp	x4, b000 <PRIME_TABLE+0x88>
     49c:	2a0003e5 	mov	w5, w0
     4a0:	913a3c84 	add	x4, x4, #0xe8f
     4a4:	52800023 	mov	w3, #0x1                   	// #1
     4a8:	52800022 	mov	w2, #0x1                   	// #1
     4ac:	528023a1 	mov	w1, #0x11d                 	// #285
     4b0:	17fffff1 	b	474 <TA_InvokeCommandEntryPoint+0x384>
reset_aes_iv():
/home/ubuntu/rpi3_optee_cachegrab/apps/aes/ta/aes_ta.c:308
     4b4:	91335260 	add	x0, x19, #0xcd4
     4b8:	aa1503e5 	mov	x5, x21
     4bc:	f0000044 	adrp	x4, b000 <PRIME_TABLE+0x88>
     4c0:	52800023 	mov	w3, #0x1                   	// #1
     4c4:	913bb884 	add	x4, x4, #0xeee
     4c8:	52800062 	mov	w2, #0x3                   	// #3
     4cc:	52802681 	mov	w1, #0x134                 	// #308
     4d0:	9101f400 	add	x0, x0, #0x7d
     4d4:	94001a70 	bl	6e94 <trace_printf>
/home/ubuntu/rpi3_optee_cachegrab/apps/aes/ta/aes_ta.c:312
     4d8:	710016df 	cmp	w22, #0x5
     4dc:	54ffe661 	b.ne	1a8 <TA_InvokeCommandEntryPoint+0xb8>  // b.any
/home/ubuntu/rpi3_optee_cachegrab/apps/aes/ta/aes_ta.c:321
     4e0:	b9400a82 	ldr	w2, [x20, #8]
     4e4:	f9400281 	ldr	x1, [x20]
/home/ubuntu/rpi3_optee_cachegrab/apps/aes/ta/aes_ta.c:323
     4e8:	52800014 	mov	w20, #0x0                   	// #0
/home/ubuntu/rpi3_optee_cachegrab/apps/aes/ta/aes_ta.c:321
     4ec:	f9400aa0 	ldr	x0, [x21, #16]
     4f0:	94000857 	bl	264c <TEE_CipherInit>
     4f4:	17ffff2e 	b	1ac <TA_InvokeCommandEntryPoint+0xbc>
cipher_buffer():
/home/ubuntu/rpi3_optee_cachegrab/apps/aes/ta/aes_ta.c:340
     4f8:	91335260 	add	x0, x19, #0xcd4
     4fc:	aa1503e5 	mov	x5, x21
     500:	91022813 	add	x19, x0, #0x8a
     504:	f0000044 	adrp	x4, b000 <PRIME_TABLE+0x88>
     508:	52800023 	mov	w3, #0x1                   	// #1
     50c:	913c3c84 	add	x4, x4, #0xf0f
     510:	52800062 	mov	w2, #0x3                   	// #3
     514:	52802a81 	mov	w1, #0x154                 	// #340
     518:	aa1303e0 	mov	x0, x19
     51c:	94001a5e 	bl	6e94 <trace_printf>
/home/ubuntu/rpi3_optee_cachegrab/apps/aes/ta/aes_ta.c:344
     520:	710196df 	cmp	w22, #0x65
     524:	54ffe421 	b.ne	1a8 <TA_InvokeCommandEntryPoint+0xb8>  // b.any
/home/ubuntu/rpi3_optee_cachegrab/apps/aes/ta/aes_ta.c:347
     528:	b9400a82 	ldr	w2, [x20, #8]
     52c:	b9401a86 	ldr	w6, [x20, #24]
     530:	6b0200df 	cmp	w6, w2
     534:	54000102 	b.cs	554 <TA_InvokeCommandEntryPoint+0x464>  // b.hs, b.nlast
/home/ubuntu/rpi3_optee_cachegrab/apps/aes/ta/aes_ta.c:348
     538:	2a0203e5 	mov	w5, w2
     53c:	f0000044 	adrp	x4, b000 <PRIME_TABLE+0x88>
     540:	52800023 	mov	w3, #0x1                   	// #1
     544:	913ca484 	add	x4, x4, #0xf29
     548:	52800022 	mov	w2, #0x1                   	// #1
     54c:	52802ba1 	mov	w1, #0x15d                 	// #349
     550:	17ffffb3 	b	41c <TA_InvokeCommandEntryPoint+0x32c>
/home/ubuntu/rpi3_optee_cachegrab/apps/aes/ta/aes_ta.c:353
     554:	f9400aa0 	ldr	x0, [x21, #16]
     558:	b4000240 	cbz	x0, 5a0 <TA_InvokeCommandEntryPoint+0x4b0>
/home/ubuntu/rpi3_optee_cachegrab/apps/aes/ta/aes_ta.c:359
     55c:	f9400281 	ldr	x1, [x20]
     560:	91006284 	add	x4, x20, #0x18
     564:	f9400a83 	ldr	x3, [x20, #16]
     568:	94000862 	bl	26f0 <TEE_CipherUpdate>
     56c:	2a0003f4 	mov	w20, w0
     570:	17ffff0f 	b	1ac <TA_InvokeCommandEntryPoint+0xbc>
TA_InvokeCommandEntryPoint():
/home/ubuntu/rpi3_optee_cachegrab/apps/aes/ta/aes_ta.c:430
     574:	91335260 	add	x0, x19, #0xcd4
     578:	2a0103e5 	mov	w5, w1
     57c:	f0000044 	adrp	x4, b000 <PRIME_TABLE+0x88>
     580:	52800023 	mov	w3, #0x1                   	// #1
     584:	913d0884 	add	x4, x4, #0xf42
     588:	52800022 	mov	w2, #0x1                   	// #1
     58c:	528035c1 	mov	w1, #0x1ae                 	// #430
     590:	91026000 	add	x0, x0, #0x98
/home/ubuntu/rpi3_optee_cachegrab/apps/aes/ta/aes_ta.c:431
     594:	129ffeb4 	mov	w20, #0xffff000a            	// #-65526
/home/ubuntu/rpi3_optee_cachegrab/apps/aes/ta/aes_ta.c:430
     598:	94001a3f 	bl	6e94 <trace_printf>
/home/ubuntu/rpi3_optee_cachegrab/apps/aes/ta/aes_ta.c:431
     59c:	17ffff04 	b	1ac <TA_InvokeCommandEntryPoint+0xbc>
cipher_buffer():
/home/ubuntu/rpi3_optee_cachegrab/apps/aes/ta/aes_ta.c:354
     5a0:	129fff14 	mov	w20, #0xffff0007            	// #-65529
     5a4:	17ffff02 	b	1ac <TA_InvokeCommandEntryPoint+0xbc>
TA_InvokeCommandEntryPoint():
/home/ubuntu/rpi3_optee_cachegrab/apps/aes/ta/aes_ta.c:433
     5a8:	a94153f3 	ldp	x19, x20, [sp, #16]
     5ac:	a9425bf5 	ldp	x21, x22, [sp, #32]
     5b0:	f9401bf7 	ldr	x23, [sp, #48]
     5b4:	a8c67bfd 	ldp	x29, x30, [sp], #96
     5b8:	d65f03c0 	ret

00000000000005bc <tahead_get_trace_level>:
tahead_get_trace_level():
/home/ubuntu/rpi3_optee_cachegrab/apps/ta_sdk/src/user_ta_header.c:130
     5bc:	52800080 	mov	w0, #0x4                   	// #4
     5c0:	d65f03c0 	ret

00000000000005c4 <__utee_from_param>:
__utee_from_param():
/home/zliu/ubuntu-optee-rpi3/RPi3_OPTEE_3.1/optee_os/lib/libutee/tee_api.c:48
     5c4:	f0000045 	adrp	x5, b000 <PRIME_TABLE+0x88>
     5c8:	913620a5 	add	x5, x5, #0xd88
/home/zliu/ubuntu-optee-rpi3/RPi3_OPTEE_3.1/optee_os/lib/libutee/tee_api.c:46
     5cc:	2a0103e3 	mov	w3, w1
     5d0:	52800004 	mov	w4, #0x0                   	// #0
     5d4:	f8008403 	str	x3, [x0], #8
/home/zliu/ubuntu-optee-rpi3/RPi3_OPTEE_3.1/optee_os/lib/libutee/tee_api.c:48
     5d8:	1ac42423 	lsr	w3, w1, w4
     5dc:	12000c63 	and	w3, w3, #0xf
     5e0:	51000463 	sub	w3, w3, #0x1
     5e4:	7100187f 	cmp	w3, #0x6
     5e8:	54000268 	b.hi	634 <__utee_from_param+0x70>  // b.pmore
     5ec:	386348a3 	ldrb	w3, [x5, w3, uxtw]
     5f0:	10000066 	adr	x6, 5fc <__utee_from_param+0x38>
     5f4:	8b2388c3 	add	x3, x6, w3, sxtb #2
     5f8:	d61f0060 	br	x3
/home/zliu/ubuntu-optee-rpi3/RPi3_OPTEE_3.1/optee_os/lib/libutee/tee_api.c:52
     5fc:	b9400043 	ldr	w3, [x2]
     600:	f9000003 	str	x3, [x0]
/home/zliu/ubuntu-optee-rpi3/RPi3_OPTEE_3.1/optee_os/lib/libutee/tee_api.c:53
     604:	b9400443 	ldr	w3, [x2, #4]
/home/zliu/ubuntu-optee-rpi3/RPi3_OPTEE_3.1/optee_os/lib/libutee/tee_api.c:59
     608:	f9000403 	str	x3, [x0, #8]
     60c:	11001084 	add	w4, w4, #0x4
     610:	91004042 	add	x2, x2, #0x10
     614:	91004000 	add	x0, x0, #0x10
/home/zliu/ubuntu-optee-rpi3/RPi3_OPTEE_3.1/optee_os/lib/libutee/tee_api.c:47 (discriminator 2)
     618:	7100409f 	cmp	w4, #0x10
     61c:	54fffde1 	b.ne	5d8 <__utee_from_param+0x14>  // b.any
/home/zliu/ubuntu-optee-rpi3/RPi3_OPTEE_3.1/optee_os/lib/libutee/tee_api.c:67
     620:	d65f03c0 	ret
/home/zliu/ubuntu-optee-rpi3/RPi3_OPTEE_3.1/optee_os/lib/libutee/tee_api.c:58
     624:	f9400043 	ldr	x3, [x2]
     628:	f9000003 	str	x3, [x0]
/home/zliu/ubuntu-optee-rpi3/RPi3_OPTEE_3.1/optee_os/lib/libutee/tee_api.c:59
     62c:	b9400843 	ldr	w3, [x2, #8]
     630:	17fffff6 	b	608 <__utee_from_param+0x44>
/home/zliu/ubuntu-optee-rpi3/RPi3_OPTEE_3.1/optee_os/lib/libutee/tee_api.c:63
     634:	a9007c1f 	stp	xzr, xzr, [x0]
/home/zliu/ubuntu-optee-rpi3/RPi3_OPTEE_3.1/optee_os/lib/libutee/tee_api.c:64
     638:	17fffff5 	b	60c <__utee_from_param+0x48>

000000000000063c <__utee_to_param>:
__utee_to_param():
/home/zliu/ubuntu-optee-rpi3/RPi3_OPTEE_3.1/optee_os/lib/libutee/tee_api.c:73
     63c:	f8408446 	ldr	x6, [x2], #8
/home/zliu/ubuntu-optee-rpi3/RPi3_OPTEE_3.1/optee_os/lib/libutee/tee_api.c:79
     640:	f0000045 	adrp	x5, b000 <PRIME_TABLE+0x88>
     644:	913640a5 	add	x5, x5, #0xd90
/home/zliu/ubuntu-optee-rpi3/RPi3_OPTEE_3.1/optee_os/lib/libutee/tee_api.c:73
     648:	52800004 	mov	w4, #0x0                   	// #0
     64c:	2a0603e9 	mov	w9, w6
/home/zliu/ubuntu-optee-rpi3/RPi3_OPTEE_3.1/optee_os/lib/libutee/tee_api.c:79
     650:	1ac42523 	lsr	w3, w9, w4
     654:	12000c63 	and	w3, w3, #0xf
     658:	51000463 	sub	w3, w3, #0x1
     65c:	7100187f 	cmp	w3, #0x6
/home/zliu/ubuntu-optee-rpi3/RPi3_OPTEE_3.1/optee_os/lib/libutee/tee_api.c:77
     660:	a9401c48 	ldp	x8, x7, [x2]
/home/zliu/ubuntu-optee-rpi3/RPi3_OPTEE_3.1/optee_os/lib/libutee/tee_api.c:79
     664:	540000c8 	b.hi	67c <__utee_to_param+0x40>  // b.pmore
     668:	386348a3 	ldrb	w3, [x5, w3, uxtw]
     66c:	1000006a 	adr	x10, 678 <__utee_to_param+0x3c>
     670:	8b238943 	add	x3, x10, w3, sxtb #2
     674:	d61f0060 	br	x3
/home/zliu/ubuntu-optee-rpi3/RPi3_OPTEE_3.1/optee_os/lib/libutee/tee_api.c:84
     678:	29001c08 	stp	w8, w7, [x0]
     67c:	11001084 	add	w4, w4, #0x4
     680:	91004042 	add	x2, x2, #0x10
     684:	91004000 	add	x0, x0, #0x10
/home/zliu/ubuntu-optee-rpi3/RPi3_OPTEE_3.1/optee_os/lib/libutee/tee_api.c:75 (discriminator 2)
     688:	7100409f 	cmp	w4, #0x10
     68c:	54fffe21 	b.ne	650 <__utee_to_param+0x14>  // b.any
/home/zliu/ubuntu-optee-rpi3/RPi3_OPTEE_3.1/optee_os/lib/libutee/tee_api.c:97
     690:	b4000041 	cbz	x1, 698 <__utee_to_param+0x5c>
/home/zliu/ubuntu-optee-rpi3/RPi3_OPTEE_3.1/optee_os/lib/libutee/tee_api.c:98
     694:	b9000026 	str	w6, [x1]
     698:	d65f03c0 	ret
/home/zliu/ubuntu-optee-rpi3/RPi3_OPTEE_3.1/optee_os/lib/libutee/tee_api.c:89
     69c:	f9000008 	str	x8, [x0]
/home/zliu/ubuntu-optee-rpi3/RPi3_OPTEE_3.1/optee_os/lib/libutee/tee_api.c:90
     6a0:	b9000807 	str	w7, [x0, #8]
/home/zliu/ubuntu-optee-rpi3/RPi3_OPTEE_3.1/optee_os/lib/libutee/tee_api.c:91
     6a4:	17fffff6 	b	67c <__utee_to_param+0x40>

00000000000006a8 <TEE_OpenTASession>:
TEE_OpenTASession():
/home/zliu/ubuntu-optee-rpi3/RPi3_OPTEE_3.1/optee_os/lib/libutee/tee_api.c:107
     6a8:	a9b77bfd 	stp	x29, x30, [sp, #-144]!
     6ac:	910003fd 	mov	x29, sp
     6b0:	a90153f3 	stp	x19, x20, [sp, #16]
/home/zliu/ubuntu-optee-rpi3/RPi3_OPTEE_3.1/optee_os/lib/libutee/tee_api.c:112
     6b4:	910123b3 	add	x19, x29, #0x48
/home/zliu/ubuntu-optee-rpi3/RPi3_OPTEE_3.1/optee_os/lib/libutee/tee_api.c:107
     6b8:	a9025bf5 	stp	x21, x22, [sp, #32]
     6bc:	aa0303f4 	mov	x20, x3
     6c0:	a90363f7 	stp	x23, x24, [sp, #48]
     6c4:	aa0003f6 	mov	x22, x0
     6c8:	aa0503f8 	mov	x24, x5
     6cc:	2a0103f7 	mov	w23, w1
     6d0:	aa0403f5 	mov	x21, x4
     6d4:	2a0203e1 	mov	w1, w2
/home/zliu/ubuntu-optee-rpi3/RPi3_OPTEE_3.1/optee_os/lib/libutee/tee_api.c:112
     6d8:	aa1303e0 	mov	x0, x19
     6dc:	aa0303e2 	mov	x2, x3
     6e0:	97ffffb9 	bl	5c4 <__utee_from_param>
/home/zliu/ubuntu-optee-rpi3/RPi3_OPTEE_3.1/optee_os/lib/libutee/tee_api.c:113
     6e4:	aa1803e4 	mov	x4, x24
     6e8:	910113a3 	add	x3, x29, #0x44
     6ec:	aa1303e2 	mov	x2, x19
     6f0:	2a1703e1 	mov	w1, w23
     6f4:	aa1603e0 	mov	x0, x22
     6f8:	94000dc9 	bl	3e1c <utee_open_ta_session>
/home/zliu/ubuntu-optee-rpi3/RPi3_OPTEE_3.1/optee_os/lib/libutee/tee_api.c:115
     6fc:	aa1303e2 	mov	x2, x19
/home/zliu/ubuntu-optee-rpi3/RPi3_OPTEE_3.1/optee_os/lib/libutee/tee_api.c:113
     700:	2a0003f6 	mov	w22, w0
/home/zliu/ubuntu-optee-rpi3/RPi3_OPTEE_3.1/optee_os/lib/libutee/tee_api.c:115
     704:	d2800001 	mov	x1, #0x0                   	// #0
     708:	aa1403e0 	mov	x0, x20
     70c:	97ffffcc 	bl	63c <__utee_to_param>
/home/zliu/ubuntu-optee-rpi3/RPi3_OPTEE_3.1/optee_os/lib/libutee/tee_api.c:121
     710:	34000056 	cbz	w22, 718 <TEE_OpenTASession+0x70>
/home/zliu/ubuntu-optee-rpi3/RPi3_OPTEE_3.1/optee_os/lib/libutee/tee_api.c:122
     714:	b90047bf 	str	wzr, [x29, #68]
/home/zliu/ubuntu-optee-rpi3/RPi3_OPTEE_3.1/optee_os/lib/libutee/tee_api.c:124
     718:	b94047a0 	ldr	w0, [x29, #68]
/home/zliu/ubuntu-optee-rpi3/RPi3_OPTEE_3.1/optee_os/lib/libutee/tee_api.c:126
     71c:	a94153f3 	ldp	x19, x20, [sp, #16]
     720:	a94363f7 	ldp	x23, x24, [sp, #48]
/home/zliu/ubuntu-optee-rpi3/RPi3_OPTEE_3.1/optee_os/lib/libutee/tee_api.c:124
     724:	f90002a0 	str	x0, [x21]
/home/zliu/ubuntu-optee-rpi3/RPi3_OPTEE_3.1/optee_os/lib/libutee/tee_api.c:126
     728:	2a1603e0 	mov	w0, w22
     72c:	a9425bf5 	ldp	x21, x22, [sp, #32]
     730:	a8c97bfd 	ldp	x29, x30, [sp], #144
     734:	d65f03c0 	ret

0000000000000738 <TEE_CloseTASession>:
TEE_CloseTASession():
/home/zliu/ubuntu-optee-rpi3/RPi3_OPTEE_3.1/optee_os/lib/libutee/tee_api.c:130
     738:	b4000120 	cbz	x0, 75c <TEE_CloseTASession+0x24>
/home/zliu/ubuntu-optee-rpi3/RPi3_OPTEE_3.1/optee_os/lib/libutee/tee_api.c:129
     73c:	a9bf7bfd 	stp	x29, x30, [sp, #-16]!
     740:	910003fd 	mov	x29, sp
/home/zliu/ubuntu-optee-rpi3/RPi3_OPTEE_3.1/optee_os/lib/libutee/tee_api.c:131
     744:	94000db9 	bl	3e28 <utee_close_ta_session>
/home/zliu/ubuntu-optee-rpi3/RPi3_OPTEE_3.1/optee_os/lib/libutee/tee_api.c:133
     748:	34000060 	cbz	w0, 754 <TEE_CloseTASession+0x1c>
/home/zliu/ubuntu-optee-rpi3/RPi3_OPTEE_3.1/optee_os/lib/libutee/tee_api.c:136
     74c:	a8c17bfd 	ldp	x29, x30, [sp], #16
/home/zliu/ubuntu-optee-rpi3/RPi3_OPTEE_3.1/optee_os/lib/libutee/tee_api.c:134
     750:	14000cf1 	b	3b14 <TEE_Panic>
/home/zliu/ubuntu-optee-rpi3/RPi3_OPTEE_3.1/optee_os/lib/libutee/tee_api.c:136
     754:	a8c17bfd 	ldp	x29, x30, [sp], #16
     758:	d65f03c0 	ret
     75c:	d65f03c0 	ret

0000000000000760 <TEE_InvokeTACommand>:
TEE_InvokeTACommand():
/home/zliu/ubuntu-optee-rpi3/RPi3_OPTEE_3.1/optee_os/lib/libutee/tee_api.c:143
     760:	a9b77bfd 	stp	x29, x30, [sp, #-144]!
     764:	910003fd 	mov	x29, sp
     768:	a90153f3 	stp	x19, x20, [sp, #16]
/home/zliu/ubuntu-optee-rpi3/RPi3_OPTEE_3.1/optee_os/lib/libutee/tee_api.c:148
     76c:	910123b4 	add	x20, x29, #0x48
/home/zliu/ubuntu-optee-rpi3/RPi3_OPTEE_3.1/optee_os/lib/libutee/tee_api.c:143
     770:	a9025bf5 	stp	x21, x22, [sp, #32]
     774:	aa0003f3 	mov	x19, x0
     778:	a90363f7 	stp	x23, x24, [sp, #48]
     77c:	aa0403f6 	mov	x22, x4
     780:	aa0503f5 	mov	x21, x5
     784:	2a0103f7 	mov	w23, w1
     788:	2a0203f8 	mov	w24, w2
/home/zliu/ubuntu-optee-rpi3/RPi3_OPTEE_3.1/optee_os/lib/libutee/tee_api.c:148
     78c:	2a0303e1 	mov	w1, w3
     790:	aa0403e2 	mov	x2, x4
     794:	aa1403e0 	mov	x0, x20
     798:	97ffff8b 	bl	5c4 <__utee_from_param>
/home/zliu/ubuntu-optee-rpi3/RPi3_OPTEE_3.1/optee_os/lib/libutee/tee_api.c:149
     79c:	910113a4 	add	x4, x29, #0x44
     7a0:	aa1403e3 	mov	x3, x20
     7a4:	2a1803e2 	mov	w2, w24
     7a8:	2a1703e1 	mov	w1, w23
     7ac:	aa1303e0 	mov	x0, x19
     7b0:	94000da1 	bl	3e34 <utee_invoke_ta_command>
/home/zliu/ubuntu-optee-rpi3/RPi3_OPTEE_3.1/optee_os/lib/libutee/tee_api.c:152
     7b4:	aa1403e2 	mov	x2, x20
/home/zliu/ubuntu-optee-rpi3/RPi3_OPTEE_3.1/optee_os/lib/libutee/tee_api.c:149
     7b8:	2a0003f3 	mov	w19, w0
/home/zliu/ubuntu-optee-rpi3/RPi3_OPTEE_3.1/optee_os/lib/libutee/tee_api.c:152
     7bc:	d2800001 	mov	x1, #0x0                   	// #0
     7c0:	aa1603e0 	mov	x0, x22
     7c4:	97ffff9e 	bl	63c <__utee_to_param>
     7c8:	b94047a0 	ldr	w0, [x29, #68]
/home/zliu/ubuntu-optee-rpi3/RPi3_OPTEE_3.1/optee_os/lib/libutee/tee_api.c:154
     7cc:	b4000055 	cbz	x21, 7d4 <TEE_InvokeTACommand+0x74>
/home/zliu/ubuntu-optee-rpi3/RPi3_OPTEE_3.1/optee_os/lib/libutee/tee_api.c:155
     7d0:	b90002a0 	str	w0, [x21]
/home/zliu/ubuntu-optee-rpi3/RPi3_OPTEE_3.1/optee_os/lib/libutee/tee_api.c:157
     7d4:	7100101f 	cmp	w0, #0x4
     7d8:	54000120 	b.eq	7fc <TEE_InvokeTACommand+0x9c>  // b.none
/home/zliu/ubuntu-optee-rpi3/RPi3_OPTEE_3.1/optee_os/lib/libutee/tee_api.c:161
     7dc:	7100027f 	cmp	w19, #0x0
     7e0:	129ffe60 	mov	w0, #0xffff000c            	// #-65524
     7e4:	7a401264 	ccmp	w19, w0, #0x4, ne  // ne = any
     7e8:	1299fb60 	mov	w0, #0xffff3024            	// #-53212
     7ec:	7a401264 	ccmp	w19, w0, #0x4, ne  // ne = any
     7f0:	54000060 	b.eq	7fc <TEE_InvokeTACommand+0x9c>  // b.none
/home/zliu/ubuntu-optee-rpi3/RPi3_OPTEE_3.1/optee_os/lib/libutee/tee_api.c:163
     7f4:	2a1303e0 	mov	w0, w19
     7f8:	94000cc7 	bl	3b14 <TEE_Panic>
/home/zliu/ubuntu-optee-rpi3/RPi3_OPTEE_3.1/optee_os/lib/libutee/tee_api.c:166
     7fc:	2a1303e0 	mov	w0, w19
     800:	a94153f3 	ldp	x19, x20, [sp, #16]
     804:	a9425bf5 	ldp	x21, x22, [sp, #32]
     808:	a94363f7 	ldp	x23, x24, [sp, #48]
     80c:	a8c97bfd 	ldp	x29, x30, [sp], #144
     810:	d65f03c0 	ret

0000000000000814 <TEE_GetCancellationFlag>:
TEE_GetCancellationFlag():
/home/zliu/ubuntu-optee-rpi3/RPi3_OPTEE_3.1/optee_os/lib/libutee/tee_api.c:171
     814:	a9be7bfd 	stp	x29, x30, [sp, #-32]!
     818:	910003fd 	mov	x29, sp
/home/zliu/ubuntu-optee-rpi3/RPi3_OPTEE_3.1/optee_os/lib/libutee/tee_api.c:173
     81c:	910073a0 	add	x0, x29, #0x1c
     820:	94000d88 	bl	3e40 <utee_get_cancellation_flag>
/home/zliu/ubuntu-optee-rpi3/RPi3_OPTEE_3.1/optee_os/lib/libutee/tee_api.c:175
     824:	34000040 	cbz	w0, 82c <TEE_GetCancellationFlag+0x18>
/home/zliu/ubuntu-optee-rpi3/RPi3_OPTEE_3.1/optee_os/lib/libutee/tee_api.c:176
     828:	b9001fbf 	str	wzr, [x29, #28]
/home/zliu/ubuntu-optee-rpi3/RPi3_OPTEE_3.1/optee_os/lib/libutee/tee_api.c:177
     82c:	b9401fa0 	ldr	w0, [x29, #28]
/home/zliu/ubuntu-optee-rpi3/RPi3_OPTEE_3.1/optee_os/lib/libutee/tee_api.c:178
     830:	a8c27bfd 	ldp	x29, x30, [sp], #32
/home/zliu/ubuntu-optee-rpi3/RPi3_OPTEE_3.1/optee_os/lib/libutee/tee_api.c:177
     834:	7100001f 	cmp	w0, #0x0
/home/zliu/ubuntu-optee-rpi3/RPi3_OPTEE_3.1/optee_os/lib/libutee/tee_api.c:178
     838:	1a9f07e0 	cset	w0, ne  // ne = any
     83c:	d65f03c0 	ret

0000000000000840 <TEE_UnmaskCancellation>:
TEE_UnmaskCancellation():
/home/zliu/ubuntu-optee-rpi3/RPi3_OPTEE_3.1/optee_os/lib/libutee/tee_api.c:181
     840:	a9be7bfd 	stp	x29, x30, [sp, #-32]!
     844:	910003fd 	mov	x29, sp
/home/zliu/ubuntu-optee-rpi3/RPi3_OPTEE_3.1/optee_os/lib/libutee/tee_api.c:183
     848:	910073a0 	add	x0, x29, #0x1c
     84c:	94000d83 	bl	3e58 <utee_unmask_cancellation>
/home/zliu/ubuntu-optee-rpi3/RPi3_OPTEE_3.1/optee_os/lib/libutee/tee_api.c:185
     850:	34000040 	cbz	w0, 858 <TEE_UnmaskCancellation+0x18>
/home/zliu/ubuntu-optee-rpi3/RPi3_OPTEE_3.1/optee_os/lib/libutee/tee_api.c:186
     854:	94000cb0 	bl	3b14 <TEE_Panic>
/home/zliu/ubuntu-optee-rpi3/RPi3_OPTEE_3.1/optee_os/lib/libutee/tee_api.c:187
     858:	b9401fa0 	ldr	w0, [x29, #28]
/home/zliu/ubuntu-optee-rpi3/RPi3_OPTEE_3.1/optee_os/lib/libutee/tee_api.c:188
     85c:	a8c27bfd 	ldp	x29, x30, [sp], #32
/home/zliu/ubuntu-optee-rpi3/RPi3_OPTEE_3.1/optee_os/lib/libutee/tee_api.c:187
     860:	7100001f 	cmp	w0, #0x0
/home/zliu/ubuntu-optee-rpi3/RPi3_OPTEE_3.1/optee_os/lib/libutee/tee_api.c:188
     864:	1a9f07e0 	cset	w0, ne  // ne = any
     868:	d65f03c0 	ret

000000000000086c <TEE_MaskCancellation>:
TEE_MaskCancellation():
/home/zliu/ubuntu-optee-rpi3/RPi3_OPTEE_3.1/optee_os/lib/libutee/tee_api.c:191
     86c:	a9be7bfd 	stp	x29, x30, [sp, #-32]!
     870:	910003fd 	mov	x29, sp
/home/zliu/ubuntu-optee-rpi3/RPi3_OPTEE_3.1/optee_os/lib/libutee/tee_api.c:193
     874:	910073a0 	add	x0, x29, #0x1c
     878:	94000d7b 	bl	3e64 <utee_mask_cancellation>
/home/zliu/ubuntu-optee-rpi3/RPi3_OPTEE_3.1/optee_os/lib/libutee/tee_api.c:195
     87c:	34000040 	cbz	w0, 884 <TEE_MaskCancellation+0x18>
/home/zliu/ubuntu-optee-rpi3/RPi3_OPTEE_3.1/optee_os/lib/libutee/tee_api.c:196
     880:	94000ca5 	bl	3b14 <TEE_Panic>
/home/zliu/ubuntu-optee-rpi3/RPi3_OPTEE_3.1/optee_os/lib/libutee/tee_api.c:197
     884:	b9401fa0 	ldr	w0, [x29, #28]
/home/zliu/ubuntu-optee-rpi3/RPi3_OPTEE_3.1/optee_os/lib/libutee/tee_api.c:198
     888:	a8c27bfd 	ldp	x29, x30, [sp], #32
/home/zliu/ubuntu-optee-rpi3/RPi3_OPTEE_3.1/optee_os/lib/libutee/tee_api.c:197
     88c:	7100001f 	cmp	w0, #0x0
/home/zliu/ubuntu-optee-rpi3/RPi3_OPTEE_3.1/optee_os/lib/libutee/tee_api.c:198
     890:	1a9f07e0 	cset	w0, ne  // ne = any
     894:	d65f03c0 	ret

0000000000000898 <TEE_CheckMemoryAccessRights>:
TEE_CheckMemoryAccessRights():
/home/zliu/ubuntu-optee-rpi3/RPi3_OPTEE_3.1/optee_os/lib/libutee/tee_api.c:207
     898:	34000062 	cbz	w2, 8a4 <TEE_CheckMemoryAccessRights+0xc>
/home/zliu/ubuntu-optee-rpi3/RPi3_OPTEE_3.1/optee_os/lib/libutee/tee_api.c:211
     89c:	2a0203e2 	mov	w2, w2
     8a0:	14000d6b 	b	3e4c <utee_check_access_rights>
/home/zliu/ubuntu-optee-rpi3/RPi3_OPTEE_3.1/optee_os/lib/libutee/tee_api.c:223
     8a4:	52800000 	mov	w0, #0x0                   	// #0
     8a8:	d65f03c0 	ret

00000000000008ac <TEE_SetInstanceData>:
TEE_SetInstanceData():
/home/zliu/ubuntu-optee-rpi3/RPi3_OPTEE_3.1/optee_os/lib/libutee/tee_api.c:227
     8ac:	b0000061 	adrp	x1, d000 <ta_props>
     8b0:	f900a420 	str	x0, [x1, #328]
     8b4:	d65f03c0 	ret

00000000000008b8 <TEE_GetInstanceData>:
TEE_GetInstanceData():
/home/zliu/ubuntu-optee-rpi3/RPi3_OPTEE_3.1/optee_os/lib/libutee/tee_api.c:233
     8b8:	b0000060 	adrp	x0, d000 <ta_props>
     8bc:	f940a400 	ldr	x0, [x0, #328]
     8c0:	d65f03c0 	ret

00000000000008c4 <TEE_MemMove>:
TEE_MemMove():
/home/zliu/ubuntu-optee-rpi3/RPi3_OPTEE_3.1/optee_os/lib/libutee/tee_api.c:237
     8c4:	2a0203e2 	mov	w2, w2
     8c8:	14001619 	b	612c <memmove>

00000000000008cc <TEE_MemCompare>:
TEE_MemCompare():
/home/zliu/ubuntu-optee-rpi3/RPi3_OPTEE_3.1/optee_os/lib/libutee/tee_api.c:242
     8cc:	2a0203e2 	mov	w2, w2
     8d0:	14001602 	b	60d8 <memcmp>

00000000000008d4 <TEE_MemFill>:
TEE_MemFill():
/home/zliu/ubuntu-optee-rpi3/RPi3_OPTEE_3.1/optee_os/lib/libutee/tee_api.c:247
     8d4:	2a0203e2 	mov	w2, w2
     8d8:	14001628 	b	6178 <memset>

00000000000008dc <TEE_GetSystemTime>:
TEE_GetSystemTime():
/home/zliu/ubuntu-optee-rpi3/RPi3_OPTEE_3.1/optee_os/lib/libutee/tee_api.c:253
     8dc:	a9bf7bfd 	stp	x29, x30, [sp, #-16]!
/home/zliu/ubuntu-optee-rpi3/RPi3_OPTEE_3.1/optee_os/lib/libutee/tee_api.c:254
     8e0:	aa0003e1 	mov	x1, x0
     8e4:	d2800000 	mov	x0, #0x0                   	// #0
/home/zliu/ubuntu-optee-rpi3/RPi3_OPTEE_3.1/optee_os/lib/libutee/tee_api.c:253
     8e8:	910003fd 	mov	x29, sp
/home/zliu/ubuntu-optee-rpi3/RPi3_OPTEE_3.1/optee_os/lib/libutee/tee_api.c:254
     8ec:	94000d64 	bl	3e7c <utee_get_time>
/home/zliu/ubuntu-optee-rpi3/RPi3_OPTEE_3.1/optee_os/lib/libutee/tee_api.c:256
     8f0:	34000060 	cbz	w0, 8fc <TEE_GetSystemTime+0x20>
/home/zliu/ubuntu-optee-rpi3/RPi3_OPTEE_3.1/optee_os/lib/libutee/tee_api.c:258
     8f4:	a8c17bfd 	ldp	x29, x30, [sp], #16
/home/zliu/ubuntu-optee-rpi3/RPi3_OPTEE_3.1/optee_os/lib/libutee/tee_api.c:257
     8f8:	14000c87 	b	3b14 <TEE_Panic>
/home/zliu/ubuntu-optee-rpi3/RPi3_OPTEE_3.1/optee_os/lib/libutee/tee_api.c:258
     8fc:	a8c17bfd 	ldp	x29, x30, [sp], #16
     900:	d65f03c0 	ret

0000000000000904 <TEE_Wait>:
TEE_Wait():
/home/zliu/ubuntu-optee-rpi3/RPi3_OPTEE_3.1/optee_os/lib/libutee/tee_api.c:261
     904:	a9be7bfd 	stp	x29, x30, [sp, #-32]!
/home/zliu/ubuntu-optee-rpi3/RPi3_OPTEE_3.1/optee_os/lib/libutee/tee_api.c:262
     908:	2a0003e0 	mov	w0, w0
/home/zliu/ubuntu-optee-rpi3/RPi3_OPTEE_3.1/optee_os/lib/libutee/tee_api.c:261
     90c:	910003fd 	mov	x29, sp
     910:	f9000bf3 	str	x19, [sp, #16]
/home/zliu/ubuntu-optee-rpi3/RPi3_OPTEE_3.1/optee_os/lib/libutee/tee_api.c:262
     914:	94000d57 	bl	3e70 <utee_wait>
/home/zliu/ubuntu-optee-rpi3/RPi3_OPTEE_3.1/optee_os/lib/libutee/tee_api.c:264
     918:	7100001f 	cmp	w0, #0x0
     91c:	129fffa1 	mov	w1, #0xffff0002            	// #-65534
/home/zliu/ubuntu-optee-rpi3/RPi3_OPTEE_3.1/optee_os/lib/libutee/tee_api.c:262
     920:	2a0003f3 	mov	w19, w0
/home/zliu/ubuntu-optee-rpi3/RPi3_OPTEE_3.1/optee_os/lib/libutee/tee_api.c:264
     924:	7a411004 	ccmp	w0, w1, #0x4, ne  // ne = any
     928:	54000040 	b.eq	930 <TEE_Wait+0x2c>  // b.none
/home/zliu/ubuntu-optee-rpi3/RPi3_OPTEE_3.1/optee_os/lib/libutee/tee_api.c:265
     92c:	94000c7a 	bl	3b14 <TEE_Panic>
/home/zliu/ubuntu-optee-rpi3/RPi3_OPTEE_3.1/optee_os/lib/libutee/tee_api.c:268
     930:	2a1303e0 	mov	w0, w19
     934:	f9400bf3 	ldr	x19, [sp, #16]
     938:	a8c27bfd 	ldp	x29, x30, [sp], #32
     93c:	d65f03c0 	ret

0000000000000940 <TEE_GetTAPersistentTime>:
TEE_GetTAPersistentTime():
/home/zliu/ubuntu-optee-rpi3/RPi3_OPTEE_3.1/optee_os/lib/libutee/tee_api.c:271
     940:	a9be7bfd 	stp	x29, x30, [sp, #-32]!
/home/zliu/ubuntu-optee-rpi3/RPi3_OPTEE_3.1/optee_os/lib/libutee/tee_api.c:274
     944:	aa0003e1 	mov	x1, x0
/home/zliu/ubuntu-optee-rpi3/RPi3_OPTEE_3.1/optee_os/lib/libutee/tee_api.c:271
     948:	910003fd 	mov	x29, sp
     94c:	a90153f3 	stp	x19, x20, [sp, #16]
     950:	aa0003f4 	mov	x20, x0
/home/zliu/ubuntu-optee-rpi3/RPi3_OPTEE_3.1/optee_os/lib/libutee/tee_api.c:274
     954:	d2800020 	mov	x0, #0x1                   	// #1
     958:	94000d49 	bl	3e7c <utee_get_time>
/home/zliu/ubuntu-optee-rpi3/RPi3_OPTEE_3.1/optee_os/lib/libutee/tee_api.c:276
     95c:	7100001f 	cmp	w0, #0x0
/home/zliu/ubuntu-optee-rpi3/RPi3_OPTEE_3.1/optee_os/lib/libutee/tee_api.c:274
     960:	2a0003f3 	mov	w19, w0
/home/zliu/ubuntu-optee-rpi3/RPi3_OPTEE_3.1/optee_os/lib/libutee/tee_api.c:276
     964:	1a9f07e1 	cset	w1, ne  // ne = any
     968:	1299fe00 	mov	w0, #0xffff300f            	// #-53233
     96c:	6b00027f 	cmp	w19, w0
     970:	1a9f07e0 	cset	w0, ne  // ne = any
     974:	6a00003f 	tst	w1, w0
     978:	54000040 	b.eq	980 <TEE_GetTAPersistentTime+0x40>  // b.none
/home/zliu/ubuntu-optee-rpi3/RPi3_OPTEE_3.1/optee_os/lib/libutee/tee_api.c:278
     97c:	29007e9f 	stp	wzr, wzr, [x20]
/home/zliu/ubuntu-optee-rpi3/RPi3_OPTEE_3.1/optee_os/lib/libutee/tee_api.c:282
     980:	11402e62 	add	w2, w19, #0xb, lsl #12
     984:	7100045f 	cmp	w2, #0x1
     988:	1a9f97e2 	cset	w2, hi  // hi = pmore
/home/zliu/ubuntu-optee-rpi3/RPi3_OPTEE_3.1/optee_os/lib/libutee/tee_api.c:281
     98c:	6a02003f 	tst	w1, w2
     990:	54000100 	b.eq	9b0 <TEE_GetTAPersistentTime+0x70>  // b.none
/home/zliu/ubuntu-optee-rpi3/RPi3_OPTEE_3.1/optee_os/lib/libutee/tee_api.c:284
     994:	129ffe61 	mov	w1, #0xffff000c            	// #-65524
     998:	6b01027f 	cmp	w19, w1
     99c:	1a9f07e1 	cset	w1, ne  // ne = any
     9a0:	6a01001f 	tst	w0, w1
     9a4:	54000060 	b.eq	9b0 <TEE_GetTAPersistentTime+0x70>  // b.none
/home/zliu/ubuntu-optee-rpi3/RPi3_OPTEE_3.1/optee_os/lib/libutee/tee_api.c:286
     9a8:	2a1303e0 	mov	w0, w19
     9ac:	94000c5a 	bl	3b14 <TEE_Panic>
/home/zliu/ubuntu-optee-rpi3/RPi3_OPTEE_3.1/optee_os/lib/libutee/tee_api.c:289
     9b0:	2a1303e0 	mov	w0, w19
     9b4:	a94153f3 	ldp	x19, x20, [sp, #16]
     9b8:	a8c27bfd 	ldp	x29, x30, [sp], #32
     9bc:	d65f03c0 	ret

00000000000009c0 <TEE_SetTAPersistentTime>:
TEE_SetTAPersistentTime():
/home/zliu/ubuntu-optee-rpi3/RPi3_OPTEE_3.1/optee_os/lib/libutee/tee_api.c:292
     9c0:	a9be7bfd 	stp	x29, x30, [sp, #-32]!
     9c4:	910003fd 	mov	x29, sp
     9c8:	f9000bf3 	str	x19, [sp, #16]
/home/zliu/ubuntu-optee-rpi3/RPi3_OPTEE_3.1/optee_os/lib/libutee/tee_api.c:295
     9cc:	94000d2f 	bl	3e88 <utee_set_ta_time>
/home/zliu/ubuntu-optee-rpi3/RPi3_OPTEE_3.1/optee_os/lib/libutee/tee_api.c:298
     9d0:	7100001f 	cmp	w0, #0x0
     9d4:	129ffe61 	mov	w1, #0xffff000c            	// #-65524
     9d8:	7a411004 	ccmp	w0, w1, #0x4, ne  // ne = any
/home/zliu/ubuntu-optee-rpi3/RPi3_OPTEE_3.1/optee_os/lib/libutee/tee_api.c:295
     9dc:	2a0003f3 	mov	w19, w0
/home/zliu/ubuntu-optee-rpi3/RPi3_OPTEE_3.1/optee_os/lib/libutee/tee_api.c:298
     9e0:	1299f7c1 	mov	w1, #0xffff3041            	// #-53183
     9e4:	7a411004 	ccmp	w0, w1, #0x4, ne  // ne = any
     9e8:	54000040 	b.eq	9f0 <TEE_SetTAPersistentTime+0x30>  // b.none
/home/zliu/ubuntu-optee-rpi3/RPi3_OPTEE_3.1/optee_os/lib/libutee/tee_api.c:300
     9ec:	94000c4a 	bl	3b14 <TEE_Panic>
/home/zliu/ubuntu-optee-rpi3/RPi3_OPTEE_3.1/optee_os/lib/libutee/tee_api.c:303
     9f0:	2a1303e0 	mov	w0, w19
     9f4:	f9400bf3 	ldr	x19, [sp, #16]
     9f8:	a8c27bfd 	ldp	x29, x30, [sp], #32
     9fc:	d65f03c0 	ret

0000000000000a00 <TEE_GetREETime>:
TEE_GetREETime():
/home/zliu/ubuntu-optee-rpi3/RPi3_OPTEE_3.1/optee_os/lib/libutee/tee_api.c:306
     a00:	a9bf7bfd 	stp	x29, x30, [sp, #-16]!
/home/zliu/ubuntu-optee-rpi3/RPi3_OPTEE_3.1/optee_os/lib/libutee/tee_api.c:307
     a04:	aa0003e1 	mov	x1, x0
     a08:	d2800040 	mov	x0, #0x2                   	// #2
/home/zliu/ubuntu-optee-rpi3/RPi3_OPTEE_3.1/optee_os/lib/libutee/tee_api.c:306
     a0c:	910003fd 	mov	x29, sp
/home/zliu/ubuntu-optee-rpi3/RPi3_OPTEE_3.1/optee_os/lib/libutee/tee_api.c:307
     a10:	94000d1b 	bl	3e7c <utee_get_time>
/home/zliu/ubuntu-optee-rpi3/RPi3_OPTEE_3.1/optee_os/lib/libutee/tee_api.c:309
     a14:	34000060 	cbz	w0, a20 <TEE_GetREETime+0x20>
/home/zliu/ubuntu-optee-rpi3/RPi3_OPTEE_3.1/optee_os/lib/libutee/tee_api.c:311
     a18:	a8c17bfd 	ldp	x29, x30, [sp], #16
/home/zliu/ubuntu-optee-rpi3/RPi3_OPTEE_3.1/optee_os/lib/libutee/tee_api.c:310
     a1c:	14000c3e 	b	3b14 <TEE_Panic>
/home/zliu/ubuntu-optee-rpi3/RPi3_OPTEE_3.1/optee_os/lib/libutee/tee_api.c:311
     a20:	a8c17bfd 	ldp	x29, x30, [sp], #16
     a24:	d65f03c0 	ret

0000000000000a28 <TEE_Malloc>:
TEE_Malloc():
/home/zliu/ubuntu-optee-rpi3/RPi3_OPTEE_3.1/optee_os/lib/libutee/tee_api.c:315
     a28:	2a0003e0 	mov	w0, w0
     a2c:	14000e1a 	b	4294 <tee_user_mem_alloc>

0000000000000a30 <TEE_Realloc>:
TEE_Realloc():
/home/zliu/ubuntu-optee-rpi3/RPi3_OPTEE_3.1/optee_os/lib/libutee/tee_api.c:324
     a30:	2a0103e1 	mov	w1, w1
     a34:	14000ebc 	b	4524 <tee_user_mem_realloc>

0000000000000a38 <TEE_Free>:
TEE_Free():
/home/zliu/ubuntu-optee-rpi3/RPi3_OPTEE_3.1/optee_os/lib/libutee/tee_api.c:329
     a38:	14000e6a 	b	43e0 <tee_user_mem_free>

0000000000000a3c <TEE_CacheClean>:
TEE_CacheClean():
/home/zliu/ubuntu-optee-rpi3/RPi3_OPTEE_3.1/optee_os/lib/libutee/tee_api.c:335
     a3c:	d2800002 	mov	x2, #0x0                   	// #0
     a40:	14000dba 	b	4128 <utee_cache_operation>

0000000000000a44 <TEE_CacheFlush>:
TEE_CacheFlush():
/home/zliu/ubuntu-optee-rpi3/RPi3_OPTEE_3.1/optee_os/lib/libutee/tee_api.c:339
     a44:	d2800022 	mov	x2, #0x1                   	// #1
     a48:	14000db8 	b	4128 <utee_cache_operation>

0000000000000a4c <TEE_CacheInvalidate>:
TEE_CacheInvalidate():
/home/zliu/ubuntu-optee-rpi3/RPi3_OPTEE_3.1/optee_os/lib/libutee/tee_api.c:344
     a4c:	d2800042 	mov	x2, #0x2                   	// #2
     a50:	14000db6 	b	4128 <utee_cache_operation>

0000000000000a54 <__utee_from_attr>:
__utee_from_attr():
/home/zliu/ubuntu-optee-rpi3/RPi3_OPTEE_3.1/optee_os/lib/libutee/tee_api_objects.c:42
     a54:	52800303 	mov	w3, #0x18                  	// #24
     a58:	9ba30442 	umaddl	x2, w2, w3, x1
/home/zliu/ubuntu-optee-rpi3/RPi3_OPTEE_3.1/optee_os/lib/libutee/tee_api_objects.c:45 (discriminator 1)
     a5c:	eb02003f 	cmp	x1, x2
     a60:	54000041 	b.ne	a68 <__utee_from_attr+0x14>  // b.any
/home/zliu/ubuntu-optee-rpi3/RPi3_OPTEE_3.1/optee_os/lib/libutee/tee_api_objects.c:55
     a64:	d65f03c0 	ret
/home/zliu/ubuntu-optee-rpi3/RPi3_OPTEE_3.1/optee_os/lib/libutee/tee_api_objects.c:46
     a68:	b9400023 	ldr	w3, [x1]
     a6c:	b9001003 	str	w3, [x0, #16]
/home/zliu/ubuntu-optee-rpi3/RPi3_OPTEE_3.1/optee_os/lib/libutee/tee_api_objects.c:47
     a70:	36e80103 	tbz	w3, #29, a90 <__utee_from_attr+0x3c>
/home/zliu/ubuntu-optee-rpi3/RPi3_OPTEE_3.1/optee_os/lib/libutee/tee_api_objects.c:48
     a74:	b9400823 	ldr	w3, [x1, #8]
     a78:	f9000003 	str	x3, [x0]
/home/zliu/ubuntu-optee-rpi3/RPi3_OPTEE_3.1/optee_os/lib/libutee/tee_api_objects.c:49
     a7c:	b9400c23 	ldr	w3, [x1, #12]
/home/zliu/ubuntu-optee-rpi3/RPi3_OPTEE_3.1/optee_os/lib/libutee/tee_api_objects.c:52
     a80:	f9000403 	str	x3, [x0, #8]
     a84:	91006021 	add	x1, x1, #0x18
     a88:	91006000 	add	x0, x0, #0x18
     a8c:	17fffff4 	b	a5c <__utee_from_attr+0x8>
/home/zliu/ubuntu-optee-rpi3/RPi3_OPTEE_3.1/optee_os/lib/libutee/tee_api_objects.c:51
     a90:	f9400423 	ldr	x3, [x1, #8]
     a94:	f9000003 	str	x3, [x0]
/home/zliu/ubuntu-optee-rpi3/RPi3_OPTEE_3.1/optee_os/lib/libutee/tee_api_objects.c:52
     a98:	b9401023 	ldr	w3, [x1, #16]
     a9c:	17fffff9 	b	a80 <__utee_from_attr+0x2c>

0000000000000aa0 <TEE_GetObjectInfo>:
TEE_GetObjectInfo():
/home/zliu/ubuntu-optee-rpi3/RPi3_OPTEE_3.1/optee_os/lib/libutee/tee_api_objects.c:65
     aa0:	a9be7bfd 	stp	x29, x30, [sp, #-32]!
     aa4:	910003fd 	mov	x29, sp
     aa8:	f9000bf3 	str	x19, [sp, #16]
     aac:	aa0103f3 	mov	x19, x1
/home/zliu/ubuntu-optee-rpi3/RPi3_OPTEE_3.1/optee_os/lib/libutee/tee_api_objects.c:68
     ab0:	94000d14 	bl	3f00 <utee_cryp_obj_get_info>
/home/zliu/ubuntu-optee-rpi3/RPi3_OPTEE_3.1/optee_os/lib/libutee/tee_api_objects.c:70
     ab4:	34000040 	cbz	w0, abc <TEE_GetObjectInfo+0x1c>
/home/zliu/ubuntu-optee-rpi3/RPi3_OPTEE_3.1/optee_os/lib/libutee/tee_api_objects.c:71
     ab8:	94000c17 	bl	3b14 <TEE_Panic>
/home/zliu/ubuntu-optee-rpi3/RPi3_OPTEE_3.1/optee_os/lib/libutee/tee_api_objects.c:73
     abc:	b9400261 	ldr	w1, [x19]
     ac0:	528017c0 	mov	w0, #0xbe                  	// #190
     ac4:	72b40000 	movk	w0, #0xa000, lsl #16
     ac8:	6b00003f 	cmp	w1, w0
     acc:	54000081 	b.ne	adc <TEE_GetObjectInfo+0x3c>  // b.any
/home/zliu/ubuntu-optee-rpi3/RPi3_OPTEE_3.1/optee_os/lib/libutee/tee_api_objects.c:75
     ad0:	2900fe7f 	stp	wzr, wzr, [x19, #4]
/home/zliu/ubuntu-optee-rpi3/RPi3_OPTEE_3.1/optee_os/lib/libutee/tee_api_objects.c:77
     ad4:	2901fe7f 	stp	wzr, wzr, [x19, #12]
/home/zliu/ubuntu-optee-rpi3/RPi3_OPTEE_3.1/optee_os/lib/libutee/tee_api_objects.c:79
     ad8:	2902fe7f 	stp	wzr, wzr, [x19, #20]
/home/zliu/ubuntu-optee-rpi3/RPi3_OPTEE_3.1/optee_os/lib/libutee/tee_api_objects.c:81
     adc:	f9400bf3 	ldr	x19, [sp, #16]
     ae0:	a8c27bfd 	ldp	x29, x30, [sp], #32
     ae4:	d65f03c0 	ret

0000000000000ae8 <TEE_GetObjectInfo1>:
TEE_GetObjectInfo1():
/home/zliu/ubuntu-optee-rpi3/RPi3_OPTEE_3.1/optee_os/lib/libutee/tee_api_objects.c:84
     ae8:	a9be7bfd 	stp	x29, x30, [sp, #-32]!
     aec:	910003fd 	mov	x29, sp
     af0:	f9000bf3 	str	x19, [sp, #16]
/home/zliu/ubuntu-optee-rpi3/RPi3_OPTEE_3.1/optee_os/lib/libutee/tee_api_objects.c:87
     af4:	94000d03 	bl	3f00 <utee_cryp_obj_get_info>
/home/zliu/ubuntu-optee-rpi3/RPi3_OPTEE_3.1/optee_os/lib/libutee/tee_api_objects.c:90
     af8:	52800021 	mov	w1, #0x1                   	// #1
     afc:	121e7802 	and	w2, w0, #0xfffffffd
     b00:	7100001f 	cmp	w0, #0x0
     b04:	72be0201 	movk	w1, #0xf010, lsl #16
/home/zliu/ubuntu-optee-rpi3/RPi3_OPTEE_3.1/optee_os/lib/libutee/tee_api_objects.c:87
     b08:	2a0003f3 	mov	w19, w0
/home/zliu/ubuntu-optee-rpi3/RPi3_OPTEE_3.1/optee_os/lib/libutee/tee_api_objects.c:90
     b0c:	7a411044 	ccmp	w2, w1, #0x4, ne  // ne = any
     b10:	54000040 	b.eq	b18 <TEE_GetObjectInfo1+0x30>  // b.none
/home/zliu/ubuntu-optee-rpi3/RPi3_OPTEE_3.1/optee_os/lib/libutee/tee_api_objects.c:92
     b14:	94000c00 	bl	3b14 <TEE_Panic>
/home/zliu/ubuntu-optee-rpi3/RPi3_OPTEE_3.1/optee_os/lib/libutee/tee_api_objects.c:95
     b18:	2a1303e0 	mov	w0, w19
     b1c:	f9400bf3 	ldr	x19, [sp, #16]
     b20:	a8c27bfd 	ldp	x29, x30, [sp], #32
     b24:	d65f03c0 	ret

0000000000000b28 <TEE_RestrictObjectUsage1>:
TEE_RestrictObjectUsage1():
/home/zliu/ubuntu-optee-rpi3/RPi3_OPTEE_3.1/optee_os/lib/libutee/tee_api_objects.c:119
     b28:	a9be7bfd 	stp	x29, x30, [sp, #-32]!
/home/zliu/ubuntu-optee-rpi3/RPi3_OPTEE_3.1/optee_os/lib/libutee/tee_api_objects.c:122
     b2c:	2a0103e1 	mov	w1, w1
/home/zliu/ubuntu-optee-rpi3/RPi3_OPTEE_3.1/optee_os/lib/libutee/tee_api_objects.c:119
     b30:	910003fd 	mov	x29, sp
     b34:	f9000bf3 	str	x19, [sp, #16]
/home/zliu/ubuntu-optee-rpi3/RPi3_OPTEE_3.1/optee_os/lib/libutee/tee_api_objects.c:122
     b38:	94000cf5 	bl	3f0c <utee_cryp_obj_restrict_usage>
/home/zliu/ubuntu-optee-rpi3/RPi3_OPTEE_3.1/optee_os/lib/libutee/tee_api_objects.c:125
     b3c:	52800021 	mov	w1, #0x1                   	// #1
     b40:	121e7802 	and	w2, w0, #0xfffffffd
     b44:	7100001f 	cmp	w0, #0x0
     b48:	72be0201 	movk	w1, #0xf010, lsl #16
/home/zliu/ubuntu-optee-rpi3/RPi3_OPTEE_3.1/optee_os/lib/libutee/tee_api_objects.c:122
     b4c:	2a0003f3 	mov	w19, w0
/home/zliu/ubuntu-optee-rpi3/RPi3_OPTEE_3.1/optee_os/lib/libutee/tee_api_objects.c:125
     b50:	7a411044 	ccmp	w2, w1, #0x4, ne  // ne = any
     b54:	54000040 	b.eq	b5c <TEE_RestrictObjectUsage1+0x34>  // b.none
/home/zliu/ubuntu-optee-rpi3/RPi3_OPTEE_3.1/optee_os/lib/libutee/tee_api_objects.c:127
     b58:	94000bef 	bl	3b14 <TEE_Panic>
/home/zliu/ubuntu-optee-rpi3/RPi3_OPTEE_3.1/optee_os/lib/libutee/tee_api_objects.c:130
     b5c:	2a1303e0 	mov	w0, w19
     b60:	f9400bf3 	ldr	x19, [sp, #16]
     b64:	a8c27bfd 	ldp	x29, x30, [sp], #32
     b68:	d65f03c0 	ret

0000000000000b6c <TEE_RestrictObjectUsage>:
TEE_RestrictObjectUsage():
/home/zliu/ubuntu-optee-rpi3/RPi3_OPTEE_3.1/optee_os/lib/libutee/tee_api_objects.c:104
     b6c:	a9bc7bfd 	stp	x29, x30, [sp, #-64]!
     b70:	910003fd 	mov	x29, sp
     b74:	a90153f3 	stp	x19, x20, [sp, #16]
     b78:	aa0003f3 	mov	x19, x0
     b7c:	2a0103f4 	mov	w20, w1
/home/zliu/ubuntu-optee-rpi3/RPi3_OPTEE_3.1/optee_os/lib/libutee/tee_api_objects.c:108
     b80:	910083a1 	add	x1, x29, #0x20
     b84:	94000cdf 	bl	3f00 <utee_cryp_obj_get_info>
/home/zliu/ubuntu-optee-rpi3/RPi3_OPTEE_3.1/optee_os/lib/libutee/tee_api_objects.c:109
     b88:	b94023a1 	ldr	w1, [x29, #32]
     b8c:	528017c0 	mov	w0, #0xbe                  	// #190
     b90:	72b40000 	movk	w0, #0xa000, lsl #16
     b94:	6b00003f 	cmp	w1, w0
     b98:	540000c0 	b.eq	bb0 <TEE_RestrictObjectUsage+0x44>  // b.none
/home/zliu/ubuntu-optee-rpi3/RPi3_OPTEE_3.1/optee_os/lib/libutee/tee_api_objects.c:112
     b9c:	2a1403e1 	mov	w1, w20
     ba0:	aa1303e0 	mov	x0, x19
     ba4:	97ffffe1 	bl	b28 <TEE_RestrictObjectUsage1>
/home/zliu/ubuntu-optee-rpi3/RPi3_OPTEE_3.1/optee_os/lib/libutee/tee_api_objects.c:114
     ba8:	34000040 	cbz	w0, bb0 <TEE_RestrictObjectUsage+0x44>
/home/zliu/ubuntu-optee-rpi3/RPi3_OPTEE_3.1/optee_os/lib/libutee/tee_api_objects.c:115
     bac:	94000bda 	bl	3b14 <TEE_Panic>
/home/zliu/ubuntu-optee-rpi3/RPi3_OPTEE_3.1/optee_os/lib/libutee/tee_api_objects.c:116
     bb0:	a94153f3 	ldp	x19, x20, [sp, #16]
     bb4:	a8c47bfd 	ldp	x29, x30, [sp], #64
     bb8:	d65f03c0 	ret

0000000000000bbc <TEE_GetObjectBufferAttribute>:
TEE_GetObjectBufferAttribute():
/home/zliu/ubuntu-optee-rpi3/RPi3_OPTEE_3.1/optee_os/lib/libutee/tee_api_objects.c:135
     bbc:	a9b97bfd 	stp	x29, x30, [sp, #-112]!
     bc0:	910003fd 	mov	x29, sp
     bc4:	a90153f3 	stp	x19, x20, [sp, #16]
     bc8:	aa0303f4 	mov	x20, x3
     bcc:	a9025bf5 	stp	x21, x22, [sp, #32]
     bd0:	aa0003f6 	mov	x22, x0
     bd4:	f9001bf7 	str	x23, [sp, #48]
     bd8:	2a0103f5 	mov	w21, w1
     bdc:	aa0203f7 	mov	x23, x2
/home/zliu/ubuntu-optee-rpi3/RPi3_OPTEE_3.1/optee_os/lib/libutee/tee_api_objects.c:140
     be0:	910143a1 	add	x1, x29, #0x50
     be4:	94000cc7 	bl	3f00 <utee_cryp_obj_get_info>
     be8:	2a0003f3 	mov	w19, w0
/home/zliu/ubuntu-optee-rpi3/RPi3_OPTEE_3.1/optee_os/lib/libutee/tee_api_objects.c:141
     bec:	350001a0 	cbnz	w0, c20 <TEE_GetObjectBufferAttribute+0x64>
/home/zliu/ubuntu-optee-rpi3/RPi3_OPTEE_3.1/optee_os/lib/libutee/tee_api_objects.c:146
     bf0:	129fff33 	mov	w19, #0xffff0006            	// #-65530
/home/zliu/ubuntu-optee-rpi3/RPi3_OPTEE_3.1/optee_os/lib/libutee/tee_api_objects.c:145
     bf4:	37e80175 	tbnz	w21, #29, c20 <TEE_GetObjectBufferAttribute+0x64>
/home/zliu/ubuntu-optee-rpi3/RPi3_OPTEE_3.1/optee_os/lib/libutee/tee_api_objects.c:150
     bf8:	9101c3a3 	add	x3, x29, #0x70
     bfc:	b9400280 	ldr	w0, [x20]
/home/zliu/ubuntu-optee-rpi3/RPi3_OPTEE_3.1/optee_os/lib/libutee/tee_api_objects.c:151
     c00:	aa1703e2 	mov	x2, x23
     c04:	2a1503e1 	mov	w1, w21
/home/zliu/ubuntu-optee-rpi3/RPi3_OPTEE_3.1/optee_os/lib/libutee/tee_api_objects.c:150
     c08:	f81d8c60 	str	x0, [x3, #-40]!
/home/zliu/ubuntu-optee-rpi3/RPi3_OPTEE_3.1/optee_os/lib/libutee/tee_api_objects.c:151
     c0c:	aa1603e0 	mov	x0, x22
     c10:	94000cc2 	bl	3f18 <utee_cryp_obj_get_attr>
     c14:	2a0003f3 	mov	w19, w0
/home/zliu/ubuntu-optee-rpi3/RPi3_OPTEE_3.1/optee_os/lib/libutee/tee_api_objects.c:153
     c18:	f94027a0 	ldr	x0, [x29, #72]
     c1c:	b9000280 	str	w0, [x20]
/home/zliu/ubuntu-optee-rpi3/RPi3_OPTEE_3.1/optee_os/lib/libutee/tee_api_objects.c:157
     c20:	529fff00 	mov	w0, #0xfff8                	// #65528
     c24:	0b000260 	add	w0, w19, w0
/home/zliu/ubuntu-optee-rpi3/RPi3_OPTEE_3.1/optee_os/lib/libutee/tee_api_objects.c:156
     c28:	721c781f 	tst	w0, #0xfffffff7
     c2c:	7a401a64 	ccmp	w19, #0x0, #0x4, ne  // ne = any
     c30:	54000100 	b.eq	c50 <TEE_GetObjectBufferAttribute+0x94>  // b.none
/home/zliu/ubuntu-optee-rpi3/RPi3_OPTEE_3.1/optee_os/lib/libutee/tee_api_objects.c:159
     c34:	121e7a61 	and	w1, w19, #0xfffffffd
     c38:	52800020 	mov	w0, #0x1                   	// #1
     c3c:	72be0200 	movk	w0, #0xf010, lsl #16
     c40:	6b00003f 	cmp	w1, w0
     c44:	54000060 	b.eq	c50 <TEE_GetObjectBufferAttribute+0x94>  // b.none
/home/zliu/ubuntu-optee-rpi3/RPi3_OPTEE_3.1/optee_os/lib/libutee/tee_api_objects.c:161
     c48:	2a1303e0 	mov	w0, w19
     c4c:	94000bb2 	bl	3b14 <TEE_Panic>
/home/zliu/ubuntu-optee-rpi3/RPi3_OPTEE_3.1/optee_os/lib/libutee/tee_api_objects.c:164
     c50:	2a1303e0 	mov	w0, w19
     c54:	f9401bf7 	ldr	x23, [sp, #48]
     c58:	a94153f3 	ldp	x19, x20, [sp, #16]
     c5c:	a9425bf5 	ldp	x21, x22, [sp, #32]
     c60:	a8c77bfd 	ldp	x29, x30, [sp], #112
     c64:	d65f03c0 	ret

0000000000000c68 <TEE_GetObjectValueAttribute>:
TEE_GetObjectValueAttribute():
/home/zliu/ubuntu-optee-rpi3/RPi3_OPTEE_3.1/optee_os/lib/libutee/tee_api_objects.c:169
     c68:	a9b97bfd 	stp	x29, x30, [sp, #-112]!
     c6c:	910003fd 	mov	x29, sp
     c70:	a9025bf5 	stp	x21, x22, [sp, #32]
     c74:	2a0103f6 	mov	w22, w1
/home/zliu/ubuntu-optee-rpi3/RPi3_OPTEE_3.1/optee_os/lib/libutee/tee_api_objects.c:173
     c78:	d2800101 	mov	x1, #0x8                   	// #8
/home/zliu/ubuntu-optee-rpi3/RPi3_OPTEE_3.1/optee_os/lib/libutee/tee_api_objects.c:169
     c7c:	a90153f3 	stp	x19, x20, [sp, #16]
/home/zliu/ubuntu-optee-rpi3/RPi3_OPTEE_3.1/optee_os/lib/libutee/tee_api_objects.c:173
     c80:	f90027a1 	str	x1, [x29, #72]
/home/zliu/ubuntu-optee-rpi3/RPi3_OPTEE_3.1/optee_os/lib/libutee/tee_api_objects.c:169
     c84:	aa0203f5 	mov	x21, x2
     c88:	f9001bf7 	str	x23, [sp, #48]
     c8c:	aa0303f4 	mov	x20, x3
/home/zliu/ubuntu-optee-rpi3/RPi3_OPTEE_3.1/optee_os/lib/libutee/tee_api_objects.c:175
     c90:	910143a1 	add	x1, x29, #0x50
/home/zliu/ubuntu-optee-rpi3/RPi3_OPTEE_3.1/optee_os/lib/libutee/tee_api_objects.c:169
     c94:	aa0003f7 	mov	x23, x0
/home/zliu/ubuntu-optee-rpi3/RPi3_OPTEE_3.1/optee_os/lib/libutee/tee_api_objects.c:175
     c98:	94000c9a 	bl	3f00 <utee_cryp_obj_get_info>
     c9c:	2a0003f3 	mov	w19, w0
/home/zliu/ubuntu-optee-rpi3/RPi3_OPTEE_3.1/optee_os/lib/libutee/tee_api_objects.c:176
     ca0:	35000120 	cbnz	w0, cc4 <TEE_GetObjectValueAttribute+0x5c>
/home/zliu/ubuntu-optee-rpi3/RPi3_OPTEE_3.1/optee_os/lib/libutee/tee_api_objects.c:181
     ca4:	129fff33 	mov	w19, #0xffff0006            	// #-65530
/home/zliu/ubuntu-optee-rpi3/RPi3_OPTEE_3.1/optee_os/lib/libutee/tee_api_objects.c:180
     ca8:	36e800f6 	tbz	w22, #29, cc4 <TEE_GetObjectValueAttribute+0x5c>
/home/zliu/ubuntu-optee-rpi3/RPi3_OPTEE_3.1/optee_os/lib/libutee/tee_api_objects.c:185
     cac:	910123a3 	add	x3, x29, #0x48
     cb0:	910103a2 	add	x2, x29, #0x40
     cb4:	2a1603e1 	mov	w1, w22
     cb8:	aa1703e0 	mov	x0, x23
     cbc:	94000c97 	bl	3f18 <utee_cryp_obj_get_attr>
     cc0:	2a0003f3 	mov	w19, w0
/home/zliu/ubuntu-optee-rpi3/RPi3_OPTEE_3.1/optee_os/lib/libutee/tee_api_objects.c:189
     cc4:	7100027f 	cmp	w19, #0x0
     cc8:	129ffee0 	mov	w0, #0xffff0008            	// #-65528
     ccc:	7a401264 	ccmp	w19, w0, #0x4, ne  // ne = any
     cd0:	54000100 	b.eq	cf0 <TEE_GetObjectValueAttribute+0x88>  // b.none
/home/zliu/ubuntu-optee-rpi3/RPi3_OPTEE_3.1/optee_os/lib/libutee/tee_api_objects.c:191
     cd4:	121e7a61 	and	w1, w19, #0xfffffffd
     cd8:	52800020 	mov	w0, #0x1                   	// #1
     cdc:	72be0200 	movk	w0, #0xf010, lsl #16
     ce0:	6b00003f 	cmp	w1, w0
     ce4:	54000060 	b.eq	cf0 <TEE_GetObjectValueAttribute+0x88>  // b.none
/home/zliu/ubuntu-optee-rpi3/RPi3_OPTEE_3.1/optee_os/lib/libutee/tee_api_objects.c:193
     ce8:	2a1303e0 	mov	w0, w19
     cec:	94000b8a 	bl	3b14 <TEE_Panic>
/home/zliu/ubuntu-optee-rpi3/RPi3_OPTEE_3.1/optee_os/lib/libutee/tee_api_objects.c:195
     cf0:	f94027a0 	ldr	x0, [x29, #72]
     cf4:	f100201f 	cmp	x0, #0x8
     cf8:	54000060 	b.eq	d04 <TEE_GetObjectValueAttribute+0x9c>  // b.none
/home/zliu/ubuntu-optee-rpi3/RPi3_OPTEE_3.1/optee_os/lib/libutee/tee_api_objects.c:196
     cfc:	52800000 	mov	w0, #0x0                   	// #0
     d00:	94000b85 	bl	3b14 <TEE_Panic>
/home/zliu/ubuntu-optee-rpi3/RPi3_OPTEE_3.1/optee_os/lib/libutee/tee_api_objects.c:198
     d04:	350000f3 	cbnz	w19, d20 <TEE_GetObjectValueAttribute+0xb8>
/home/zliu/ubuntu-optee-rpi3/RPi3_OPTEE_3.1/optee_os/lib/libutee/tee_api_objects.c:199
     d08:	b4000075 	cbz	x21, d14 <TEE_GetObjectValueAttribute+0xac>
/home/zliu/ubuntu-optee-rpi3/RPi3_OPTEE_3.1/optee_os/lib/libutee/tee_api_objects.c:200
     d0c:	b94043a0 	ldr	w0, [x29, #64]
     d10:	b90002a0 	str	w0, [x21]
/home/zliu/ubuntu-optee-rpi3/RPi3_OPTEE_3.1/optee_os/lib/libutee/tee_api_objects.c:201
     d14:	b4000074 	cbz	x20, d20 <TEE_GetObjectValueAttribute+0xb8>
/home/zliu/ubuntu-optee-rpi3/RPi3_OPTEE_3.1/optee_os/lib/libutee/tee_api_objects.c:202
     d18:	b94047a0 	ldr	w0, [x29, #68]
     d1c:	b9000280 	str	w0, [x20]
/home/zliu/ubuntu-optee-rpi3/RPi3_OPTEE_3.1/optee_os/lib/libutee/tee_api_objects.c:206
     d20:	2a1303e0 	mov	w0, w19
     d24:	f9401bf7 	ldr	x23, [sp, #48]
     d28:	a94153f3 	ldp	x19, x20, [sp, #16]
     d2c:	a9425bf5 	ldp	x21, x22, [sp, #32]
     d30:	a8c77bfd 	ldp	x29, x30, [sp], #112
     d34:	d65f03c0 	ret

0000000000000d38 <TEE_CloseObject>:
TEE_CloseObject():
/home/zliu/ubuntu-optee-rpi3/RPi3_OPTEE_3.1/optee_os/lib/libutee/tee_api_objects.c:212
     d38:	b4000120 	cbz	x0, d5c <TEE_CloseObject+0x24>
/home/zliu/ubuntu-optee-rpi3/RPi3_OPTEE_3.1/optee_os/lib/libutee/tee_api_objects.c:209
     d3c:	a9bf7bfd 	stp	x29, x30, [sp, #-16]!
     d40:	910003fd 	mov	x29, sp
/home/zliu/ubuntu-optee-rpi3/RPi3_OPTEE_3.1/optee_os/lib/libutee/tee_api_objects.c:215
     d44:	94000c7b 	bl	3f30 <utee_cryp_obj_close>
/home/zliu/ubuntu-optee-rpi3/RPi3_OPTEE_3.1/optee_os/lib/libutee/tee_api_objects.c:216
     d48:	34000060 	cbz	w0, d54 <TEE_CloseObject+0x1c>
/home/zliu/ubuntu-optee-rpi3/RPi3_OPTEE_3.1/optee_os/lib/libutee/tee_api_objects.c:218
     d4c:	a8c17bfd 	ldp	x29, x30, [sp], #16
/home/zliu/ubuntu-optee-rpi3/RPi3_OPTEE_3.1/optee_os/lib/libutee/tee_api_objects.c:217
     d50:	14000b71 	b	3b14 <TEE_Panic>
/home/zliu/ubuntu-optee-rpi3/RPi3_OPTEE_3.1/optee_os/lib/libutee/tee_api_objects.c:218
     d54:	a8c17bfd 	ldp	x29, x30, [sp], #16
     d58:	d65f03c0 	ret
     d5c:	d65f03c0 	ret

0000000000000d60 <TEE_AllocateTransientObject>:
TEE_AllocateTransientObject():
/home/zliu/ubuntu-optee-rpi3/RPi3_OPTEE_3.1/optee_os/lib/libutee/tee_api_objects.c:225
     d60:	a9bd7bfd 	stp	x29, x30, [sp, #-48]!
/home/zliu/ubuntu-optee-rpi3/RPi3_OPTEE_3.1/optee_os/lib/libutee/tee_api_objects.c:229
     d64:	2a0103e1 	mov	w1, w1
     d68:	2a0003e0 	mov	w0, w0
/home/zliu/ubuntu-optee-rpi3/RPi3_OPTEE_3.1/optee_os/lib/libutee/tee_api_objects.c:225
     d6c:	910003fd 	mov	x29, sp
     d70:	a90153f3 	stp	x19, x20, [sp, #16]
     d74:	aa0203f4 	mov	x20, x2
/home/zliu/ubuntu-optee-rpi3/RPi3_OPTEE_3.1/optee_os/lib/libutee/tee_api_objects.c:229
     d78:	9100b3a2 	add	x2, x29, #0x2c
     d7c:	94000c6a 	bl	3f24 <utee_cryp_obj_alloc>
/home/zliu/ubuntu-optee-rpi3/RPi3_OPTEE_3.1/optee_os/lib/libutee/tee_api_objects.c:231
     d80:	7100001f 	cmp	w0, #0x0
     d84:	129ffe61 	mov	w1, #0xffff000c            	// #-65524
/home/zliu/ubuntu-optee-rpi3/RPi3_OPTEE_3.1/optee_os/lib/libutee/tee_api_objects.c:229
     d88:	2a0003f3 	mov	w19, w0
/home/zliu/ubuntu-optee-rpi3/RPi3_OPTEE_3.1/optee_os/lib/libutee/tee_api_objects.c:231
     d8c:	7a411004 	ccmp	w0, w1, #0x4, ne  // ne = any
     d90:	54000120 	b.eq	db4 <TEE_AllocateTransientObject+0x54>  // b.none
/home/zliu/ubuntu-optee-rpi3/RPi3_OPTEE_3.1/optee_os/lib/libutee/tee_api_objects.c:232
     d94:	129ffea1 	mov	w1, #0xffff000a            	// #-65526
     d98:	6b01001f 	cmp	w0, w1
     d9c:	54000040 	b.eq	da4 <TEE_AllocateTransientObject+0x44>  // b.none
/home/zliu/ubuntu-optee-rpi3/RPi3_OPTEE_3.1/optee_os/lib/libutee/tee_api_objects.c:234
     da0:	94000b5d 	bl	3b14 <TEE_Panic>
/home/zliu/ubuntu-optee-rpi3/RPi3_OPTEE_3.1/optee_os/lib/libutee/tee_api_objects.c:240
     da4:	2a1303e0 	mov	w0, w19
     da8:	a94153f3 	ldp	x19, x20, [sp, #16]
     dac:	a8c37bfd 	ldp	x29, x30, [sp], #48
     db0:	d65f03c0 	ret
/home/zliu/ubuntu-optee-rpi3/RPi3_OPTEE_3.1/optee_os/lib/libutee/tee_api_objects.c:236
     db4:	35ffff80 	cbnz	w0, da4 <TEE_AllocateTransientObject+0x44>
/home/zliu/ubuntu-optee-rpi3/RPi3_OPTEE_3.1/optee_os/lib/libutee/tee_api_objects.c:237
     db8:	b9402fa0 	ldr	w0, [x29, #44]
     dbc:	f9000280 	str	x0, [x20]
/home/zliu/ubuntu-optee-rpi3/RPi3_OPTEE_3.1/optee_os/lib/libutee/tee_api_objects.c:239
     dc0:	17fffff9 	b	da4 <TEE_AllocateTransientObject+0x44>

0000000000000dc4 <TEE_FreeTransientObject>:
TEE_FreeTransientObject():
/home/zliu/ubuntu-optee-rpi3/RPi3_OPTEE_3.1/optee_os/lib/libutee/tee_api_objects.c:247
     dc4:	b4000280 	cbz	x0, e14 <TEE_FreeTransientObject+0x50>
/home/zliu/ubuntu-optee-rpi3/RPi3_OPTEE_3.1/optee_os/lib/libutee/tee_api_objects.c:243
     dc8:	a9bc7bfd 	stp	x29, x30, [sp, #-64]!
     dcc:	910003fd 	mov	x29, sp
     dd0:	f9000bf3 	str	x19, [sp, #16]
/home/zliu/ubuntu-optee-rpi3/RPi3_OPTEE_3.1/optee_os/lib/libutee/tee_api_objects.c:250
     dd4:	910083a1 	add	x1, x29, #0x20
     dd8:	aa0003f3 	mov	x19, x0
     ddc:	94000c49 	bl	3f00 <utee_cryp_obj_get_info>
/home/zliu/ubuntu-optee-rpi3/RPi3_OPTEE_3.1/optee_os/lib/libutee/tee_api_objects.c:251
     de0:	34000040 	cbz	w0, de8 <TEE_FreeTransientObject+0x24>
/home/zliu/ubuntu-optee-rpi3/RPi3_OPTEE_3.1/optee_os/lib/libutee/tee_api_objects.c:252
     de4:	94000b4c 	bl	3b14 <TEE_Panic>
/home/zliu/ubuntu-optee-rpi3/RPi3_OPTEE_3.1/optee_os/lib/libutee/tee_api_objects.c:254
     de8:	b9403ba0 	ldr	w0, [x29, #56]
     dec:	36800060 	tbz	w0, #16, df8 <TEE_FreeTransientObject+0x34>
/home/zliu/ubuntu-optee-rpi3/RPi3_OPTEE_3.1/optee_os/lib/libutee/tee_api_objects.c:255
     df0:	52800000 	mov	w0, #0x0                   	// #0
     df4:	94000b48 	bl	3b14 <TEE_Panic>
/home/zliu/ubuntu-optee-rpi3/RPi3_OPTEE_3.1/optee_os/lib/libutee/tee_api_objects.c:257
     df8:	aa1303e0 	mov	x0, x19
     dfc:	94000c4d 	bl	3f30 <utee_cryp_obj_close>
/home/zliu/ubuntu-optee-rpi3/RPi3_OPTEE_3.1/optee_os/lib/libutee/tee_api_objects.c:258
     e00:	34000040 	cbz	w0, e08 <TEE_FreeTransientObject+0x44>
/home/zliu/ubuntu-optee-rpi3/RPi3_OPTEE_3.1/optee_os/lib/libutee/tee_api_objects.c:259
     e04:	94000b44 	bl	3b14 <TEE_Panic>
/home/zliu/ubuntu-optee-rpi3/RPi3_OPTEE_3.1/optee_os/lib/libutee/tee_api_objects.c:260
     e08:	f9400bf3 	ldr	x19, [sp, #16]
     e0c:	a8c47bfd 	ldp	x29, x30, [sp], #64
     e10:	d65f03c0 	ret
     e14:	d65f03c0 	ret

0000000000000e18 <TEE_ResetTransientObject>:
TEE_ResetTransientObject():
/home/zliu/ubuntu-optee-rpi3/RPi3_OPTEE_3.1/optee_os/lib/libutee/tee_api_objects.c:267
     e18:	b4000280 	cbz	x0, e68 <TEE_ResetTransientObject+0x50>
/home/zliu/ubuntu-optee-rpi3/RPi3_OPTEE_3.1/optee_os/lib/libutee/tee_api_objects.c:263
     e1c:	a9bc7bfd 	stp	x29, x30, [sp, #-64]!
     e20:	910003fd 	mov	x29, sp
     e24:	f9000bf3 	str	x19, [sp, #16]
/home/zliu/ubuntu-optee-rpi3/RPi3_OPTEE_3.1/optee_os/lib/libutee/tee_api_objects.c:270
     e28:	910083a1 	add	x1, x29, #0x20
     e2c:	aa0003f3 	mov	x19, x0
     e30:	94000c34 	bl	3f00 <utee_cryp_obj_get_info>
/home/zliu/ubuntu-optee-rpi3/RPi3_OPTEE_3.1/optee_os/lib/libutee/tee_api_objects.c:271
     e34:	34000040 	cbz	w0, e3c <TEE_ResetTransientObject+0x24>
/home/zliu/ubuntu-optee-rpi3/RPi3_OPTEE_3.1/optee_os/lib/libutee/tee_api_objects.c:272
     e38:	94000b37 	bl	3b14 <TEE_Panic>
/home/zliu/ubuntu-optee-rpi3/RPi3_OPTEE_3.1/optee_os/lib/libutee/tee_api_objects.c:274
     e3c:	b9403ba0 	ldr	w0, [x29, #56]
     e40:	36800060 	tbz	w0, #16, e4c <TEE_ResetTransientObject+0x34>
/home/zliu/ubuntu-optee-rpi3/RPi3_OPTEE_3.1/optee_os/lib/libutee/tee_api_objects.c:275
     e44:	52800000 	mov	w0, #0x0                   	// #0
     e48:	94000b33 	bl	3b14 <TEE_Panic>
/home/zliu/ubuntu-optee-rpi3/RPi3_OPTEE_3.1/optee_os/lib/libutee/tee_api_objects.c:277
     e4c:	aa1303e0 	mov	x0, x19
     e50:	94000c3b 	bl	3f3c <utee_cryp_obj_reset>
/home/zliu/ubuntu-optee-rpi3/RPi3_OPTEE_3.1/optee_os/lib/libutee/tee_api_objects.c:278
     e54:	34000040 	cbz	w0, e5c <TEE_ResetTransientObject+0x44>
/home/zliu/ubuntu-optee-rpi3/RPi3_OPTEE_3.1/optee_os/lib/libutee/tee_api_objects.c:279
     e58:	94000b2f 	bl	3b14 <TEE_Panic>
/home/zliu/ubuntu-optee-rpi3/RPi3_OPTEE_3.1/optee_os/lib/libutee/tee_api_objects.c:280
     e5c:	f9400bf3 	ldr	x19, [sp, #16]
     e60:	a8c47bfd 	ldp	x29, x30, [sp], #64
     e64:	d65f03c0 	ret
     e68:	d65f03c0 	ret

0000000000000e6c <TEE_PopulateTransientObject>:
TEE_PopulateTransientObject():
/home/zliu/ubuntu-optee-rpi3/RPi3_OPTEE_3.1/optee_os/lib/libutee/tee_api_objects.c:285
     e6c:	a9ba7bfd 	stp	x29, x30, [sp, #-96]!
     e70:	910003fd 	mov	x29, sp
     e74:	a9025bf5 	stp	x21, x22, [sp, #32]
     e78:	2a0203f6 	mov	w22, w2
     e7c:	f9001bf7 	str	x23, [sp, #48]
     e80:	aa0103f7 	mov	x23, x1
/home/zliu/ubuntu-optee-rpi3/RPi3_OPTEE_3.1/optee_os/lib/libutee/tee_api_objects.c:288
     e84:	52800301 	mov	w1, #0x18                  	// #24
/home/zliu/ubuntu-optee-rpi3/RPi3_OPTEE_3.1/optee_os/lib/libutee/tee_api_objects.c:285
     e88:	a90153f3 	stp	x19, x20, [sp, #16]
     e8c:	aa0003f5 	mov	x21, x0
     e90:	aa1603f3 	mov	x19, x22
/home/zliu/ubuntu-optee-rpi3/RPi3_OPTEE_3.1/optee_os/lib/libutee/tee_api_objects.c:288
     e94:	9ba17ec1 	umull	x1, w22, w1
     e98:	91005821 	add	x1, x1, #0x16
     e9c:	927c8421 	and	x1, x1, #0x3ffffffff0
     ea0:	cb2163ff 	sub	sp, sp, x1
/home/zliu/ubuntu-optee-rpi3/RPi3_OPTEE_3.1/optee_os/lib/libutee/tee_api_objects.c:290
     ea4:	910103a1 	add	x1, x29, #0x40
/home/zliu/ubuntu-optee-rpi3/RPi3_OPTEE_3.1/optee_os/lib/libutee/tee_api_objects.c:288
     ea8:	910003f4 	mov	x20, sp
/home/zliu/ubuntu-optee-rpi3/RPi3_OPTEE_3.1/optee_os/lib/libutee/tee_api_objects.c:290
     eac:	94000c15 	bl	3f00 <utee_cryp_obj_get_info>
/home/zliu/ubuntu-optee-rpi3/RPi3_OPTEE_3.1/optee_os/lib/libutee/tee_api_objects.c:291
     eb0:	34000040 	cbz	w0, eb8 <TEE_PopulateTransientObject+0x4c>
/home/zliu/ubuntu-optee-rpi3/RPi3_OPTEE_3.1/optee_os/lib/libutee/tee_api_objects.c:292
     eb4:	94000b18 	bl	3b14 <TEE_Panic>
/home/zliu/ubuntu-optee-rpi3/RPi3_OPTEE_3.1/optee_os/lib/libutee/tee_api_objects.c:295
     eb8:	b9405ba0 	ldr	w0, [x29, #88]
     ebc:	36800060 	tbz	w0, #16, ec8 <TEE_PopulateTransientObject+0x5c>
/home/zliu/ubuntu-optee-rpi3/RPi3_OPTEE_3.1/optee_os/lib/libutee/tee_api_objects.c:296
     ec0:	52800000 	mov	w0, #0x0                   	// #0
     ec4:	94000b14 	bl	3b14 <TEE_Panic>
/home/zliu/ubuntu-optee-rpi3/RPi3_OPTEE_3.1/optee_os/lib/libutee/tee_api_objects.c:299
     ec8:	b9405ba0 	ldr	w0, [x29, #88]
     ecc:	36880060 	tbz	w0, #17, ed8 <TEE_PopulateTransientObject+0x6c>
/home/zliu/ubuntu-optee-rpi3/RPi3_OPTEE_3.1/optee_os/lib/libutee/tee_api_objects.c:300
     ed0:	52800000 	mov	w0, #0x0                   	// #0
     ed4:	94000b10 	bl	3b14 <TEE_Panic>
/home/zliu/ubuntu-optee-rpi3/RPi3_OPTEE_3.1/optee_os/lib/libutee/tee_api_objects.c:302
     ed8:	2a1303e2 	mov	w2, w19
     edc:	aa1703e1 	mov	x1, x23
     ee0:	aa1403e0 	mov	x0, x20
     ee4:	97fffedc 	bl	a54 <__utee_from_attr>
/home/zliu/ubuntu-optee-rpi3/RPi3_OPTEE_3.1/optee_os/lib/libutee/tee_api_objects.c:303
     ee8:	aa1403e1 	mov	x1, x20
     eec:	aa1603e2 	mov	x2, x22
     ef0:	aa1503e0 	mov	x0, x21
     ef4:	94000c15 	bl	3f48 <utee_cryp_obj_populate>
/home/zliu/ubuntu-optee-rpi3/RPi3_OPTEE_3.1/optee_os/lib/libutee/tee_api_objects.c:304
     ef8:	7100001f 	cmp	w0, #0x0
     efc:	129fff21 	mov	w1, #0xffff0006            	// #-65530
/home/zliu/ubuntu-optee-rpi3/RPi3_OPTEE_3.1/optee_os/lib/libutee/tee_api_objects.c:303
     f00:	2a0003f3 	mov	w19, w0
/home/zliu/ubuntu-optee-rpi3/RPi3_OPTEE_3.1/optee_os/lib/libutee/tee_api_objects.c:304
     f04:	7a411004 	ccmp	w0, w1, #0x4, ne  // ne = any
     f08:	54000040 	b.eq	f10 <TEE_PopulateTransientObject+0xa4>  // b.none
/home/zliu/ubuntu-optee-rpi3/RPi3_OPTEE_3.1/optee_os/lib/libutee/tee_api_objects.c:305
     f0c:	94000b02 	bl	3b14 <TEE_Panic>
/home/zliu/ubuntu-optee-rpi3/RPi3_OPTEE_3.1/optee_os/lib/libutee/tee_api_objects.c:307
     f10:	910003bf 	mov	sp, x29
     f14:	2a1303e0 	mov	w0, w19
     f18:	f9401bf7 	ldr	x23, [sp, #48]
     f1c:	a94153f3 	ldp	x19, x20, [sp, #16]
     f20:	a9425bf5 	ldp	x21, x22, [sp, #32]
     f24:	a8c67bfd 	ldp	x29, x30, [sp], #96
     f28:	d65f03c0 	ret

0000000000000f2c <TEE_InitRefAttribute>:
TEE_InitRefAttribute():
/home/zliu/ubuntu-optee-rpi3/RPi3_OPTEE_3.1/optee_os/lib/libutee/tee_api_objects.c:311
     f2c:	a9bd7bfd 	stp	x29, x30, [sp, #-48]!
     f30:	910003fd 	mov	x29, sp
     f34:	a90153f3 	stp	x19, x20, [sp, #16]
     f38:	aa0003f3 	mov	x19, x0
     f3c:	a9025bf5 	stp	x21, x22, [sp, #32]
     f40:	2a0103f4 	mov	w20, w1
     f44:	aa0203f6 	mov	x22, x2
     f48:	2a0303f5 	mov	w21, w3
/home/zliu/ubuntu-optee-rpi3/RPi3_OPTEE_3.1/optee_os/lib/libutee/tee_api_objects.c:312
     f4c:	b5000060 	cbnz	x0, f58 <TEE_InitRefAttribute+0x2c>
/home/zliu/ubuntu-optee-rpi3/RPi3_OPTEE_3.1/optee_os/lib/libutee/tee_api_objects.c:313
     f50:	52800000 	mov	w0, #0x0                   	// #0
     f54:	94000af0 	bl	3b14 <TEE_Panic>
/home/zliu/ubuntu-optee-rpi3/RPi3_OPTEE_3.1/optee_os/lib/libutee/tee_api_objects.c:314
     f58:	36e80074 	tbz	w20, #29, f64 <TEE_InitRefAttribute+0x38>
/home/zliu/ubuntu-optee-rpi3/RPi3_OPTEE_3.1/optee_os/lib/libutee/tee_api_objects.c:315
     f5c:	52800000 	mov	w0, #0x0                   	// #0
     f60:	94000aed 	bl	3b14 <TEE_Panic>
/home/zliu/ubuntu-optee-rpi3/RPi3_OPTEE_3.1/optee_os/lib/libutee/tee_api_objects.c:317
     f64:	f9000676 	str	x22, [x19, #8]
/home/zliu/ubuntu-optee-rpi3/RPi3_OPTEE_3.1/optee_os/lib/libutee/tee_api_objects.c:318
     f68:	b9001275 	str	w21, [x19, #16]
/home/zliu/ubuntu-optee-rpi3/RPi3_OPTEE_3.1/optee_os/lib/libutee/tee_api_objects.c:316
     f6c:	b9000274 	str	w20, [x19]
/home/zliu/ubuntu-optee-rpi3/RPi3_OPTEE_3.1/optee_os/lib/libutee/tee_api_objects.c:319
     f70:	a9425bf5 	ldp	x21, x22, [sp, #32]
     f74:	a94153f3 	ldp	x19, x20, [sp, #16]
     f78:	a8c37bfd 	ldp	x29, x30, [sp], #48
     f7c:	d65f03c0 	ret

0000000000000f80 <TEE_InitValueAttribute>:
TEE_InitValueAttribute():
/home/zliu/ubuntu-optee-rpi3/RPi3_OPTEE_3.1/optee_os/lib/libutee/tee_api_objects.c:323
     f80:	a9bd7bfd 	stp	x29, x30, [sp, #-48]!
     f84:	910003fd 	mov	x29, sp
     f88:	a90153f3 	stp	x19, x20, [sp, #16]
     f8c:	aa0003f3 	mov	x19, x0
     f90:	a9025bf5 	stp	x21, x22, [sp, #32]
     f94:	2a0103f4 	mov	w20, w1
     f98:	2a0203f6 	mov	w22, w2
     f9c:	2a0303f5 	mov	w21, w3
/home/zliu/ubuntu-optee-rpi3/RPi3_OPTEE_3.1/optee_os/lib/libutee/tee_api_objects.c:324
     fa0:	b5000060 	cbnz	x0, fac <TEE_InitValueAttribute+0x2c>
/home/zliu/ubuntu-optee-rpi3/RPi3_OPTEE_3.1/optee_os/lib/libutee/tee_api_objects.c:325
     fa4:	52800000 	mov	w0, #0x0                   	// #0
     fa8:	94000adb 	bl	3b14 <TEE_Panic>
/home/zliu/ubuntu-optee-rpi3/RPi3_OPTEE_3.1/optee_os/lib/libutee/tee_api_objects.c:326
     fac:	37e80074 	tbnz	w20, #29, fb8 <TEE_InitValueAttribute+0x38>
/home/zliu/ubuntu-optee-rpi3/RPi3_OPTEE_3.1/optee_os/lib/libutee/tee_api_objects.c:327
     fb0:	52800000 	mov	w0, #0x0                   	// #0
     fb4:	94000ad8 	bl	3b14 <TEE_Panic>
/home/zliu/ubuntu-optee-rpi3/RPi3_OPTEE_3.1/optee_os/lib/libutee/tee_api_objects.c:330
     fb8:	29015676 	stp	w22, w21, [x19, #8]
/home/zliu/ubuntu-optee-rpi3/RPi3_OPTEE_3.1/optee_os/lib/libutee/tee_api_objects.c:328
     fbc:	b9000274 	str	w20, [x19]
/home/zliu/ubuntu-optee-rpi3/RPi3_OPTEE_3.1/optee_os/lib/libutee/tee_api_objects.c:331
     fc0:	a9425bf5 	ldp	x21, x22, [sp, #32]
     fc4:	a94153f3 	ldp	x19, x20, [sp, #16]
     fc8:	a8c37bfd 	ldp	x29, x30, [sp], #48
     fcc:	d65f03c0 	ret

0000000000000fd0 <TEE_CopyObjectAttributes1>:
TEE_CopyObjectAttributes1():
/home/zliu/ubuntu-optee-rpi3/RPi3_OPTEE_3.1/optee_os/lib/libutee/tee_api_objects.c:356
     fd0:	a9b97bfd 	stp	x29, x30, [sp, #-112]!
     fd4:	910003fd 	mov	x29, sp
     fd8:	a90153f3 	stp	x19, x20, [sp, #16]
     fdc:	aa0103f4 	mov	x20, x1
     fe0:	f90013f5 	str	x21, [sp, #32]
/home/zliu/ubuntu-optee-rpi3/RPi3_OPTEE_3.1/optee_os/lib/libutee/tee_api_objects.c:361
     fe4:	9100c3a1 	add	x1, x29, #0x30
/home/zliu/ubuntu-optee-rpi3/RPi3_OPTEE_3.1/optee_os/lib/libutee/tee_api_objects.c:356
     fe8:	aa0003f5 	mov	x21, x0
/home/zliu/ubuntu-optee-rpi3/RPi3_OPTEE_3.1/optee_os/lib/libutee/tee_api_objects.c:361
     fec:	94000bc5 	bl	3f00 <utee_cryp_obj_get_info>
     ff0:	2a0003f3 	mov	w19, w0
/home/zliu/ubuntu-optee-rpi3/RPi3_OPTEE_3.1/optee_os/lib/libutee/tee_api_objects.c:362
     ff4:	350002a0 	cbnz	w0, 1048 <TEE_CopyObjectAttributes1+0x78>
/home/zliu/ubuntu-optee-rpi3/RPi3_OPTEE_3.1/optee_os/lib/libutee/tee_api_objects.c:365
     ff8:	910143a1 	add	x1, x29, #0x50
     ffc:	aa1403e0 	mov	x0, x20
    1000:	94000bc0 	bl	3f00 <utee_cryp_obj_get_info>
    1004:	2a0003f3 	mov	w19, w0
/home/zliu/ubuntu-optee-rpi3/RPi3_OPTEE_3.1/optee_os/lib/libutee/tee_api_objects.c:366
    1008:	35000200 	cbnz	w0, 1048 <TEE_CopyObjectAttributes1+0x78>
/home/zliu/ubuntu-optee-rpi3/RPi3_OPTEE_3.1/optee_os/lib/libutee/tee_api_objects.c:369
    100c:	b9406ba1 	ldr	w1, [x29, #104]
    1010:	37880041 	tbnz	w1, #17, 1018 <TEE_CopyObjectAttributes1+0x48>
/home/zliu/ubuntu-optee-rpi3/RPi3_OPTEE_3.1/optee_os/lib/libutee/tee_api_objects.c:370
    1014:	94000ac0 	bl	3b14 <TEE_Panic>
/home/zliu/ubuntu-optee-rpi3/RPi3_OPTEE_3.1/optee_os/lib/libutee/tee_api_objects.c:372
    1018:	b9404ba0 	ldr	w0, [x29, #72]
    101c:	36800060 	tbz	w0, #16, 1028 <TEE_CopyObjectAttributes1+0x58>
/home/zliu/ubuntu-optee-rpi3/RPi3_OPTEE_3.1/optee_os/lib/libutee/tee_api_objects.c:373
    1020:	52800000 	mov	w0, #0x0                   	// #0
    1024:	94000abc 	bl	3b14 <TEE_Panic>
/home/zliu/ubuntu-optee-rpi3/RPi3_OPTEE_3.1/optee_os/lib/libutee/tee_api_objects.c:375
    1028:	b9404ba0 	ldr	w0, [x29, #72]
    102c:	36880060 	tbz	w0, #17, 1038 <TEE_CopyObjectAttributes1+0x68>
/home/zliu/ubuntu-optee-rpi3/RPi3_OPTEE_3.1/optee_os/lib/libutee/tee_api_objects.c:376
    1030:	52800000 	mov	w0, #0x0                   	// #0
    1034:	94000ab8 	bl	3b14 <TEE_Panic>
/home/zliu/ubuntu-optee-rpi3/RPi3_OPTEE_3.1/optee_os/lib/libutee/tee_api_objects.c:378
    1038:	aa1403e1 	mov	x1, x20
    103c:	aa1503e0 	mov	x0, x21
    1040:	94000bc5 	bl	3f54 <utee_cryp_obj_copy>
    1044:	2a0003f3 	mov	w19, w0
/home/zliu/ubuntu-optee-rpi3/RPi3_OPTEE_3.1/optee_os/lib/libutee/tee_api_objects.c:383
    1048:	121e7a60 	and	w0, w19, #0xfffffffd
    104c:	7100027f 	cmp	w19, #0x0
    1050:	52800021 	mov	w1, #0x1                   	// #1
    1054:	72be0201 	movk	w1, #0xf010, lsl #16
    1058:	7a411004 	ccmp	w0, w1, #0x4, ne  // ne = any
    105c:	54000060 	b.eq	1068 <TEE_CopyObjectAttributes1+0x98>  // b.none
/home/zliu/ubuntu-optee-rpi3/RPi3_OPTEE_3.1/optee_os/lib/libutee/tee_api_objects.c:385
    1060:	2a1303e0 	mov	w0, w19
    1064:	94000aac 	bl	3b14 <TEE_Panic>
/home/zliu/ubuntu-optee-rpi3/RPi3_OPTEE_3.1/optee_os/lib/libutee/tee_api_objects.c:388
    1068:	2a1303e0 	mov	w0, w19
    106c:	f94013f5 	ldr	x21, [sp, #32]
    1070:	a94153f3 	ldp	x19, x20, [sp, #16]
    1074:	a8c77bfd 	ldp	x29, x30, [sp], #112
    1078:	d65f03c0 	ret

000000000000107c <TEE_CopyObjectAttributes>:
TEE_CopyObjectAttributes():
/home/zliu/ubuntu-optee-rpi3/RPi3_OPTEE_3.1/optee_os/lib/libutee/tee_api_objects.c:341
    107c:	a9bc7bfd 	stp	x29, x30, [sp, #-64]!
    1080:	910003fd 	mov	x29, sp
    1084:	a90153f3 	stp	x19, x20, [sp, #16]
    1088:	aa0103f3 	mov	x19, x1
    108c:	aa0003f4 	mov	x20, x0
/home/zliu/ubuntu-optee-rpi3/RPi3_OPTEE_3.1/optee_os/lib/libutee/tee_api_objects.c:345
    1090:	910083a1 	add	x1, x29, #0x20
    1094:	aa1303e0 	mov	x0, x19
    1098:	94000b9a 	bl	3f00 <utee_cryp_obj_get_info>
/home/zliu/ubuntu-optee-rpi3/RPi3_OPTEE_3.1/optee_os/lib/libutee/tee_api_objects.c:346
    109c:	b94023a1 	ldr	w1, [x29, #32]
    10a0:	528017c0 	mov	w0, #0xbe                  	// #190
    10a4:	72b40000 	movk	w0, #0xa000, lsl #16
    10a8:	6b00003f 	cmp	w1, w0
    10ac:	540000c0 	b.eq	10c4 <TEE_CopyObjectAttributes+0x48>  // b.none
/home/zliu/ubuntu-optee-rpi3/RPi3_OPTEE_3.1/optee_os/lib/libutee/tee_api_objects.c:349
    10b0:	aa1303e1 	mov	x1, x19
    10b4:	aa1403e0 	mov	x0, x20
    10b8:	97ffffc6 	bl	fd0 <TEE_CopyObjectAttributes1>
/home/zliu/ubuntu-optee-rpi3/RPi3_OPTEE_3.1/optee_os/lib/libutee/tee_api_objects.c:350
    10bc:	34000040 	cbz	w0, 10c4 <TEE_CopyObjectAttributes+0x48>
/home/zliu/ubuntu-optee-rpi3/RPi3_OPTEE_3.1/optee_os/lib/libutee/tee_api_objects.c:351
    10c0:	94000a95 	bl	3b14 <TEE_Panic>
/home/zliu/ubuntu-optee-rpi3/RPi3_OPTEE_3.1/optee_os/lib/libutee/tee_api_objects.c:352
    10c4:	a94153f3 	ldp	x19, x20, [sp, #16]
    10c8:	a8c47bfd 	ldp	x29, x30, [sp], #64
    10cc:	d65f03c0 	ret

00000000000010d0 <TEE_GenerateKey>:
TEE_GenerateKey():
/home/zliu/ubuntu-optee-rpi3/RPi3_OPTEE_3.1/optee_os/lib/libutee/tee_api_objects.c:392
    10d0:	a9bd7bfd 	stp	x29, x30, [sp, #-48]!
    10d4:	910003fd 	mov	x29, sp
    10d8:	a9025bf5 	stp	x21, x22, [sp, #32]
    10dc:	aa0003f5 	mov	x21, x0
/home/zliu/ubuntu-optee-rpi3/RPi3_OPTEE_3.1/optee_os/lib/libutee/tee_api_objects.c:394
    10e0:	52800300 	mov	w0, #0x18                  	// #24
/home/zliu/ubuntu-optee-rpi3/RPi3_OPTEE_3.1/optee_os/lib/libutee/tee_api_objects.c:392
    10e4:	a90153f3 	stp	x19, x20, [sp, #16]
    10e8:	2a0103f6 	mov	w22, w1
    10ec:	2a0303f3 	mov	w19, w3
/home/zliu/ubuntu-optee-rpi3/RPi3_OPTEE_3.1/optee_os/lib/libutee/tee_api_objects.c:394
    10f0:	9ba07c60 	umull	x0, w3, w0
/home/zliu/ubuntu-optee-rpi3/RPi3_OPTEE_3.1/optee_os/lib/libutee/tee_api_objects.c:392
    10f4:	aa0203e1 	mov	x1, x2
/home/zliu/ubuntu-optee-rpi3/RPi3_OPTEE_3.1/optee_os/lib/libutee/tee_api_objects.c:396
    10f8:	2a0303e2 	mov	w2, w3
/home/zliu/ubuntu-optee-rpi3/RPi3_OPTEE_3.1/optee_os/lib/libutee/tee_api_objects.c:394
    10fc:	91005800 	add	x0, x0, #0x16
    1100:	927c8400 	and	x0, x0, #0x3ffffffff0
    1104:	cb2063ff 	sub	sp, sp, x0
/home/zliu/ubuntu-optee-rpi3/RPi3_OPTEE_3.1/optee_os/lib/libutee/tee_api_objects.c:396
    1108:	910003e0 	mov	x0, sp
    110c:	97fffe52 	bl	a54 <__utee_from_attr>
/home/zliu/ubuntu-optee-rpi3/RPi3_OPTEE_3.1/optee_os/lib/libutee/tee_api_objects.c:397
    1110:	2a1303e3 	mov	w3, w19
    1114:	2a1603e1 	mov	w1, w22
    1118:	910003e2 	mov	x2, sp
    111c:	aa1503e0 	mov	x0, x21
    1120:	94000bd2 	bl	4068 <utee_cryp_obj_generate_key>
/home/zliu/ubuntu-optee-rpi3/RPi3_OPTEE_3.1/optee_os/lib/libutee/tee_api_objects.c:400
    1124:	7100001f 	cmp	w0, #0x0
    1128:	129fff21 	mov	w1, #0xffff0006            	// #-65530
/home/zliu/ubuntu-optee-rpi3/RPi3_OPTEE_3.1/optee_os/lib/libutee/tee_api_objects.c:397
    112c:	2a0003f3 	mov	w19, w0
/home/zliu/ubuntu-optee-rpi3/RPi3_OPTEE_3.1/optee_os/lib/libutee/tee_api_objects.c:400
    1130:	7a411004 	ccmp	w0, w1, #0x4, ne  // ne = any
    1134:	54000040 	b.eq	113c <TEE_GenerateKey+0x6c>  // b.none
/home/zliu/ubuntu-optee-rpi3/RPi3_OPTEE_3.1/optee_os/lib/libutee/tee_api_objects.c:401
    1138:	94000a77 	bl	3b14 <TEE_Panic>
/home/zliu/ubuntu-optee-rpi3/RPi3_OPTEE_3.1/optee_os/lib/libutee/tee_api_objects.c:404
    113c:	910003bf 	mov	sp, x29
    1140:	2a1303e0 	mov	w0, w19
    1144:	a94153f3 	ldp	x19, x20, [sp, #16]
    1148:	a9425bf5 	ldp	x21, x22, [sp, #32]
    114c:	a8c37bfd 	ldp	x29, x30, [sp], #48
    1150:	d65f03c0 	ret

0000000000001154 <TEE_OpenPersistentObject>:
TEE_OpenPersistentObject():
/home/zliu/ubuntu-optee-rpi3/RPi3_OPTEE_3.1/optee_os/lib/libutee/tee_api_objects.c:411
    1154:	a9bd7bfd 	stp	x29, x30, [sp, #-48]!
    1158:	910003fd 	mov	x29, sp
    115c:	a90153f3 	stp	x19, x20, [sp, #16]
/home/zliu/ubuntu-optee-rpi3/RPi3_OPTEE_3.1/optee_os/lib/libutee/tee_api_objects.c:416
    1160:	129ffef3 	mov	w19, #0xffff0008            	// #-65528
/home/zliu/ubuntu-optee-rpi3/RPi3_OPTEE_3.1/optee_os/lib/libutee/tee_api_objects.c:415
    1164:	b40001e1 	cbz	x1, 11a0 <TEE_OpenPersistentObject+0x4c>
/home/zliu/ubuntu-optee-rpi3/RPi3_OPTEE_3.1/optee_os/lib/libutee/tee_api_objects.c:425
    1168:	7101005f 	cmp	w2, #0x40
    116c:	aa0403f4 	mov	x20, x4
/home/zliu/ubuntu-optee-rpi3/RPi3_OPTEE_3.1/optee_os/lib/libutee/tee_api_objects.c:426
    1170:	129fff33 	mov	w19, #0xffff0006            	// #-65530
/home/zliu/ubuntu-optee-rpi3/RPi3_OPTEE_3.1/optee_os/lib/libutee/tee_api_objects.c:425
    1174:	fa409884 	ccmp	x4, #0x0, #0x4, ls  // ls = plast
    1178:	54000140 	b.eq	11a0 <TEE_OpenPersistentObject+0x4c>  // b.none
/home/zliu/ubuntu-optee-rpi3/RPi3_OPTEE_3.1/optee_os/lib/libutee/tee_api_objects.c:430
    117c:	9100b3a4 	add	x4, x29, #0x2c
    1180:	2a0303e3 	mov	w3, w3
    1184:	2a0203e2 	mov	w2, w2
    1188:	2a0003e0 	mov	w0, w0
    118c:	94000b90 	bl	3fcc <utee_storage_obj_open>
    1190:	2a0003f3 	mov	w19, w0
/home/zliu/ubuntu-optee-rpi3/RPi3_OPTEE_3.1/optee_os/lib/libutee/tee_api_objects.c:432
    1194:	35000060 	cbnz	w0, 11a0 <TEE_OpenPersistentObject+0x4c>
/home/zliu/ubuntu-optee-rpi3/RPi3_OPTEE_3.1/optee_os/lib/libutee/tee_api_objects.c:433
    1198:	b9402fa0 	ldr	w0, [x29, #44]
    119c:	f9000280 	str	x0, [x20]
/home/zliu/ubuntu-optee-rpi3/RPi3_OPTEE_3.1/optee_os/lib/libutee/tee_api_objects.c:437
    11a0:	121d7a60 	and	w0, w19, #0xfffffffb
/home/zliu/ubuntu-optee-rpi3/RPi3_OPTEE_3.1/optee_os/lib/libutee/tee_api_objects.c:436
    11a4:	7100027f 	cmp	w19, #0x0
    11a8:	129ffee1 	mov	w1, #0xffff0008            	// #-65528
    11ac:	7a411004 	ccmp	w0, w1, #0x4, ne  // ne = any
    11b0:	54000160 	b.eq	11dc <TEE_OpenPersistentObject+0x88>  // b.none
/home/zliu/ubuntu-optee-rpi3/RPi3_OPTEE_3.1/optee_os/lib/libutee/tee_api_objects.c:438
    11b4:	129fff80 	mov	w0, #0xffff0003            	// #-65533
    11b8:	6b00027f 	cmp	w19, w0
    11bc:	54000100 	b.eq	11dc <TEE_OpenPersistentObject+0x88>  // b.none
/home/zliu/ubuntu-optee-rpi3/RPi3_OPTEE_3.1/optee_os/lib/libutee/tee_api_objects.c:440
    11c0:	121e7a61 	and	w1, w19, #0xfffffffd
    11c4:	52800020 	mov	w0, #0x1                   	// #1
    11c8:	72be0200 	movk	w0, #0xf010, lsl #16
    11cc:	6b00003f 	cmp	w1, w0
    11d0:	54000060 	b.eq	11dc <TEE_OpenPersistentObject+0x88>  // b.none
/home/zliu/ubuntu-optee-rpi3/RPi3_OPTEE_3.1/optee_os/lib/libutee/tee_api_objects.c:442
    11d4:	2a1303e0 	mov	w0, w19
    11d8:	94000a4f 	bl	3b14 <TEE_Panic>
/home/zliu/ubuntu-optee-rpi3/RPi3_OPTEE_3.1/optee_os/lib/libutee/tee_api_objects.c:445
    11dc:	2a1303e0 	mov	w0, w19
    11e0:	a94153f3 	ldp	x19, x20, [sp, #16]
    11e4:	a8c37bfd 	ldp	x29, x30, [sp], #48
    11e8:	d65f03c0 	ret

00000000000011ec <TEE_CreatePersistentObject>:
TEE_CreatePersistentObject():
/home/zliu/ubuntu-optee-rpi3/RPi3_OPTEE_3.1/optee_os/lib/libutee/tee_api_objects.c:453
    11ec:	a9bd7bfd 	stp	x29, x30, [sp, #-48]!
    11f0:	910003fd 	mov	x29, sp
    11f4:	f9000bf3 	str	x19, [sp, #16]
    11f8:	aa0703f3 	mov	x19, x7
/home/zliu/ubuntu-optee-rpi3/RPi3_OPTEE_3.1/optee_os/lib/libutee/tee_api_objects.c:457
    11fc:	b4000501 	cbz	x1, 129c <TEE_CreatePersistentObject+0xb0>
/home/zliu/ubuntu-optee-rpi3/RPi3_OPTEE_3.1/optee_os/lib/libutee/tee_api_objects.c:462
    1200:	7101005f 	cmp	w2, #0x40
    1204:	54000528 	b.hi	12a8 <TEE_CreatePersistentObject+0xbc>  // b.pmore
/home/zliu/ubuntu-optee-rpi3/RPi3_OPTEE_3.1/optee_os/lib/libutee/tee_api_objects.c:467
    1208:	9100b3a7 	add	x7, x29, #0x2c
    120c:	2a0603e6 	mov	w6, w6
    1210:	2a0303e3 	mov	w3, w3
    1214:	2a0203e2 	mov	w2, w2
    1218:	2a0003e0 	mov	w0, w0
    121c:	94000b6f 	bl	3fd8 <utee_storage_obj_create>
/home/zliu/ubuntu-optee-rpi3/RPi3_OPTEE_3.1/optee_os/lib/libutee/tee_api_objects.c:470
    1220:	35000380 	cbnz	w0, 1290 <TEE_CreatePersistentObject+0xa4>
    1224:	b9402fa1 	ldr	w1, [x29, #44]
/home/zliu/ubuntu-optee-rpi3/RPi3_OPTEE_3.1/optee_os/lib/libutee/tee_api_objects.c:471
    1228:	b40000b3 	cbz	x19, 123c <TEE_CreatePersistentObject+0x50>
/home/zliu/ubuntu-optee-rpi3/RPi3_OPTEE_3.1/optee_os/lib/libutee/tee_api_objects.c:472
    122c:	f9000261 	str	x1, [x19]
/home/zliu/ubuntu-optee-rpi3/RPi3_OPTEE_3.1/optee_os/lib/libutee/tee_api_objects.c:491
    1230:	f9400bf3 	ldr	x19, [sp, #16]
    1234:	a8c37bfd 	ldp	x29, x30, [sp], #48
    1238:	d65f03c0 	ret
/home/zliu/ubuntu-optee-rpi3/RPi3_OPTEE_3.1/optee_os/lib/libutee/tee_api_objects.c:474
    123c:	aa0103e0 	mov	x0, x1
    1240:	94000b3c 	bl	3f30 <utee_cryp_obj_close>
/home/zliu/ubuntu-optee-rpi3/RPi3_OPTEE_3.1/optee_os/lib/libutee/tee_api_objects.c:475
    1244:	34ffff60 	cbz	w0, 1230 <TEE_CreatePersistentObject+0x44>
/home/zliu/ubuntu-optee-rpi3/RPi3_OPTEE_3.1/optee_os/lib/libutee/tee_api_objects.c:481
    1248:	129ffee1 	mov	w1, #0xffff0008            	// #-65528
    124c:	6b01001f 	cmp	w0, w1
    1250:	129fff81 	mov	w1, #0xffff0003            	// #-65533
    1254:	7a411004 	ccmp	w0, w1, #0x4, ne  // ne = any
    1258:	54fffec0 	b.eq	1230 <TEE_CreatePersistentObject+0x44>  // b.none
/home/zliu/ubuntu-optee-rpi3/RPi3_OPTEE_3.1/optee_os/lib/libutee/tee_api_objects.c:483
    125c:	129ffe61 	mov	w1, #0xffff000c            	// #-65524
    1260:	6b01001f 	cmp	w0, w1
    1264:	1299f7c1 	mov	w1, #0xffff3041            	// #-53183
    1268:	7a411004 	ccmp	w0, w1, #0x4, ne  // ne = any
    126c:	54fffe20 	b.eq	1230 <TEE_CreatePersistentObject+0x44>  // b.none
/home/zliu/ubuntu-optee-rpi3/RPi3_OPTEE_3.1/optee_os/lib/libutee/tee_api_objects.c:485
    1270:	121e7802 	and	w2, w0, #0xfffffffd
    1274:	52800021 	mov	w1, #0x1                   	// #1
    1278:	72be0201 	movk	w1, #0xf010, lsl #16
    127c:	6b01005f 	cmp	w2, w1
    1280:	54fffd80 	b.eq	1230 <TEE_CreatePersistentObject+0x44>  // b.none
/home/zliu/ubuntu-optee-rpi3/RPi3_OPTEE_3.1/optee_os/lib/libutee/tee_api_objects.c:488
    1284:	94000a24 	bl	3b14 <TEE_Panic>
/home/zliu/ubuntu-optee-rpi3/RPi3_OPTEE_3.1/optee_os/lib/libutee/tee_api_objects.c:490
    1288:	52800000 	mov	w0, #0x0                   	// #0
    128c:	17ffffe9 	b	1230 <TEE_CreatePersistentObject+0x44>
/home/zliu/ubuntu-optee-rpi3/RPi3_OPTEE_3.1/optee_os/lib/libutee/tee_api_objects.c:479
    1290:	b4fffdd3 	cbz	x19, 1248 <TEE_CreatePersistentObject+0x5c>
/home/zliu/ubuntu-optee-rpi3/RPi3_OPTEE_3.1/optee_os/lib/libutee/tee_api_objects.c:480
    1294:	f900027f 	str	xzr, [x19]
    1298:	17ffffec 	b	1248 <TEE_CreatePersistentObject+0x5c>
/home/zliu/ubuntu-optee-rpi3/RPi3_OPTEE_3.1/optee_os/lib/libutee/tee_api_objects.c:458
    129c:	129ffee0 	mov	w0, #0xffff0008            	// #-65528
/home/zliu/ubuntu-optee-rpi3/RPi3_OPTEE_3.1/optee_os/lib/libutee/tee_api_objects.c:479
    12a0:	b5ffffa7 	cbnz	x7, 1294 <TEE_CreatePersistentObject+0xa8>
    12a4:	17ffffe3 	b	1230 <TEE_CreatePersistentObject+0x44>
/home/zliu/ubuntu-optee-rpi3/RPi3_OPTEE_3.1/optee_os/lib/libutee/tee_api_objects.c:463
    12a8:	129fff20 	mov	w0, #0xffff0006            	// #-65530
/home/zliu/ubuntu-optee-rpi3/RPi3_OPTEE_3.1/optee_os/lib/libutee/tee_api_objects.c:479
    12ac:	b5ffff47 	cbnz	x7, 1294 <TEE_CreatePersistentObject+0xa8>
    12b0:	17ffffeb 	b	125c <TEE_CreatePersistentObject+0x70>

00000000000012b4 <TEE_CloseAndDeletePersistentObject1>:
TEE_CloseAndDeletePersistentObject1():
/home/zliu/ubuntu-optee-rpi3/RPi3_OPTEE_3.1/optee_os/lib/libutee/tee_api_objects.c:513
    12b4:	a9be7bfd 	stp	x29, x30, [sp, #-32]!
    12b8:	910003fd 	mov	x29, sp
    12bc:	a90153f3 	stp	x19, x20, [sp, #16]
    12c0:	52800074 	mov	w20, #0x3                   	// #3
    12c4:	72be0214 	movk	w20, #0xf010, lsl #16
/home/zliu/ubuntu-optee-rpi3/RPi3_OPTEE_3.1/optee_os/lib/libutee/tee_api_objects.c:517
    12c8:	2a1403f3 	mov	w19, w20
/home/zliu/ubuntu-optee-rpi3/RPi3_OPTEE_3.1/optee_os/lib/libutee/tee_api_objects.c:516
    12cc:	b40000e0 	cbz	x0, 12e8 <TEE_CloseAndDeletePersistentObject1+0x34>
/home/zliu/ubuntu-optee-rpi3/RPi3_OPTEE_3.1/optee_os/lib/libutee/tee_api_objects.c:519
    12d0:	94000b45 	bl	3fe4 <utee_storage_obj_del>
/home/zliu/ubuntu-optee-rpi3/RPi3_OPTEE_3.1/optee_os/lib/libutee/tee_api_objects.c:521
    12d4:	7100001f 	cmp	w0, #0x0
/home/zliu/ubuntu-optee-rpi3/RPi3_OPTEE_3.1/optee_os/lib/libutee/tee_api_objects.c:519
    12d8:	2a0003f3 	mov	w19, w0
/home/zliu/ubuntu-optee-rpi3/RPi3_OPTEE_3.1/optee_os/lib/libutee/tee_api_objects.c:521
    12dc:	7a541004 	ccmp	w0, w20, #0x4, ne  // ne = any
    12e0:	54000040 	b.eq	12e8 <TEE_CloseAndDeletePersistentObject1+0x34>  // b.none
/home/zliu/ubuntu-optee-rpi3/RPi3_OPTEE_3.1/optee_os/lib/libutee/tee_api_objects.c:522
    12e4:	94000a0c 	bl	3b14 <TEE_Panic>
/home/zliu/ubuntu-optee-rpi3/RPi3_OPTEE_3.1/optee_os/lib/libutee/tee_api_objects.c:525
    12e8:	2a1303e0 	mov	w0, w19
    12ec:	a94153f3 	ldp	x19, x20, [sp, #16]
    12f0:	a8c27bfd 	ldp	x29, x30, [sp], #32
    12f4:	d65f03c0 	ret

00000000000012f8 <TEE_CloseAndDeletePersistentObject>:
TEE_CloseAndDeletePersistentObject():
/home/zliu/ubuntu-optee-rpi3/RPi3_OPTEE_3.1/optee_os/lib/libutee/tee_api_objects.c:503
    12f8:	b4000140 	cbz	x0, 1320 <TEE_CloseAndDeletePersistentObject+0x28>
/home/zliu/ubuntu-optee-rpi3/RPi3_OPTEE_3.1/optee_os/lib/libutee/tee_api_objects.c:500
    12fc:	a9bf7bfd 	stp	x29, x30, [sp, #-16]!
    1300:	910003fd 	mov	x29, sp
/home/zliu/ubuntu-optee-rpi3/RPi3_OPTEE_3.1/optee_os/lib/libutee/tee_api_objects.c:506
    1304:	97ffffec 	bl	12b4 <TEE_CloseAndDeletePersistentObject1>
/home/zliu/ubuntu-optee-rpi3/RPi3_OPTEE_3.1/optee_os/lib/libutee/tee_api_objects.c:508
    1308:	34000080 	cbz	w0, 1318 <TEE_CloseAndDeletePersistentObject+0x20>
/home/zliu/ubuntu-optee-rpi3/RPi3_OPTEE_3.1/optee_os/lib/libutee/tee_api_objects.c:510
    130c:	a8c17bfd 	ldp	x29, x30, [sp], #16
/home/zliu/ubuntu-optee-rpi3/RPi3_OPTEE_3.1/optee_os/lib/libutee/tee_api_objects.c:509
    1310:	52800000 	mov	w0, #0x0                   	// #0
    1314:	14000a00 	b	3b14 <TEE_Panic>
/home/zliu/ubuntu-optee-rpi3/RPi3_OPTEE_3.1/optee_os/lib/libutee/tee_api_objects.c:510
    1318:	a8c17bfd 	ldp	x29, x30, [sp], #16
    131c:	d65f03c0 	ret
    1320:	d65f03c0 	ret

0000000000001324 <TEE_RenamePersistentObject>:
TEE_RenamePersistentObject():
/home/zliu/ubuntu-optee-rpi3/RPi3_OPTEE_3.1/optee_os/lib/libutee/tee_api_objects.c:531
    1324:	a9be7bfd 	stp	x29, x30, [sp, #-32]!
    1328:	910003fd 	mov	x29, sp
    132c:	f9000bf3 	str	x19, [sp, #16]
/home/zliu/ubuntu-optee-rpi3/RPi3_OPTEE_3.1/optee_os/lib/libutee/tee_api_objects.c:535
    1330:	129ffef3 	mov	w19, #0xffff0008            	// #-65528
/home/zliu/ubuntu-optee-rpi3/RPi3_OPTEE_3.1/optee_os/lib/libutee/tee_api_objects.c:534
    1334:	b4000100 	cbz	x0, 1354 <TEE_RenamePersistentObject+0x30>
/home/zliu/ubuntu-optee-rpi3/RPi3_OPTEE_3.1/optee_os/lib/libutee/tee_api_objects.c:544
    1338:	7101005f 	cmp	w2, #0x40
/home/zliu/ubuntu-optee-rpi3/RPi3_OPTEE_3.1/optee_os/lib/libutee/tee_api_objects.c:545
    133c:	129fff33 	mov	w19, #0xffff0006            	// #-65530
/home/zliu/ubuntu-optee-rpi3/RPi3_OPTEE_3.1/optee_os/lib/libutee/tee_api_objects.c:544
    1340:	fa409824 	ccmp	x1, #0x0, #0x4, ls  // ls = plast
    1344:	54000080 	b.eq	1354 <TEE_RenamePersistentObject+0x30>  // b.none
/home/zliu/ubuntu-optee-rpi3/RPi3_OPTEE_3.1/optee_os/lib/libutee/tee_api_objects.c:549
    1348:	2a0203e2 	mov	w2, w2
    134c:	94000b29 	bl	3ff0 <utee_storage_obj_rename>
    1350:	2a0003f3 	mov	w19, w0
/home/zliu/ubuntu-optee-rpi3/RPi3_OPTEE_3.1/optee_os/lib/libutee/tee_api_objects.c:553
    1354:	7100027f 	cmp	w19, #0x0
    1358:	129fff80 	mov	w0, #0xffff0003            	// #-65533
    135c:	7a401264 	ccmp	w19, w0, #0x4, ne  // ne = any
    1360:	54000100 	b.eq	1380 <TEE_RenamePersistentObject+0x5c>  // b.none
/home/zliu/ubuntu-optee-rpi3/RPi3_OPTEE_3.1/optee_os/lib/libutee/tee_api_objects.c:555
    1364:	121e7a61 	and	w1, w19, #0xfffffffd
    1368:	52800020 	mov	w0, #0x1                   	// #1
    136c:	72be0200 	movk	w0, #0xf010, lsl #16
    1370:	6b00003f 	cmp	w1, w0
    1374:	54000060 	b.eq	1380 <TEE_RenamePersistentObject+0x5c>  // b.none
/home/zliu/ubuntu-optee-rpi3/RPi3_OPTEE_3.1/optee_os/lib/libutee/tee_api_objects.c:557
    1378:	2a1303e0 	mov	w0, w19
    137c:	940009e6 	bl	3b14 <TEE_Panic>
/home/zliu/ubuntu-optee-rpi3/RPi3_OPTEE_3.1/optee_os/lib/libutee/tee_api_objects.c:560
    1380:	2a1303e0 	mov	w0, w19
    1384:	f9400bf3 	ldr	x19, [sp, #16]
    1388:	a8c27bfd 	ldp	x29, x30, [sp], #32
    138c:	d65f03c0 	ret

0000000000001390 <TEE_AllocatePersistentObjectEnumerator>:
TEE_AllocatePersistentObjectEnumerator():
/home/zliu/ubuntu-optee-rpi3/RPi3_OPTEE_3.1/optee_os/lib/libutee/tee_api_objects.c:564
    1390:	a9bd7bfd 	stp	x29, x30, [sp, #-48]!
    1394:	910003fd 	mov	x29, sp
    1398:	a90153f3 	stp	x19, x20, [sp, #16]
/home/zliu/ubuntu-optee-rpi3/RPi3_OPTEE_3.1/optee_os/lib/libutee/tee_api_objects.c:569
    139c:	129fff33 	mov	w19, #0xffff0006            	// #-65530
/home/zliu/ubuntu-optee-rpi3/RPi3_OPTEE_3.1/optee_os/lib/libutee/tee_api_objects.c:568
    13a0:	b40001e0 	cbz	x0, 13dc <TEE_AllocatePersistentObjectEnumerator+0x4c>
    13a4:	aa0003f4 	mov	x20, x0
/home/zliu/ubuntu-optee-rpi3/RPi3_OPTEE_3.1/optee_os/lib/libutee/tee_api_objects.c:571
    13a8:	9100b3a0 	add	x0, x29, #0x2c
    13ac:	94000b14 	bl	3ffc <utee_storage_alloc_enum>
    13b0:	2a0003f3 	mov	w19, w0
/home/zliu/ubuntu-optee-rpi3/RPi3_OPTEE_3.1/optee_os/lib/libutee/tee_api_objects.c:573
    13b4:	34000040 	cbz	w0, 13bc <TEE_AllocatePersistentObjectEnumerator+0x2c>
/home/zliu/ubuntu-optee-rpi3/RPi3_OPTEE_3.1/optee_os/lib/libutee/tee_api_objects.c:574
    13b8:	b9002fbf 	str	wzr, [x29, #44]
/home/zliu/ubuntu-optee-rpi3/RPi3_OPTEE_3.1/optee_os/lib/libutee/tee_api_objects.c:576
    13bc:	b9402fa0 	ldr	w0, [x29, #44]
/home/zliu/ubuntu-optee-rpi3/RPi3_OPTEE_3.1/optee_os/lib/libutee/tee_api_objects.c:578
    13c0:	7100027f 	cmp	w19, #0x0
/home/zliu/ubuntu-optee-rpi3/RPi3_OPTEE_3.1/optee_os/lib/libutee/tee_api_objects.c:576
    13c4:	f9000280 	str	x0, [x20]
/home/zliu/ubuntu-optee-rpi3/RPi3_OPTEE_3.1/optee_os/lib/libutee/tee_api_objects.c:578
    13c8:	129fff80 	mov	w0, #0xffff0003            	// #-65533
    13cc:	7a401264 	ccmp	w19, w0, #0x4, ne  // ne = any
    13d0:	54000060 	b.eq	13dc <TEE_AllocatePersistentObjectEnumerator+0x4c>  // b.none
/home/zliu/ubuntu-optee-rpi3/RPi3_OPTEE_3.1/optee_os/lib/libutee/tee_api_objects.c:580
    13d4:	2a1303e0 	mov	w0, w19
    13d8:	940009cf 	bl	3b14 <TEE_Panic>
/home/zliu/ubuntu-optee-rpi3/RPi3_OPTEE_3.1/optee_os/lib/libutee/tee_api_objects.c:583
    13dc:	2a1303e0 	mov	w0, w19
    13e0:	a94153f3 	ldp	x19, x20, [sp, #16]
    13e4:	a8c37bfd 	ldp	x29, x30, [sp], #48
    13e8:	d65f03c0 	ret

00000000000013ec <TEE_FreePersistentObjectEnumerator>:
TEE_FreePersistentObjectEnumerator():
/home/zliu/ubuntu-optee-rpi3/RPi3_OPTEE_3.1/optee_os/lib/libutee/tee_api_objects.c:589
    13ec:	b4000120 	cbz	x0, 1410 <TEE_FreePersistentObjectEnumerator+0x24>
/home/zliu/ubuntu-optee-rpi3/RPi3_OPTEE_3.1/optee_os/lib/libutee/tee_api_objects.c:586
    13f0:	a9bf7bfd 	stp	x29, x30, [sp, #-16]!
    13f4:	910003fd 	mov	x29, sp
/home/zliu/ubuntu-optee-rpi3/RPi3_OPTEE_3.1/optee_os/lib/libutee/tee_api_objects.c:592
    13f8:	94000b04 	bl	4008 <utee_storage_free_enum>
/home/zliu/ubuntu-optee-rpi3/RPi3_OPTEE_3.1/optee_os/lib/libutee/tee_api_objects.c:594
    13fc:	34000060 	cbz	w0, 1408 <TEE_FreePersistentObjectEnumerator+0x1c>
/home/zliu/ubuntu-optee-rpi3/RPi3_OPTEE_3.1/optee_os/lib/libutee/tee_api_objects.c:596
    1400:	a8c17bfd 	ldp	x29, x30, [sp], #16
/home/zliu/ubuntu-optee-rpi3/RPi3_OPTEE_3.1/optee_os/lib/libutee/tee_api_objects.c:595
    1404:	140009c4 	b	3b14 <TEE_Panic>
/home/zliu/ubuntu-optee-rpi3/RPi3_OPTEE_3.1/optee_os/lib/libutee/tee_api_objects.c:596
    1408:	a8c17bfd 	ldp	x29, x30, [sp], #16
    140c:	d65f03c0 	ret
    1410:	d65f03c0 	ret

0000000000001414 <TEE_ResetPersistentObjectEnumerator>:
TEE_ResetPersistentObjectEnumerator():
/home/zliu/ubuntu-optee-rpi3/RPi3_OPTEE_3.1/optee_os/lib/libutee/tee_api_objects.c:602
    1414:	b4000120 	cbz	x0, 1438 <TEE_ResetPersistentObjectEnumerator+0x24>
/home/zliu/ubuntu-optee-rpi3/RPi3_OPTEE_3.1/optee_os/lib/libutee/tee_api_objects.c:599
    1418:	a9bf7bfd 	stp	x29, x30, [sp, #-16]!
    141c:	910003fd 	mov	x29, sp
/home/zliu/ubuntu-optee-rpi3/RPi3_OPTEE_3.1/optee_os/lib/libutee/tee_api_objects.c:605
    1420:	94000afd 	bl	4014 <utee_storage_reset_enum>
/home/zliu/ubuntu-optee-rpi3/RPi3_OPTEE_3.1/optee_os/lib/libutee/tee_api_objects.c:607
    1424:	34000060 	cbz	w0, 1430 <TEE_ResetPersistentObjectEnumerator+0x1c>
/home/zliu/ubuntu-optee-rpi3/RPi3_OPTEE_3.1/optee_os/lib/libutee/tee_api_objects.c:609
    1428:	a8c17bfd 	ldp	x29, x30, [sp], #16
/home/zliu/ubuntu-optee-rpi3/RPi3_OPTEE_3.1/optee_os/lib/libutee/tee_api_objects.c:608
    142c:	140009ba 	b	3b14 <TEE_Panic>
/home/zliu/ubuntu-optee-rpi3/RPi3_OPTEE_3.1/optee_os/lib/libutee/tee_api_objects.c:609
    1430:	a8c17bfd 	ldp	x29, x30, [sp], #16
    1434:	d65f03c0 	ret
    1438:	d65f03c0 	ret

000000000000143c <TEE_StartPersistentObjectEnumerator>:
TEE_StartPersistentObjectEnumerator():
/home/zliu/ubuntu-optee-rpi3/RPi3_OPTEE_3.1/optee_os/lib/libutee/tee_api_objects.c:614
    143c:	a9be7bfd 	stp	x29, x30, [sp, #-32]!
/home/zliu/ubuntu-optee-rpi3/RPi3_OPTEE_3.1/optee_os/lib/libutee/tee_api_objects.c:617
    1440:	2a0103e1 	mov	w1, w1
/home/zliu/ubuntu-optee-rpi3/RPi3_OPTEE_3.1/optee_os/lib/libutee/tee_api_objects.c:614
    1444:	910003fd 	mov	x29, sp
    1448:	f9000bf3 	str	x19, [sp, #16]
/home/zliu/ubuntu-optee-rpi3/RPi3_OPTEE_3.1/optee_os/lib/libutee/tee_api_objects.c:617
    144c:	94000af5 	bl	4020 <utee_storage_start_enum>
/home/zliu/ubuntu-optee-rpi3/RPi3_OPTEE_3.1/optee_os/lib/libutee/tee_api_objects.c:620
    1450:	7100001f 	cmp	w0, #0x0
    1454:	129ffee1 	mov	w1, #0xffff0008            	// #-65528
/home/zliu/ubuntu-optee-rpi3/RPi3_OPTEE_3.1/optee_os/lib/libutee/tee_api_objects.c:617
    1458:	2a0003f3 	mov	w19, w0
/home/zliu/ubuntu-optee-rpi3/RPi3_OPTEE_3.1/optee_os/lib/libutee/tee_api_objects.c:620
    145c:	7a411004 	ccmp	w0, w1, #0x4, ne  // ne = any
    1460:	540000e0 	b.eq	147c <TEE_StartPersistentObjectEnumerator+0x40>  // b.none
/home/zliu/ubuntu-optee-rpi3/RPi3_OPTEE_3.1/optee_os/lib/libutee/tee_api_objects.c:622
    1464:	121e7802 	and	w2, w0, #0xfffffffd
    1468:	52800021 	mov	w1, #0x1                   	// #1
    146c:	72be0201 	movk	w1, #0xf010, lsl #16
    1470:	6b01005f 	cmp	w2, w1
    1474:	54000040 	b.eq	147c <TEE_StartPersistentObjectEnumerator+0x40>  // b.none
/home/zliu/ubuntu-optee-rpi3/RPi3_OPTEE_3.1/optee_os/lib/libutee/tee_api_objects.c:624
    1478:	940009a7 	bl	3b14 <TEE_Panic>
/home/zliu/ubuntu-optee-rpi3/RPi3_OPTEE_3.1/optee_os/lib/libutee/tee_api_objects.c:627
    147c:	2a1303e0 	mov	w0, w19
    1480:	f9400bf3 	ldr	x19, [sp, #16]
    1484:	a8c27bfd 	ldp	x29, x30, [sp], #32
    1488:	d65f03c0 	ret

000000000000148c <TEE_GetNextPersistentObject>:
TEE_GetNextPersistentObject():
/home/zliu/ubuntu-optee-rpi3/RPi3_OPTEE_3.1/optee_os/lib/libutee/tee_api_objects.c:632
    148c:	a9bb7bfd 	stp	x29, x30, [sp, #-80]!
/home/zliu/ubuntu-optee-rpi3/RPi3_OPTEE_3.1/optee_os/lib/libutee/tee_api_objects.c:643
    1490:	f100005f 	cmp	x2, #0x0
    1494:	fa401864 	ccmp	x3, #0x0, #0x4, ne  // ne = any
/home/zliu/ubuntu-optee-rpi3/RPi3_OPTEE_3.1/optee_os/lib/libutee/tee_api_objects.c:632
    1498:	910003fd 	mov	x29, sp
    149c:	a90153f3 	stp	x19, x20, [sp, #16]
    14a0:	129fff33 	mov	w19, #0xffff0006            	// #-65530
/home/zliu/ubuntu-optee-rpi3/RPi3_OPTEE_3.1/optee_os/lib/libutee/tee_api_objects.c:643
    14a4:	54000180 	b.eq	14d4 <TEE_GetNextPersistentObject+0x48>  // b.none
    14a8:	aa0303f4 	mov	x20, x3
/home/zliu/ubuntu-optee-rpi3/RPi3_OPTEE_3.1/optee_os/lib/libutee/tee_api_objects.c:652
    14ac:	910143a3 	add	x3, x29, #0x50
/home/zliu/ubuntu-optee-rpi3/RPi3_OPTEE_3.1/optee_os/lib/libutee/tee_api_objects.c:651
    14b0:	f100003f 	cmp	x1, #0x0
/home/zliu/ubuntu-optee-rpi3/RPi3_OPTEE_3.1/optee_os/lib/libutee/tee_api_objects.c:652
    14b4:	b9400284 	ldr	w4, [x20]
    14b8:	f81d8c64 	str	x4, [x3, #-40]!
/home/zliu/ubuntu-optee-rpi3/RPi3_OPTEE_3.1/optee_os/lib/libutee/tee_api_objects.c:653
    14bc:	9100c3a4 	add	x4, x29, #0x30
    14c0:	9a810081 	csel	x1, x4, x1, eq  // eq = none
    14c4:	94000ada 	bl	402c <utee_storage_next_enum>
    14c8:	2a0003f3 	mov	w19, w0
/home/zliu/ubuntu-optee-rpi3/RPi3_OPTEE_3.1/optee_os/lib/libutee/tee_api_objects.c:655
    14cc:	f94017a0 	ldr	x0, [x29, #40]
    14d0:	b9000280 	str	w0, [x20]
/home/zliu/ubuntu-optee-rpi3/RPi3_OPTEE_3.1/optee_os/lib/libutee/tee_api_objects.c:658
    14d4:	7100027f 	cmp	w19, #0x0
    14d8:	129ffee0 	mov	w0, #0xffff0008            	// #-65528
    14dc:	7a401264 	ccmp	w19, w0, #0x4, ne  // ne = any
    14e0:	54000100 	b.eq	1500 <TEE_GetNextPersistentObject+0x74>  // b.none
/home/zliu/ubuntu-optee-rpi3/RPi3_OPTEE_3.1/optee_os/lib/libutee/tee_api_objects.c:660
    14e4:	121e7a61 	and	w1, w19, #0xfffffffd
    14e8:	52800020 	mov	w0, #0x1                   	// #1
    14ec:	72be0200 	movk	w0, #0xf010, lsl #16
    14f0:	6b00003f 	cmp	w1, w0
    14f4:	54000060 	b.eq	1500 <TEE_GetNextPersistentObject+0x74>  // b.none
/home/zliu/ubuntu-optee-rpi3/RPi3_OPTEE_3.1/optee_os/lib/libutee/tee_api_objects.c:662
    14f8:	2a1303e0 	mov	w0, w19
    14fc:	94000986 	bl	3b14 <TEE_Panic>
/home/zliu/ubuntu-optee-rpi3/RPi3_OPTEE_3.1/optee_os/lib/libutee/tee_api_objects.c:665
    1500:	2a1303e0 	mov	w0, w19
    1504:	a94153f3 	ldp	x19, x20, [sp, #16]
    1508:	a8c57bfd 	ldp	x29, x30, [sp], #80
    150c:	d65f03c0 	ret

0000000000001510 <TEE_ReadObjectData>:
TEE_ReadObjectData():
/home/zliu/ubuntu-optee-rpi3/RPi3_OPTEE_3.1/optee_os/lib/libutee/tee_api_objects.c:671
    1510:	a9bd7bfd 	stp	x29, x30, [sp, #-48]!
    1514:	910003fd 	mov	x29, sp
    1518:	a90153f3 	stp	x19, x20, [sp, #16]
    151c:	129fff33 	mov	w19, #0xffff0006            	// #-65530
/home/zliu/ubuntu-optee-rpi3/RPi3_OPTEE_3.1/optee_os/lib/libutee/tee_api_objects.c:675
    1520:	b4000140 	cbz	x0, 1548 <TEE_ReadObjectData+0x38>
    1524:	aa0303f4 	mov	x20, x3
/home/zliu/ubuntu-optee-rpi3/RPi3_OPTEE_3.1/optee_os/lib/libutee/tee_api_objects.c:680
    1528:	9100c3a3 	add	x3, x29, #0x30
/home/zliu/ubuntu-optee-rpi3/RPi3_OPTEE_3.1/optee_os/lib/libutee/tee_api_objects.c:681
    152c:	2a0203e2 	mov	w2, w2
/home/zliu/ubuntu-optee-rpi3/RPi3_OPTEE_3.1/optee_os/lib/libutee/tee_api_objects.c:680
    1530:	b9400284 	ldr	w4, [x20]
    1534:	f81f8c64 	str	x4, [x3, #-8]!
/home/zliu/ubuntu-optee-rpi3/RPi3_OPTEE_3.1/optee_os/lib/libutee/tee_api_objects.c:681
    1538:	94000ac0 	bl	4038 <utee_storage_obj_read>
    153c:	2a0003f3 	mov	w19, w0
/home/zliu/ubuntu-optee-rpi3/RPi3_OPTEE_3.1/optee_os/lib/libutee/tee_api_objects.c:683
    1540:	f94017a0 	ldr	x0, [x29, #40]
    1544:	b9000280 	str	w0, [x20]
/home/zliu/ubuntu-optee-rpi3/RPi3_OPTEE_3.1/optee_os/lib/libutee/tee_api_objects.c:687
    1548:	121e7a60 	and	w0, w19, #0xfffffffd
    154c:	7100027f 	cmp	w19, #0x0
    1550:	52800021 	mov	w1, #0x1                   	// #1
    1554:	72be0201 	movk	w1, #0xf010, lsl #16
    1558:	7a411004 	ccmp	w0, w1, #0x4, ne  // ne = any
    155c:	54000060 	b.eq	1568 <TEE_ReadObjectData+0x58>  // b.none
/home/zliu/ubuntu-optee-rpi3/RPi3_OPTEE_3.1/optee_os/lib/libutee/tee_api_objects.c:689
    1560:	2a1303e0 	mov	w0, w19
    1564:	9400096c 	bl	3b14 <TEE_Panic>
/home/zliu/ubuntu-optee-rpi3/RPi3_OPTEE_3.1/optee_os/lib/libutee/tee_api_objects.c:692
    1568:	2a1303e0 	mov	w0, w19
    156c:	a94153f3 	ldp	x19, x20, [sp, #16]
    1570:	a8c37bfd 	ldp	x29, x30, [sp], #48
    1574:	d65f03c0 	ret

0000000000001578 <TEE_WriteObjectData>:
TEE_WriteObjectData():
/home/zliu/ubuntu-optee-rpi3/RPi3_OPTEE_3.1/optee_os/lib/libutee/tee_api_objects.c:696
    1578:	a9be7bfd 	stp	x29, x30, [sp, #-32]!
    157c:	910003fd 	mov	x29, sp
    1580:	f9000bf3 	str	x19, [sp, #16]
    1584:	129fff33 	mov	w19, #0xffff0006            	// #-65530
/home/zliu/ubuntu-optee-rpi3/RPi3_OPTEE_3.1/optee_os/lib/libutee/tee_api_objects.c:699
    1588:	b4000080 	cbz	x0, 1598 <TEE_WriteObjectData+0x20>
/home/zliu/ubuntu-optee-rpi3/RPi3_OPTEE_3.1/optee_os/lib/libutee/tee_api_objects.c:709
    158c:	2a0203e2 	mov	w2, w2
    1590:	94000aad 	bl	4044 <utee_storage_obj_write>
    1594:	2a0003f3 	mov	w19, w0
/home/zliu/ubuntu-optee-rpi3/RPi3_OPTEE_3.1/optee_os/lib/libutee/tee_api_objects.c:712
    1598:	7100027f 	cmp	w19, #0x0
    159c:	1299f7c0 	mov	w0, #0xffff3041            	// #-53183
    15a0:	7a401264 	ccmp	w19, w0, #0x4, ne  // ne = any
    15a4:	54000140 	b.eq	15cc <TEE_WriteObjectData+0x54>  // b.none
/home/zliu/ubuntu-optee-rpi3/RPi3_OPTEE_3.1/optee_os/lib/libutee/tee_api_objects.c:715
    15a8:	121e7a61 	and	w1, w19, #0xfffffffd
    15ac:	52800020 	mov	w0, #0x1                   	// #1
    15b0:	72be0200 	movk	w0, #0xf010, lsl #16
    15b4:	6b00003f 	cmp	w1, w0
    15b8:	1299fe00 	mov	w0, #0xffff300f            	// #-53233
    15bc:	7a401264 	ccmp	w19, w0, #0x4, ne  // ne = any
    15c0:	54000060 	b.eq	15cc <TEE_WriteObjectData+0x54>  // b.none
/home/zliu/ubuntu-optee-rpi3/RPi3_OPTEE_3.1/optee_os/lib/libutee/tee_api_objects.c:717
    15c4:	2a1303e0 	mov	w0, w19
    15c8:	94000953 	bl	3b14 <TEE_Panic>
/home/zliu/ubuntu-optee-rpi3/RPi3_OPTEE_3.1/optee_os/lib/libutee/tee_api_objects.c:720
    15cc:	2a1303e0 	mov	w0, w19
    15d0:	f9400bf3 	ldr	x19, [sp, #16]
    15d4:	a8c27bfd 	ldp	x29, x30, [sp], #32
    15d8:	d65f03c0 	ret

00000000000015dc <TEE_TruncateObjectData>:
TEE_TruncateObjectData():
/home/zliu/ubuntu-optee-rpi3/RPi3_OPTEE_3.1/optee_os/lib/libutee/tee_api_objects.c:723
    15dc:	a9be7bfd 	stp	x29, x30, [sp, #-32]!
    15e0:	910003fd 	mov	x29, sp
    15e4:	f9000bf3 	str	x19, [sp, #16]
    15e8:	129fff33 	mov	w19, #0xffff0006            	// #-65530
/home/zliu/ubuntu-optee-rpi3/RPi3_OPTEE_3.1/optee_os/lib/libutee/tee_api_objects.c:726
    15ec:	b4000080 	cbz	x0, 15fc <TEE_TruncateObjectData+0x20>
/home/zliu/ubuntu-optee-rpi3/RPi3_OPTEE_3.1/optee_os/lib/libutee/tee_api_objects.c:731
    15f0:	2a0103e1 	mov	w1, w1
    15f4:	94000a97 	bl	4050 <utee_storage_obj_trunc>
    15f8:	2a0003f3 	mov	w19, w0
/home/zliu/ubuntu-optee-rpi3/RPi3_OPTEE_3.1/optee_os/lib/libutee/tee_api_objects.c:734
    15fc:	7100027f 	cmp	w19, #0x0
    1600:	1299f7c0 	mov	w0, #0xffff3041            	// #-53183
    1604:	7a401264 	ccmp	w19, w0, #0x4, ne  // ne = any
    1608:	54000100 	b.eq	1628 <TEE_TruncateObjectData+0x4c>  // b.none
/home/zliu/ubuntu-optee-rpi3/RPi3_OPTEE_3.1/optee_os/lib/libutee/tee_api_objects.c:736
    160c:	121e7a61 	and	w1, w19, #0xfffffffd
    1610:	52800020 	mov	w0, #0x1                   	// #1
    1614:	72be0200 	movk	w0, #0xf010, lsl #16
    1618:	6b00003f 	cmp	w1, w0
    161c:	54000060 	b.eq	1628 <TEE_TruncateObjectData+0x4c>  // b.none
/home/zliu/ubuntu-optee-rpi3/RPi3_OPTEE_3.1/optee_os/lib/libutee/tee_api_objects.c:738
    1620:	2a1303e0 	mov	w0, w19
    1624:	9400093c 	bl	3b14 <TEE_Panic>
/home/zliu/ubuntu-optee-rpi3/RPi3_OPTEE_3.1/optee_os/lib/libutee/tee_api_objects.c:741
    1628:	2a1303e0 	mov	w0, w19
    162c:	f9400bf3 	ldr	x19, [sp, #16]
    1630:	a8c27bfd 	ldp	x29, x30, [sp], #32
    1634:	d65f03c0 	ret

0000000000001638 <TEE_SeekObjectData>:
TEE_SeekObjectData():
/home/zliu/ubuntu-optee-rpi3/RPi3_OPTEE_3.1/optee_os/lib/libutee/tee_api_objects.c:745
    1638:	a9bb7bfd 	stp	x29, x30, [sp, #-80]!
    163c:	910003fd 	mov	x29, sp
    1640:	a90153f3 	stp	x19, x20, [sp, #16]
/home/zliu/ubuntu-optee-rpi3/RPi3_OPTEE_3.1/optee_os/lib/libutee/tee_api_objects.c:750
    1644:	129fff33 	mov	w19, #0xffff0006            	// #-65530
/home/zliu/ubuntu-optee-rpi3/RPi3_OPTEE_3.1/optee_os/lib/libutee/tee_api_objects.c:745
    1648:	a9025bf5 	stp	x21, x22, [sp, #32]
/home/zliu/ubuntu-optee-rpi3/RPi3_OPTEE_3.1/optee_os/lib/libutee/tee_api_objects.c:749
    164c:	b40003e0 	cbz	x0, 16c8 <TEE_SeekObjectData+0x90>
    1650:	aa0003f6 	mov	x22, x0
    1654:	2a0103f4 	mov	w20, w1
    1658:	2a0203f5 	mov	w21, w2
/home/zliu/ubuntu-optee-rpi3/RPi3_OPTEE_3.1/optee_os/lib/libutee/tee_api_objects.c:754
    165c:	9100c3a1 	add	x1, x29, #0x30
    1660:	94000a28 	bl	3f00 <utee_cryp_obj_get_info>
    1664:	2a0003f3 	mov	w19, w0
/home/zliu/ubuntu-optee-rpi3/RPi3_OPTEE_3.1/optee_os/lib/libutee/tee_api_objects.c:755
    1668:	35000300 	cbnz	w0, 16c8 <TEE_SeekObjectData+0x90>
/home/zliu/ubuntu-optee-rpi3/RPi3_OPTEE_3.1/optee_os/lib/libutee/tee_api_objects.c:758
    166c:	710006bf 	cmp	w21, #0x1
    1670:	540000c0 	b.eq	1688 <TEE_SeekObjectData+0x50>  // b.none
    1674:	34000115 	cbz	w21, 1694 <TEE_SeekObjectData+0x5c>
    1678:	71000abf 	cmp	w21, #0x2
    167c:	54000180 	b.eq	16ac <TEE_SeekObjectData+0x74>  // b.none
/home/zliu/ubuntu-optee-rpi3/RPi3_OPTEE_3.1/optee_os/lib/libutee/tee_api_objects.c:784
    1680:	129ffef3 	mov	w19, #0xffff0008            	// #-65528
    1684:	14000011 	b	16c8 <TEE_SeekObjectData+0x90>
/home/zliu/ubuntu-optee-rpi3/RPi3_OPTEE_3.1/optee_os/lib/libutee/tee_api_objects.c:769
    1688:	b94047a0 	ldr	w0, [x29, #68]
/home/zliu/ubuntu-optee-rpi3/RPi3_OPTEE_3.1/optee_os/lib/libutee/tee_api_objects.c:766
    168c:	7100029f 	cmp	w20, #0x0
    1690:	5400014c 	b.gt	16b8 <TEE_SeekObjectData+0x80>
/home/zliu/ubuntu-optee-rpi3/RPi3_OPTEE_3.1/optee_os/lib/libutee/tee_api_objects.c:788
    1694:	2a1503e2 	mov	w2, w21
    1698:	2a1403e1 	mov	w1, w20
    169c:	aa1603e0 	mov	x0, x22
    16a0:	94000a6f 	bl	405c <utee_storage_obj_seek>
    16a4:	2a0003f3 	mov	w19, w0
    16a8:	14000008 	b	16c8 <TEE_SeekObjectData+0x90>
/home/zliu/ubuntu-optee-rpi3/RPi3_OPTEE_3.1/optee_os/lib/libutee/tee_api_objects.c:776
    16ac:	7100029f 	cmp	w20, #0x0
    16b0:	54ffff2d 	b.le	1694 <TEE_SeekObjectData+0x5c>
/home/zliu/ubuntu-optee-rpi3/RPi3_OPTEE_3.1/optee_os/lib/libutee/tee_api_objects.c:778 (discriminator 1)
    16b4:	b94043a0 	ldr	w0, [x29, #64]
    16b8:	0b000281 	add	w1, w20, w0
/home/zliu/ubuntu-optee-rpi3/RPi3_OPTEE_3.1/optee_os/lib/libutee/tee_api_objects.c:771 (discriminator 1)
    16bc:	1299fe13 	mov	w19, #0xffff300f            	// #-53233
/home/zliu/ubuntu-optee-rpi3/RPi3_OPTEE_3.1/optee_os/lib/libutee/tee_api_objects.c:776 (discriminator 1)
    16c0:	6b01001f 	cmp	w0, w1
    16c4:	54fffe89 	b.ls	1694 <TEE_SeekObjectData+0x5c>  // b.plast
/home/zliu/ubuntu-optee-rpi3/RPi3_OPTEE_3.1/optee_os/lib/libutee/tee_api_objects.c:791
    16c8:	7100027f 	cmp	w19, #0x0
    16cc:	1299fe00 	mov	w0, #0xffff300f            	// #-53233
    16d0:	7a401264 	ccmp	w19, w0, #0x4, ne  // ne = any
    16d4:	54000100 	b.eq	16f4 <TEE_SeekObjectData+0xbc>  // b.none
/home/zliu/ubuntu-optee-rpi3/RPi3_OPTEE_3.1/optee_os/lib/libutee/tee_api_objects.c:793
    16d8:	121e7a61 	and	w1, w19, #0xfffffffd
    16dc:	52800020 	mov	w0, #0x1                   	// #1
    16e0:	72be0200 	movk	w0, #0xf010, lsl #16
    16e4:	6b00003f 	cmp	w1, w0
    16e8:	54000060 	b.eq	16f4 <TEE_SeekObjectData+0xbc>  // b.none
/home/zliu/ubuntu-optee-rpi3/RPi3_OPTEE_3.1/optee_os/lib/libutee/tee_api_objects.c:795
    16ec:	2a1303e0 	mov	w0, w19
    16f0:	94000909 	bl	3b14 <TEE_Panic>
/home/zliu/ubuntu-optee-rpi3/RPi3_OPTEE_3.1/optee_os/lib/libutee/tee_api_objects.c:798
    16f4:	2a1303e0 	mov	w0, w19
    16f8:	a94153f3 	ldp	x19, x20, [sp, #16]
    16fc:	a9425bf5 	ldp	x21, x22, [sp, #32]
    1700:	a8c57bfd 	ldp	x29, x30, [sp], #80
    1704:	d65f03c0 	ret

0000000000001708 <TEE_FreeOperation>:
TEE_FreeOperation():
/home/zliu/ubuntu-optee-rpi3/RPi3_OPTEE_3.1/optee_os/lib/libutee/tee_api_operations.c:367
    1708:	a9be7bfd 	stp	x29, x30, [sp, #-32]!
    170c:	910003fd 	mov	x29, sp
    1710:	f9000bf3 	str	x19, [sp, #16]
    1714:	aa0003f3 	mov	x19, x0
/home/zliu/ubuntu-optee-rpi3/RPi3_OPTEE_3.1/optee_os/lib/libutee/tee_api_operations.c:370
    1718:	b5000060 	cbnz	x0, 1724 <TEE_FreeOperation+0x1c>
/home/zliu/ubuntu-optee-rpi3/RPi3_OPTEE_3.1/optee_os/lib/libutee/tee_api_operations.c:371
    171c:	52800000 	mov	w0, #0x0                   	// #0
    1720:	940008fd 	bl	3b14 <TEE_Panic>
/home/zliu/ubuntu-optee-rpi3/RPi3_OPTEE_3.1/optee_os/lib/libutee/tee_api_operations.c:378
    1724:	b9405a60 	ldr	w0, [x19, #88]
    1728:	940009e1 	bl	3eac <utee_cryp_state_free>
/home/zliu/ubuntu-optee-rpi3/RPi3_OPTEE_3.1/optee_os/lib/libutee/tee_api_operations.c:379
    172c:	34000040 	cbz	w0, 1734 <TEE_FreeOperation+0x2c>
/home/zliu/ubuntu-optee-rpi3/RPi3_OPTEE_3.1/optee_os/lib/libutee/tee_api_operations.c:380
    1730:	940008f9 	bl	3b14 <TEE_Panic>
/home/zliu/ubuntu-optee-rpi3/RPi3_OPTEE_3.1/optee_os/lib/libutee/tee_api_operations.c:382
    1734:	f9401e60 	ldr	x0, [x19, #56]
    1738:	97fffcc0 	bl	a38 <TEE_Free>
/home/zliu/ubuntu-optee-rpi3/RPi3_OPTEE_3.1/optee_os/lib/libutee/tee_api_operations.c:383
    173c:	aa1303e0 	mov	x0, x19
/home/zliu/ubuntu-optee-rpi3/RPi3_OPTEE_3.1/optee_os/lib/libutee/tee_api_operations.c:384
    1740:	f9400bf3 	ldr	x19, [sp, #16]
    1744:	a8c27bfd 	ldp	x29, x30, [sp], #32
/home/zliu/ubuntu-optee-rpi3/RPi3_OPTEE_3.1/optee_os/lib/libutee/tee_api_operations.c:383
    1748:	17fffcbc 	b	a38 <TEE_Free>

000000000000174c <TEE_AllocateOperation>:
TEE_AllocateOperation():
/home/zliu/ubuntu-optee-rpi3/RPi3_OPTEE_3.1/optee_os/lib/libutee/tee_api_operations.c:60
    174c:	a9b97bfd 	stp	x29, x30, [sp, #-112]!
    1750:	910003fd 	mov	x29, sp
    1754:	a90363f7 	stp	x23, x24, [sp, #48]
    1758:	2a0203f8 	mov	w24, w2
    175c:	a90153f3 	stp	x19, x20, [sp, #16]
    1760:	2a0303f7 	mov	w23, w3
    1764:	a9025bf5 	stp	x21, x22, [sp, #32]
    1768:	2a0103f3 	mov	w19, w1
    176c:	a9046bf9 	stp	x25, x26, [sp, #64]
    1770:	a90573fb 	stp	x27, x28, [sp, #80]
    1774:	f90037a0 	str	x0, [x29, #104]
/home/zliu/ubuntu-optee-rpi3/RPi3_OPTEE_3.1/optee_os/lib/libutee/tee_api_operations.c:69
    1778:	b5000040 	cbnz	x0, 1780 <TEE_AllocateOperation+0x34>
/home/zliu/ubuntu-optee-rpi3/RPi3_OPTEE_3.1/optee_os/lib/libutee/tee_api_operations.c:70
    177c:	940008e6 	bl	3b14 <TEE_Panic>
/home/zliu/ubuntu-optee-rpi3/RPi3_OPTEE_3.1/optee_os/lib/libutee/tee_api_operations.c:72
    1780:	52808200 	mov	w0, #0x410                 	// #1040
    1784:	72a20000 	movk	w0, #0x1000, lsl #16
    1788:	6b00027f 	cmp	w19, w0
    178c:	54002cc0 	b.eq	1d24 <TEE_AllocateOperation+0x5d8>  // b.none
/home/zliu/ubuntu-optee-rpi3/RPi3_OPTEE_3.1/optee_os/lib/libutee/tee_api_operations.c:76
    1790:	52882620 	mov	w0, #0x4131                	// #16689
    1794:	72ae0000 	movk	w0, #0x7000, lsl #16
    1798:	6b00027f 	cmp	w19, w0
    179c:	54000e60 	b.eq	1968 <TEE_AllocateOperation+0x21c>  // b.none
    17a0:	540007c8 	b.hi	1898 <TEE_AllocateOperation+0x14c>  // b.pmore
    17a4:	52842620 	mov	w0, #0x2131                	// #8497
    17a8:	72ae0000 	movk	w0, #0x7000, lsl #16
    17ac:	6b00027f 	cmp	w19, w0
    17b0:	54000aa0 	b.eq	1904 <TEE_AllocateOperation+0x1b8>  // b.none
    17b4:	54000568 	b.hi	1860 <TEE_AllocateOperation+0x114>  // b.pmore
    17b8:	52820820 	mov	w0, #0x1041                	// #4161
    17bc:	72ae0000 	movk	w0, #0x7000, lsl #16
    17c0:	6b00027f 	cmp	w19, w0
    17c4:	54000840 	b.eq	18cc <TEE_AllocateOperation+0x180>  // b.none
    17c8:	11400400 	add	w0, w0, #0x1, lsl #12
    17cc:	6b00027f 	cmp	w19, w0
    17d0:	54000d40 	b.eq	1978 <TEE_AllocateOperation+0x22c>  // b.none
/home/zliu/ubuntu-optee-rpi3/RPi3_OPTEE_3.1/optee_os/lib/libutee/tee_api_operations.c:131
    17d4:	52842620 	mov	w0, #0x2131                	// #8497
    17d8:	72ae0000 	movk	w0, #0x7000, lsl #16
    17dc:	6b00027f 	cmp	w19, w0
    17e0:	540009e0 	b.eq	191c <TEE_AllocateOperation+0x1d0>  // b.none
    17e4:	54001ae8 	b.hi	1b40 <TEE_AllocateOperation+0x3f4>  // b.pmore
    17e8:	5280a260 	mov	w0, #0x513                 	// #1299
    17ec:	72a60000 	movk	w0, #0x3000, lsl #16
    17f0:	6b00027f 	cmp	w19, w0
    17f4:	54001000 	b.eq	19f4 <TEE_AllocateOperation+0x2a8>  // b.none
    17f8:	54001208 	b.hi	1a38 <TEE_AllocateOperation+0x2ec>  // b.pmore
    17fc:	52806200 	mov	w0, #0x310                 	// #784
    1800:	72a20000 	movk	w0, #0x1000, lsl #16
    1804:	6b00027f 	cmp	w19, w0
    1808:	54002a80 	b.eq	1d58 <TEE_AllocateOperation+0x60c>  // b.none
    180c:	52802220 	mov	w0, #0x111                 	// #273
    1810:	54000dc8 	b.hi	19c8 <TEE_AllocateOperation+0x27c>  // b.pmore
    1814:	72a20000 	movk	w0, #0x1000, lsl #16
    1818:	6b00027f 	cmp	w19, w0
    181c:	54000c08 	b.hi	199c <TEE_AllocateOperation+0x250>  // b.pmore
    1820:	52802200 	mov	w0, #0x110                 	// #272
    1824:	72a20000 	movk	w0, #0x1000, lsl #16
    1828:	6b00027f 	cmp	w19, w0
    182c:	540029a2 	b.cs	1d60 <TEE_AllocateOperation+0x614>  // b.hs, b.nlast
    1830:	52800200 	mov	w0, #0x10                  	// #16
    1834:	72a20000 	movk	w0, #0x1000, lsl #16
    1838:	6b00027f 	cmp	w19, w0
    183c:	540000e3 	b.cc	1858 <TEE_AllocateOperation+0x10c>  // b.lo, b.ul, b.last
    1840:	11000400 	add	w0, w0, #0x1
    1844:	6b00027f 	cmp	w19, w0
    1848:	540028c9 	b.ls	1d60 <TEE_AllocateOperation+0x614>  // b.plast
    184c:	11000800 	add	w0, w0, #0x2
    1850:	6b00027f 	cmp	w19, w0
    1854:	54002860 	b.eq	1d60 <TEE_AllocateOperation+0x614>  // b.none
/home/zliu/ubuntu-optee-rpi3/RPi3_OPTEE_3.1/optee_os/lib/libutee/tee_api_operations.c:270
    1858:	129ffeb4 	mov	w20, #0xffff000a            	// #-65526
    185c:	1400003b 	b	1948 <TEE_AllocateOperation+0x1fc>
/home/zliu/ubuntu-optee-rpi3/RPi3_OPTEE_3.1/optee_os/lib/libutee/tee_api_operations.c:76
    1860:	52862620 	mov	w0, #0x3131                	// #12593
    1864:	72ae0000 	movk	w0, #0x7000, lsl #16
    1868:	6b00027f 	cmp	w19, w0
    186c:	54000680 	b.eq	193c <TEE_AllocateOperation+0x1f0>  // b.none
    1870:	113c4000 	add	w0, w0, #0xf10
    1874:	6b00027f 	cmp	w19, w0
    1878:	54000860 	b.eq	1984 <TEE_AllocateOperation+0x238>  // b.none
    187c:	52860820 	mov	w0, #0x3041                	// #12353
    1880:	72ae0000 	movk	w0, #0x7000, lsl #16
    1884:	6b00027f 	cmp	w19, w0
    1888:	54fffa61 	b.ne	17d4 <TEE_AllocateOperation+0x88>  // b.any
/home/zliu/ubuntu-optee-rpi3/RPi3_OPTEE_3.1/optee_os/lib/libutee/tee_api_operations.c:81
    188c:	129ffeb4 	mov	w20, #0xffff000a            	// #-65526
/home/zliu/ubuntu-optee-rpi3/RPi3_OPTEE_3.1/optee_os/lib/libutee/tee_api_operations.c:110
    1890:	710402ff 	cmp	w23, #0x100
    1894:	14000010 	b	18d4 <TEE_AllocateOperation+0x188>
/home/zliu/ubuntu-optee-rpi3/RPi3_OPTEE_3.1/optee_os/lib/libutee/tee_api_operations.c:76
    1898:	52840840 	mov	w0, #0x2042                	// #8258
    189c:	72b00000 	movk	w0, #0x8000, lsl #16
    18a0:	6b00027f 	cmp	w19, w0
    18a4:	540006a0 	b.eq	1978 <TEE_AllocateOperation+0x22c>  // b.none
    18a8:	540001a8 	b.hi	18dc <TEE_AllocateOperation+0x190>  // b.pmore
    18ac:	528a0820 	mov	w0, #0x5041                	// #20545
    18b0:	72ae0000 	movk	w0, #0x7000, lsl #16
    18b4:	6b00027f 	cmp	w19, w0
    18b8:	540006c0 	b.eq	1990 <TEE_AllocateOperation+0x244>  // b.none
    18bc:	52820840 	mov	w0, #0x1042                	// #4162
    18c0:	72b00000 	movk	w0, #0x8000, lsl #16
    18c4:	6b00027f 	cmp	w19, w0
    18c8:	54fff861 	b.ne	17d4 <TEE_AllocateOperation+0x88>  // b.any
/home/zliu/ubuntu-optee-rpi3/RPi3_OPTEE_3.1/optee_os/lib/libutee/tee_api_operations.c:98
    18cc:	710302ff 	cmp	w23, #0xc0
/home/zliu/ubuntu-optee-rpi3/RPi3_OPTEE_3.1/optee_os/lib/libutee/tee_api_operations.c:81
    18d0:	129ffeb4 	mov	w20, #0xffff000a            	// #-65526
/home/zliu/ubuntu-optee-rpi3/RPi3_OPTEE_3.1/optee_os/lib/libutee/tee_api_operations.c:122
    18d4:	540003a1 	b.ne	1948 <TEE_AllocateOperation+0x1fc>  // b.any
    18d8:	17ffffbf 	b	17d4 <TEE_AllocateOperation+0x88>
/home/zliu/ubuntu-optee-rpi3/RPi3_OPTEE_3.1/optee_os/lib/libutee/tee_api_operations.c:76
    18dc:	52880840 	mov	w0, #0x4042                	// #16450
    18e0:	72b00000 	movk	w0, #0x8000, lsl #16
    18e4:	6b00027f 	cmp	w19, w0
    18e8:	540004e0 	b.eq	1984 <TEE_AllocateOperation+0x238>  // b.none
    18ec:	11400400 	add	w0, w0, #0x1, lsl #12
    18f0:	6b00027f 	cmp	w19, w0
    18f4:	540004e0 	b.eq	1990 <TEE_AllocateOperation+0x244>  // b.none
    18f8:	52860840 	mov	w0, #0x3042                	// #12354
    18fc:	72b00000 	movk	w0, #0x8000, lsl #16
    1900:	17ffffe1 	b	1884 <TEE_AllocateOperation+0x138>
/home/zliu/ubuntu-optee-rpi3/RPi3_OPTEE_3.1/optee_os/lib/libutee/tee_api_operations.c:80
    1904:	510802e0 	sub	w0, w23, #0x200
/home/zliu/ubuntu-optee-rpi3/RPi3_OPTEE_3.1/optee_os/lib/libutee/tee_api_operations.c:81
    1908:	129ffeb4 	mov	w20, #0xffff000a            	// #-65526
/home/zliu/ubuntu-optee-rpi3/RPi3_OPTEE_3.1/optee_os/lib/libutee/tee_api_operations.c:80
    190c:	7108001f 	cmp	w0, #0x200
    1910:	540001c8 	b.hi	1948 <TEE_AllocateOperation+0x1fc>  // b.pmore
/home/zliu/ubuntu-optee-rpi3/RPi3_OPTEE_3.1/optee_os/lib/libutee/tee_api_operations.c:82
    1914:	f24016ff 	tst	x23, #0x3f
    1918:	54000181 	b.ne	1948 <TEE_AllocateOperation+0x1fc>  // b.any
/home/zliu/ubuntu-optee-rpi3/RPi3_OPTEE_3.1/optee_os/lib/libutee/tee_api_operations.c:177
    191c:	71000b1f 	cmp	w24, #0x2
    1920:	540029c0 	b.eq	1e58 <TEE_AllocateOperation+0x70c>  // b.none
/home/zliu/ubuntu-optee-rpi3/RPi3_OPTEE_3.1/optee_os/lib/libutee/tee_api_operations.c:180
    1924:	71000f1f 	cmp	w24, #0x3
    1928:	54fff981 	b.ne	1858 <TEE_AllocateOperation+0x10c>  // b.any
/home/zliu/ubuntu-optee-rpi3/RPi3_OPTEE_3.1/optee_os/lib/libutee/tee_api_operations.c:67
    192c:	52800019 	mov	w25, #0x0                   	// #0
/home/zliu/ubuntu-optee-rpi3/RPi3_OPTEE_3.1/optee_os/lib/libutee/tee_api_operations.c:66
    1930:	5280001a 	mov	w26, #0x0                   	// #0
/home/zliu/ubuntu-optee-rpi3/RPi3_OPTEE_3.1/optee_os/lib/libutee/tee_api_operations.c:181
    1934:	52800403 	mov	w3, #0x20                  	// #32
    1938:	140000d6 	b	1c90 <TEE_AllocateOperation+0x544>
/home/zliu/ubuntu-optee-rpi3/RPi3_OPTEE_3.1/optee_os/lib/libutee/tee_api_operations.c:87
    193c:	712002ff 	cmp	w23, #0x800
/home/zliu/ubuntu-optee-rpi3/RPi3_OPTEE_3.1/optee_os/lib/libutee/tee_api_operations.c:81
    1940:	129ffeb4 	mov	w20, #0xffff000a            	// #-65526
/home/zliu/ubuntu-optee-rpi3/RPi3_OPTEE_3.1/optee_os/lib/libutee/tee_api_operations.c:92
    1944:	54fffec0 	b.eq	191c <TEE_AllocateOperation+0x1d0>  // b.none
/home/zliu/ubuntu-optee-rpi3/RPi3_OPTEE_3.1/optee_os/lib/libutee/tee_api_operations.c:364
    1948:	2a1403e0 	mov	w0, w20
    194c:	a94153f3 	ldp	x19, x20, [sp, #16]
    1950:	a9425bf5 	ldp	x21, x22, [sp, #32]
    1954:	a94363f7 	ldp	x23, x24, [sp, #48]
    1958:	a9446bf9 	ldp	x25, x26, [sp, #64]
    195c:	a94573fb 	ldp	x27, x28, [sp, #80]
    1960:	a8c77bfd 	ldp	x29, x30, [sp], #112
    1964:	d65f03c0 	ret
/home/zliu/ubuntu-optee-rpi3/RPi3_OPTEE_3.1/optee_os/lib/libutee/tee_api_operations.c:92
    1968:	12157ae0 	and	w0, w23, #0xfffffbff
/home/zliu/ubuntu-optee-rpi3/RPi3_OPTEE_3.1/optee_os/lib/libutee/tee_api_operations.c:81
    196c:	129ffeb4 	mov	w20, #0xffff000a            	// #-65526
/home/zliu/ubuntu-optee-rpi3/RPi3_OPTEE_3.1/optee_os/lib/libutee/tee_api_operations.c:92
    1970:	7120001f 	cmp	w0, #0x800
    1974:	17fffff4 	b	1944 <TEE_AllocateOperation+0x1f8>
/home/zliu/ubuntu-optee-rpi3/RPi3_OPTEE_3.1/optee_os/lib/libutee/tee_api_operations.c:81
    1978:	129ffeb4 	mov	w20, #0xffff000a            	// #-65526
/home/zliu/ubuntu-optee-rpi3/RPi3_OPTEE_3.1/optee_os/lib/libutee/tee_api_operations.c:104
    197c:	710382ff 	cmp	w23, #0xe0
    1980:	17ffffd5 	b	18d4 <TEE_AllocateOperation+0x188>
/home/zliu/ubuntu-optee-rpi3/RPi3_OPTEE_3.1/optee_os/lib/libutee/tee_api_operations.c:81
    1984:	129ffeb4 	mov	w20, #0xffff000a            	// #-65526
/home/zliu/ubuntu-optee-rpi3/RPi3_OPTEE_3.1/optee_os/lib/libutee/tee_api_operations.c:116
    1988:	710602ff 	cmp	w23, #0x180
    198c:	17ffffd2 	b	18d4 <TEE_AllocateOperation+0x188>
/home/zliu/ubuntu-optee-rpi3/RPi3_OPTEE_3.1/optee_os/lib/libutee/tee_api_operations.c:81
    1990:	129ffeb4 	mov	w20, #0xffff000a            	// #-65526
/home/zliu/ubuntu-optee-rpi3/RPi3_OPTEE_3.1/optee_os/lib/libutee/tee_api_operations.c:122
    1994:	710826ff 	cmp	w23, #0x209
    1998:	17ffffcf 	b	18d4 <TEE_AllocateOperation+0x188>
/home/zliu/ubuntu-optee-rpi3/RPi3_OPTEE_3.1/optee_os/lib/libutee/tee_api_operations.c:131
    199c:	52802260 	mov	w0, #0x113                 	// #275
    19a0:	72a20000 	movk	w0, #0x1000, lsl #16
    19a4:	6b00027f 	cmp	w19, w0
    19a8:	54001dc0 	b.eq	1d60 <TEE_AllocateOperation+0x614>  // b.none
    19ac:	1103f400 	add	w0, w0, #0xfd
    19b0:	6b00027f 	cmp	w19, w0
    19b4:	54fff521 	b.ne	1858 <TEE_AllocateOperation+0x10c>  // b.any
    19b8:	5280001c 	mov	w28, #0x0                   	// #0
/home/zliu/ubuntu-optee-rpi3/RPi3_OPTEE_3.1/optee_os/lib/libutee/tee_api_operations.c:67
    19bc:	52800019 	mov	w25, #0x0                   	// #0
/home/zliu/ubuntu-optee-rpi3/RPi3_OPTEE_3.1/optee_os/lib/libutee/tee_api_operations.c:64
    19c0:	d2800036 	mov	x22, #0x1                   	// #1
    19c4:	140000df 	b	1d40 <TEE_AllocateOperation+0x5f4>
/home/zliu/ubuntu-optee-rpi3/RPi3_OPTEE_3.1/optee_os/lib/libutee/tee_api_operations.c:131
    19c8:	72a60000 	movk	w0, #0x3000, lsl #16
    19cc:	6b00027f 	cmp	w19, w0
    19d0:	54000208 	b.hi	1a10 <TEE_AllocateOperation+0x2c4>  // b.pmore
    19d4:	52802200 	mov	w0, #0x110                 	// #272
    19d8:	72a60000 	movk	w0, #0x3000, lsl #16
    19dc:	6b00027f 	cmp	w19, w0
    19e0:	540000a2 	b.cs	19f4 <TEE_AllocateOperation+0x2a8>  // b.hs, b.nlast
    19e4:	12a60000 	mov	w0, #0xcfffffff            	// #-805306369
    19e8:	0b000260 	add	w0, w19, w0
    19ec:	7100141f 	cmp	w0, #0x5
    19f0:	54fff348 	b.hi	1858 <TEE_AllocateOperation+0x10c>  // b.pmore
/home/zliu/ubuntu-optee-rpi3/RPi3_OPTEE_3.1/optee_os/lib/libutee/tee_api_operations.c:81
    19f4:	129ffeb4 	mov	w20, #0xffff000a            	// #-65526
/home/zliu/ubuntu-optee-rpi3/RPi3_OPTEE_3.1/optee_os/lib/libutee/tee_api_operations.c:264
    19f8:	7100131f 	cmp	w24, #0x4
    19fc:	54fffa61 	b.ne	1948 <TEE_AllocateOperation+0x1fc>  // b.any
/home/zliu/ubuntu-optee-rpi3/RPi3_OPTEE_3.1/optee_os/lib/libutee/tee_api_operations.c:67
    1a00:	52800019 	mov	w25, #0x0                   	// #0
/home/zliu/ubuntu-optee-rpi3/RPi3_OPTEE_3.1/optee_os/lib/libutee/tee_api_operations.c:66
    1a04:	5280001a 	mov	w26, #0x0                   	// #0
/home/zliu/ubuntu-optee-rpi3/RPi3_OPTEE_3.1/optee_os/lib/libutee/tee_api_operations.c:266
    1a08:	52800103 	mov	w3, #0x8                   	// #8
    1a0c:	140000a1 	b	1c90 <TEE_AllocateOperation+0x544>
/home/zliu/ubuntu-optee-rpi3/RPi3_OPTEE_3.1/optee_os/lib/libutee/tee_api_operations.c:131
    1a10:	52802260 	mov	w0, #0x113                 	// #275
    1a14:	72a60000 	movk	w0, #0x3000, lsl #16
    1a18:	6b00027f 	cmp	w19, w0
    1a1c:	54fffec0 	b.eq	19f4 <TEE_AllocateOperation+0x2a8>  // b.none
    1a20:	54fff1c3 	b.cc	1858 <TEE_AllocateOperation+0x10c>  // b.lo, b.ul, b.last
    1a24:	529f5e00 	mov	w0, #0xfaf0                	// #64240
    1a28:	72b9ffe0 	movk	w0, #0xcfff, lsl #16
    1a2c:	0b000260 	add	w0, w19, w0
    1a30:	7100041f 	cmp	w0, #0x1
    1a34:	17ffffef 	b	19f0 <TEE_AllocateOperation+0x2a4>
    1a38:	52804600 	mov	w0, #0x230                 	// #560
    1a3c:	72ac0420 	movk	w0, #0x6021, lsl #16
    1a40:	6b00027f 	cmp	w19, w0
    1a44:	540003a0 	b.eq	1ab8 <TEE_AllocateOperation+0x36c>  // b.none
    1a48:	54000468 	b.hi	1ad4 <TEE_AllocateOperation+0x388>  // b.pmore
    1a4c:	528000c0 	mov	w0, #0x6                   	// #6
    1a50:	72aa0000 	movk	w0, #0x5000, lsl #16
    1a54:	6b00027f 	cmp	w19, w0
    1a58:	54000228 	b.hi	1a9c <TEE_AllocateOperation+0x350>  // b.pmore
    1a5c:	52800020 	mov	w0, #0x1                   	// #1
    1a60:	72aa0000 	movk	w0, #0x5000, lsl #16
    1a64:	6b00027f 	cmp	w19, w0
    1a68:	54001902 	b.cs	1d88 <TEE_AllocateOperation+0x63c>  // b.hs, b.nlast
    1a6c:	5280e200 	mov	w0, #0x710                 	// #1808
    1a70:	72a80000 	movk	w0, #0x4000, lsl #16
    1a74:	6b00027f 	cmp	w19, w0
    1a78:	54001740 	b.eq	1d60 <TEE_AllocateOperation+0x614>  // b.none
    1a7c:	11040000 	add	w0, w0, #0x100
    1a80:	6b00027f 	cmp	w19, w0
    1a84:	54fff9a0 	b.eq	19b8 <TEE_AllocateOperation+0x26c>  // b.none
    1a88:	5280c200 	mov	w0, #0x610                 	// #1552
    1a8c:	72a60000 	movk	w0, #0x3000, lsl #16
    1a90:	6b00027f 	cmp	w19, w0
    1a94:	54ffee21 	b.ne	1858 <TEE_AllocateOperation+0x10c>  // b.any
    1a98:	17ffffd7 	b	19f4 <TEE_AllocateOperation+0x2a8>
    1a9c:	52800600 	mov	w0, #0x30                  	// #48
    1aa0:	72ac0000 	movk	w0, #0x6000, lsl #16
    1aa4:	6b00027f 	cmp	w19, w0
    1aa8:	54001620 	b.eq	1d6c <TEE_AllocateOperation+0x620>  // b.none
    1aac:	11040000 	add	w0, w0, #0x100
    1ab0:	6b00027f 	cmp	w19, w0
    1ab4:	54ffed21 	b.ne	1858 <TEE_AllocateOperation+0x10c>  // b.any
/home/zliu/ubuntu-optee-rpi3/RPi3_OPTEE_3.1/optee_os/lib/libutee/tee_api_operations.c:193
    1ab8:	34001d98 	cbz	w24, 1e68 <TEE_AllocateOperation+0x71c>
/home/zliu/ubuntu-optee-rpi3/RPi3_OPTEE_3.1/optee_os/lib/libutee/tee_api_operations.c:195
    1abc:	7100071f 	cmp	w24, #0x1
    1ac0:	54ffecc1 	b.ne	1858 <TEE_AllocateOperation+0x10c>  // b.any
/home/zliu/ubuntu-optee-rpi3/RPi3_OPTEE_3.1/optee_os/lib/libutee/tee_api_operations.c:67
    1ac4:	52800019 	mov	w25, #0x0                   	// #0
/home/zliu/ubuntu-optee-rpi3/RPi3_OPTEE_3.1/optee_os/lib/libutee/tee_api_operations.c:196
    1ac8:	2a1803fa 	mov	w26, w24
/home/zliu/ubuntu-optee-rpi3/RPi3_OPTEE_3.1/optee_os/lib/libutee/tee_api_operations.c:197
    1acc:	52800083 	mov	w3, #0x4                   	// #4
    1ad0:	14000070 	b	1c90 <TEE_AllocateOperation+0x544>
/home/zliu/ubuntu-optee-rpi3/RPi3_OPTEE_3.1/optee_os/lib/libutee/tee_api_operations.c:131
    1ad4:	52804600 	mov	w0, #0x230                 	// #560
    1ad8:	72ac0c20 	movk	w0, #0x6061, lsl #16
    1adc:	6b00027f 	cmp	w19, w0
    1ae0:	54fffec0 	b.eq	1ab8 <TEE_AllocateOperation+0x36c>  // b.none
    1ae4:	54000168 	b.hi	1b10 <TEE_AllocateOperation+0x3c4>  // b.pmore
    1ae8:	52804600 	mov	w0, #0x230                 	// #560
    1aec:	72ac0820 	movk	w0, #0x6041, lsl #16
    1af0:	6b00027f 	cmp	w19, w0
    1af4:	54fffe20 	b.eq	1ab8 <TEE_AllocateOperation+0x36c>  // b.none
    1af8:	11440000 	add	w0, w0, #0x100, lsl #12
    1afc:	6b00027f 	cmp	w19, w0
    1b00:	54fffdc0 	b.eq	1ab8 <TEE_AllocateOperation+0x36c>  // b.none
    1b04:	52804600 	mov	w0, #0x230                 	// #560
    1b08:	72ac0620 	movk	w0, #0x6031, lsl #16
    1b0c:	17ffffe9 	b	1ab0 <TEE_AllocateOperation+0x364>
    1b10:	52830600 	mov	w0, #0x1830                	// #6192
    1b14:	72ae0000 	movk	w0, #0x7000, lsl #16
    1b18:	6b00027f 	cmp	w19, w0
    1b1c:	54fff000 	b.eq	191c <TEE_AllocateOperation+0x1d0>  // b.none
    1b20:	11204400 	add	w0, w0, #0x811
    1b24:	6b00027f 	cmp	w19, w0
    1b28:	54ffefa0 	b.eq	191c <TEE_AllocateOperation+0x1d0>  // b.none
    1b2c:	52820820 	mov	w0, #0x1041                	// #4161
    1b30:	72ae0000 	movk	w0, #0x7000, lsl #16
    1b34:	6b00027f 	cmp	w19, w0
    1b38:	54ffe901 	b.ne	1858 <TEE_AllocateOperation+0x10c>  // b.any
    1b3c:	17ffff78 	b	191c <TEE_AllocateOperation+0x1d0>
    1b40:	52800640 	mov	w0, #0x32                  	// #50
    1b44:	72b00000 	movk	w0, #0x8000, lsl #16
    1b48:	6b00027f 	cmp	w19, w0
    1b4c:	54000960 	b.eq	1c78 <TEE_AllocateOperation+0x52c>  // b.none
    1b50:	540006c8 	b.hi	1c28 <TEE_AllocateOperation+0x4dc>  // b.pmore
    1b54:	528a0820 	mov	w0, #0x5041                	// #20545
    1b58:	72ae0000 	movk	w0, #0x7000, lsl #16
    1b5c:	6b00027f 	cmp	w19, w0
    1b60:	54ffede0 	b.eq	191c <TEE_AllocateOperation+0x1d0>  // b.none
    1b64:	54000308 	b.hi	1bc4 <TEE_AllocateOperation+0x478>  // b.pmore
    1b68:	52870600 	mov	w0, #0x3830                	// #14384
    1b6c:	72ae0000 	movk	w0, #0x7000, lsl #16
    1b70:	6b00027f 	cmp	w19, w0
    1b74:	54ffed40 	b.eq	191c <TEE_AllocateOperation+0x1d0>  // b.none
    1b78:	54000148 	b.hi	1ba0 <TEE_AllocateOperation+0x454>  // b.pmore
    1b7c:	52860820 	mov	w0, #0x3041                	// #12353
    1b80:	72ae0000 	movk	w0, #0x7000, lsl #16
    1b84:	6b00027f 	cmp	w19, w0
    1b88:	54ffeca0 	b.eq	191c <TEE_AllocateOperation+0x1d0>  // b.none
    1b8c:	1103c000 	add	w0, w0, #0xf0
    1b90:	6b00027f 	cmp	w19, w0
    1b94:	54ffec40 	b.eq	191c <TEE_AllocateOperation+0x1d0>  // b.none
    1b98:	52850600 	mov	w0, #0x2830                	// #10288
    1b9c:	17ffffe5 	b	1b30 <TEE_AllocateOperation+0x3e4>
    1ba0:	52882620 	mov	w0, #0x4131                	// #16689
    1ba4:	72ae0000 	movk	w0, #0x7000, lsl #16
    1ba8:	6b00027f 	cmp	w19, w0
    1bac:	54ffeb80 	b.eq	191c <TEE_AllocateOperation+0x1d0>  // b.none
    1bb0:	111bfc00 	add	w0, w0, #0x6ff
    1bb4:	6b00027f 	cmp	w19, w0
    1bb8:	54ffeb20 	b.eq	191c <TEE_AllocateOperation+0x1d0>  // b.none
    1bbc:	52880820 	mov	w0, #0x4041                	// #16449
    1bc0:	17ffffdc 	b	1b30 <TEE_AllocateOperation+0x3e4>
    1bc4:	52872600 	mov	w0, #0x3930                	// #14640
    1bc8:	72ae0620 	movk	w0, #0x7031, lsl #16
    1bcc:	6b00027f 	cmp	w19, w0
    1bd0:	54ffea60 	b.eq	191c <TEE_AllocateOperation+0x1d0>  // b.none
    1bd4:	54000168 	b.hi	1c00 <TEE_AllocateOperation+0x4b4>  // b.pmore
    1bd8:	528d0600 	mov	w0, #0x6830                	// #26672
    1bdc:	72ae0000 	movk	w0, #0x7000, lsl #16
    1be0:	6b00027f 	cmp	w19, w0
    1be4:	54ffe9c0 	b.eq	191c <TEE_AllocateOperation+0x1d0>  // b.none
    1be8:	52852600 	mov	w0, #0x2930                	// #10544
    1bec:	72ae0420 	movk	w0, #0x7021, lsl #16
    1bf0:	6b00027f 	cmp	w19, w0
    1bf4:	54ffe940 	b.eq	191c <TEE_AllocateOperation+0x1d0>  // b.none
    1bf8:	528b0600 	mov	w0, #0x5830                	// #22576
    1bfc:	17ffffcd 	b	1b30 <TEE_AllocateOperation+0x3e4>
    1c00:	528b2600 	mov	w0, #0x5930                	// #22832
    1c04:	72ae0a20 	movk	w0, #0x7051, lsl #16
    1c08:	6b00027f 	cmp	w19, w0
    1c0c:	54ffe880 	b.eq	191c <TEE_AllocateOperation+0x1d0>  // b.none
    1c10:	11440400 	add	w0, w0, #0x101, lsl #12
    1c14:	6b00027f 	cmp	w19, w0
    1c18:	54ffe820 	b.eq	191c <TEE_AllocateOperation+0x1d0>  // b.none
    1c1c:	52892600 	mov	w0, #0x4930                	// #18736
    1c20:	72ae0820 	movk	w0, #0x7041, lsl #16
    1c24:	17ffffc4 	b	1b34 <TEE_AllocateOperation+0x3e8>
    1c28:	52861820 	mov	w0, #0x30c1                	// #12481
    1c2c:	72b00000 	movk	w0, #0x8000, lsl #16
    1c30:	6b00027f 	cmp	w19, w0
    1c34:	54000468 	b.hi	1cc0 <TEE_AllocateOperation+0x574>  // b.pmore
    1c38:	52861800 	mov	w0, #0x30c0                	// #12480
    1c3c:	72b00000 	movk	w0, #0x8000, lsl #16
    1c40:	6b00027f 	cmp	w19, w0
    1c44:	540001a2 	b.cs	1c78 <TEE_AllocateOperation+0x52c>  // b.hs, b.nlast
    1c48:	52840840 	mov	w0, #0x2042                	// #8258
    1c4c:	72b00000 	movk	w0, #0x8000, lsl #16
    1c50:	6b00027f 	cmp	w19, w0
    1c54:	54000120 	b.eq	1c78 <TEE_AllocateOperation+0x52c>  // b.none
    1c58:	54000228 	b.hi	1c9c <TEE_AllocateOperation+0x550>  // b.pmore
    1c5c:	52820840 	mov	w0, #0x1042                	// #4162
    1c60:	72b00000 	movk	w0, #0x8000, lsl #16
    1c64:	6b00027f 	cmp	w19, w0
    1c68:	54000080 	b.eq	1c78 <TEE_AllocateOperation+0x52c>  // b.none
    1c6c:	1101f800 	add	w0, w0, #0x7e
    1c70:	6b00027f 	cmp	w19, w0
    1c74:	54ffdf21 	b.ne	1858 <TEE_AllocateOperation+0x10c>  // b.any
/home/zliu/ubuntu-optee-rpi3/RPi3_OPTEE_3.1/optee_os/lib/libutee/tee_api_operations.c:81
    1c78:	129ffeb4 	mov	w20, #0xffff000a            	// #-65526
/home/zliu/ubuntu-optee-rpi3/RPi3_OPTEE_3.1/optee_os/lib/libutee/tee_api_operations.c:232
    1c7c:	71001b1f 	cmp	w24, #0x6
    1c80:	54ffe641 	b.ne	1948 <TEE_AllocateOperation+0x1fc>  // b.any
/home/zliu/ubuntu-optee-rpi3/RPi3_OPTEE_3.1/optee_os/lib/libutee/tee_api_operations.c:67
    1c84:	52800019 	mov	w25, #0x0                   	// #0
/home/zliu/ubuntu-optee-rpi3/RPi3_OPTEE_3.1/optee_os/lib/libutee/tee_api_operations.c:234
    1c88:	5280003a 	mov	w26, #0x1                   	// #1
/home/zliu/ubuntu-optee-rpi3/RPi3_OPTEE_3.1/optee_os/lib/libutee/tee_api_operations.c:235
    1c8c:	52800803 	mov	w3, #0x40                  	// #64
/home/zliu/ubuntu-optee-rpi3/RPi3_OPTEE_3.1/optee_os/lib/libutee/tee_api_operations.c:64
    1c90:	d2800036 	mov	x22, #0x1                   	// #1
    1c94:	5280001c 	mov	w28, #0x0                   	// #0
    1c98:	14000044 	b	1da8 <TEE_AllocateOperation+0x65c>
/home/zliu/ubuntu-optee-rpi3/RPi3_OPTEE_3.1/optee_os/lib/libutee/tee_api_operations.c:131
    1c9c:	52841800 	mov	w0, #0x20c0                	// #8384
    1ca0:	72b00000 	movk	w0, #0x8000, lsl #16
    1ca4:	6b00027f 	cmp	w19, w0
    1ca8:	54ffdd83 	b.cc	1858 <TEE_AllocateOperation+0x10c>  // b.lo, b.ul, b.last
    1cac:	11000800 	add	w0, w0, #0x2
    1cb0:	6b00027f 	cmp	w19, w0
    1cb4:	54fffe29 	b.ls	1c78 <TEE_AllocateOperation+0x52c>  // b.plast
    1cb8:	113e0000 	add	w0, w0, #0xf80
    1cbc:	17ffffed 	b	1c70 <TEE_AllocateOperation+0x524>
    1cc0:	528a0840 	mov	w0, #0x5042                	// #20546
    1cc4:	72b00000 	movk	w0, #0x8000, lsl #16
    1cc8:	6b00027f 	cmp	w19, w0
    1ccc:	54fffd60 	b.eq	1c78 <TEE_AllocateOperation+0x52c>  // b.none
    1cd0:	54000188 	b.hi	1d00 <TEE_AllocateOperation+0x5b4>  // b.pmore
    1cd4:	52880840 	mov	w0, #0x4042                	// #16450
    1cd8:	72b00000 	movk	w0, #0x8000, lsl #16
    1cdc:	6b00027f 	cmp	w19, w0
    1ce0:	54fffcc0 	b.eq	1c78 <TEE_AllocateOperation+0x52c>  // b.none
    1ce4:	5297e800 	mov	w0, #0xbf40                	// #48960
    1ce8:	54ffdb83 	b.cc	1858 <TEE_AllocateOperation+0x10c>  // b.lo, b.ul, b.last
    1cec:	72afffe0 	movk	w0, #0x7fff, lsl #16
    1cf0:	0b000260 	add	w0, w19, w0
    1cf4:	7100041f 	cmp	w0, #0x1
    1cf8:	54fffc09 	b.ls	1c78 <TEE_AllocateOperation+0x52c>  // b.plast
    1cfc:	17fffed7 	b	1858 <TEE_AllocateOperation+0x10c>
    1d00:	528a1800 	mov	w0, #0x50c0                	// #20672
    1d04:	72b00000 	movk	w0, #0x8000, lsl #16
    1d08:	6b00027f 	cmp	w19, w0
    1d0c:	54ffda63 	b.cc	1858 <TEE_AllocateOperation+0x10c>  // b.lo, b.ul, b.last
    1d10:	11000400 	add	w0, w0, #0x1
    1d14:	6b00027f 	cmp	w19, w0
    1d18:	54fffb09 	b.ls	1c78 <TEE_AllocateOperation+0x52c>  // b.plast
    1d1c:	5293e800 	mov	w0, #0x9f40                	// #40768
    1d20:	17fffff3 	b	1cec <TEE_AllocateOperation+0x5a0>
/home/zliu/ubuntu-optee-rpi3/RPi3_OPTEE_3.1/optee_os/lib/libutee/tee_api_operations.c:73
    1d24:	52a0011c 	mov	w28, #0x80000               	// #524288
/home/zliu/ubuntu-optee-rpi3/RPi3_OPTEE_3.1/optee_os/lib/libutee/tee_api_operations.c:134
    1d28:	52800039 	mov	w25, #0x1                   	// #1
/home/zliu/ubuntu-optee-rpi3/RPi3_OPTEE_3.1/optee_os/lib/libutee/tee_api_operations.c:143
    1d2c:	12001e60 	and	w0, w19, #0xff
/home/zliu/ubuntu-optee-rpi3/RPi3_OPTEE_3.1/optee_os/lib/libutee/tee_api_operations.c:146
    1d30:	d2800216 	mov	x22, #0x10                  	// #16
    1d34:	7100401f 	cmp	w0, #0x10
    1d38:	d2800100 	mov	x0, #0x8                   	// #8
    1d3c:	9a8002d6 	csel	x22, x22, x0, eq  // eq = none
/home/zliu/ubuntu-optee-rpi3/RPi3_OPTEE_3.1/optee_os/lib/libutee/tee_api_operations.c:150
    1d40:	34000878 	cbz	w24, 1e4c <TEE_AllocateOperation+0x700>
/home/zliu/ubuntu-optee-rpi3/RPi3_OPTEE_3.1/optee_os/lib/libutee/tee_api_operations.c:152
    1d44:	7100071f 	cmp	w24, #0x1
    1d48:	54ffd881 	b.ne	1858 <TEE_AllocateOperation+0x10c>  // b.any
/home/zliu/ubuntu-optee-rpi3/RPi3_OPTEE_3.1/optee_os/lib/libutee/tee_api_operations.c:66
    1d4c:	5280001a 	mov	w26, #0x0                   	// #0
/home/zliu/ubuntu-optee-rpi3/RPi3_OPTEE_3.1/optee_os/lib/libutee/tee_api_operations.c:153
    1d50:	52800083 	mov	w3, #0x4                   	// #4
    1d54:	14000015 	b	1da8 <TEE_AllocateOperation+0x65c>
/home/zliu/ubuntu-optee-rpi3/RPi3_OPTEE_3.1/optee_os/lib/libutee/tee_api_operations.c:131
    1d58:	5280001c 	mov	w28, #0x0                   	// #0
    1d5c:	17fffff3 	b	1d28 <TEE_AllocateOperation+0x5dc>
    1d60:	5280001c 	mov	w28, #0x0                   	// #0
/home/zliu/ubuntu-optee-rpi3/RPi3_OPTEE_3.1/optee_os/lib/libutee/tee_api_operations.c:67
    1d64:	52800019 	mov	w25, #0x0                   	// #0
    1d68:	17fffff1 	b	1d2c <TEE_AllocateOperation+0x5e0>
/home/zliu/ubuntu-optee-rpi3/RPi3_OPTEE_3.1/optee_os/lib/libutee/tee_api_operations.c:204
    1d6c:	340008b8 	cbz	w24, 1e80 <TEE_AllocateOperation+0x734>
/home/zliu/ubuntu-optee-rpi3/RPi3_OPTEE_3.1/optee_os/lib/libutee/tee_api_operations.c:206
    1d70:	7100071f 	cmp	w24, #0x1
    1d74:	54ffd721 	b.ne	1858 <TEE_AllocateOperation+0x10c>  // b.any
/home/zliu/ubuntu-optee-rpi3/RPi3_OPTEE_3.1/optee_os/lib/libutee/tee_api_operations.c:67
    1d78:	52800019 	mov	w25, #0x0                   	// #0
/home/zliu/ubuntu-optee-rpi3/RPi3_OPTEE_3.1/optee_os/lib/libutee/tee_api_operations.c:207
    1d7c:	5280003a 	mov	w26, #0x1                   	// #1
/home/zliu/ubuntu-optee-rpi3/RPi3_OPTEE_3.1/optee_os/lib/libutee/tee_api_operations.c:208
    1d80:	52800283 	mov	w3, #0x14                  	// #20
    1d84:	17ffffc3 	b	1c90 <TEE_AllocateOperation+0x544>
/home/zliu/ubuntu-optee-rpi3/RPi3_OPTEE_3.1/optee_os/lib/libutee/tee_api_operations.c:81
    1d88:	129ffeb4 	mov	w20, #0xffff000a            	// #-65526
/home/zliu/ubuntu-optee-rpi3/RPi3_OPTEE_3.1/optee_os/lib/libutee/tee_api_operations.c:244
    1d8c:	7100171f 	cmp	w24, #0x5
    1d90:	54ffddc1 	b.ne	1948 <TEE_AllocateOperation+0x1fc>  // b.any
/home/zliu/ubuntu-optee-rpi3/RPi3_OPTEE_3.1/optee_os/lib/libutee/tee_api_operations.c:67
    1d94:	52800019 	mov	w25, #0x0                   	// #0
/home/zliu/ubuntu-optee-rpi3/RPi3_OPTEE_3.1/optee_os/lib/libutee/tee_api_operations.c:66
    1d98:	5280001a 	mov	w26, #0x0                   	// #0
/home/zliu/ubuntu-optee-rpi3/RPi3_OPTEE_3.1/optee_os/lib/libutee/tee_api_operations.c:248
    1d9c:	52800003 	mov	w3, #0x0                   	// #0
/home/zliu/ubuntu-optee-rpi3/RPi3_OPTEE_3.1/optee_os/lib/libutee/tee_api_operations.c:64
    1da0:	d2800036 	mov	x22, #0x1                   	// #1
/home/zliu/ubuntu-optee-rpi3/RPi3_OPTEE_3.1/optee_os/lib/libutee/tee_api_operations.c:247
    1da4:	52a0009c 	mov	w28, #0x40000               	// #262144
/home/zliu/ubuntu-optee-rpi3/RPi3_OPTEE_3.1/optee_os/lib/libutee/tee_api_operations.c:273
    1da8:	52800001 	mov	w1, #0x0                   	// #0
    1dac:	52800c00 	mov	w0, #0x60                  	// #96
    1db0:	b90067a3 	str	w3, [x29, #100]
/home/zliu/ubuntu-optee-rpi3/RPi3_OPTEE_3.1/optee_os/lib/libutee/tee_api_operations.c:275
    1db4:	129ffe74 	mov	w20, #0xffff000c            	// #-65524
/home/zliu/ubuntu-optee-rpi3/RPi3_OPTEE_3.1/optee_os/lib/libutee/tee_api_operations.c:273
    1db8:	97fffb1c 	bl	a28 <TEE_Malloc>
    1dbc:	aa0003f5 	mov	x21, x0
/home/zliu/ubuntu-optee-rpi3/RPi3_OPTEE_3.1/optee_os/lib/libutee/tee_api_operations.c:274
    1dc0:	b4ffdc40 	cbz	x0, 1948 <TEE_AllocateOperation+0x1fc>
/home/zliu/ubuntu-optee-rpi3/RPi3_OPTEE_3.1/optee_os/lib/libutee/tee_api_operations.c:281
    1dc4:	b94067a3 	ldr	w3, [x29, #100]
/home/zliu/ubuntu-optee-rpi3/RPi3_OPTEE_3.1/optee_os/lib/libutee/tee_api_operations.c:278
    1dc8:	531c7e7b 	lsr	w27, w19, #28
/home/zliu/ubuntu-optee-rpi3/RPi3_OPTEE_3.1/optee_os/lib/libutee/tee_api_operations.c:279
    1dcc:	b9000818 	str	w24, [x0, #8]
/home/zliu/ubuntu-optee-rpi3/RPi3_OPTEE_3.1/optee_os/lib/libutee/tee_api_operations.c:284
    1dd0:	f10006df 	cmp	x22, #0x1
/home/zliu/ubuntu-optee-rpi3/RPi3_OPTEE_3.1/optee_os/lib/libutee/tee_api_operations.c:278
    1dd4:	29006c13 	stp	w19, w27, [x0]
/home/zliu/ubuntu-optee-rpi3/RPi3_OPTEE_3.1/optee_os/lib/libutee/tee_api_operations.c:280
    1dd8:	b9001017 	str	w23, [x0, #16]
/home/zliu/ubuntu-optee-rpi3/RPi3_OPTEE_3.1/optee_os/lib/libutee/tee_api_operations.c:282
    1ddc:	29037003 	stp	w3, w28, [x0, #24]
/home/zliu/ubuntu-optee-rpi3/RPi3_OPTEE_3.1/optee_os/lib/libutee/tee_api_operations.c:284
    1de0:	540005a1 	b.ne	1e94 <TEE_AllocateOperation+0x748>  // b.any
/home/zliu/ubuntu-optee-rpi3/RPi3_OPTEE_3.1/optee_os/lib/libutee/tee_api_operations.c:298
    1de4:	390102b9 	strb	w25, [x21, #64]
/home/zliu/ubuntu-optee-rpi3/RPi3_OPTEE_3.1/optee_os/lib/libutee/tee_api_operations.c:300
    1de8:	7100177f 	cmp	w27, #0x5
/home/zliu/ubuntu-optee-rpi3/RPi3_OPTEE_3.1/optee_os/lib/libutee/tee_api_operations.c:297
    1dec:	f90026b6 	str	x22, [x21, #72]
/home/zliu/ubuntu-optee-rpi3/RPi3_OPTEE_3.1/optee_os/lib/libutee/tee_api_operations.c:300
    1df0:	54000641 	b.ne	1eb8 <TEE_AllocateOperation+0x76c>  // b.any
/home/zliu/ubuntu-optee-rpi3/RPi3_OPTEE_3.1/optee_os/lib/libutee/tee_api_operations.c:324
    1df4:	a9420ea2 	ldp	x2, x3, [x21, #32]
    1df8:	910162a4 	add	x4, x21, #0x58
    1dfc:	2a1803e1 	mov	w1, w24
    1e00:	2a1303e0 	mov	w0, w19
    1e04:	94000824 	bl	3e94 <utee_cryp_state_alloc>
/home/zliu/ubuntu-optee-rpi3/RPi3_OPTEE_3.1/optee_os/lib/libutee/tee_api_operations.c:326
    1e08:	35000b00 	cbnz	w0, 1f68 <TEE_AllocateOperation+0x81c>
/home/zliu/ubuntu-optee-rpi3/RPi3_OPTEE_3.1/optee_os/lib/libutee/tee_api_operations.c:334
    1e0c:	7100177f 	cmp	w27, #0x5
    1e10:	54000141 	b.ne	1e38 <TEE_AllocateOperation+0x6ec>  // b.any
/home/zliu/ubuntu-optee-rpi3/RPi3_OPTEE_3.1/optee_os/lib/libutee/tee_api_operations.c:335
    1e14:	b9405aa0 	ldr	w0, [x21, #88]
    1e18:	d2800002 	mov	x2, #0x0                   	// #0
    1e1c:	d2800001 	mov	x1, #0x0                   	// #0
    1e20:	94000826 	bl	3eb8 <utee_hash_init>
    1e24:	2a0003f4 	mov	w20, w0
/home/zliu/ubuntu-optee-rpi3/RPi3_OPTEE_3.1/optee_os/lib/libutee/tee_api_operations.c:336
    1e28:	35000780 	cbnz	w0, 1f18 <TEE_AllocateOperation+0x7cc>
/home/zliu/ubuntu-optee-rpi3/RPi3_OPTEE_3.1/optee_os/lib/libutee/tee_api_operations.c:339
    1e2c:	b9401ea0 	ldr	w0, [x21, #28]
    1e30:	320f0000 	orr	w0, w0, #0x20000
    1e34:	b9001ea0 	str	w0, [x21, #28]
/home/zliu/ubuntu-optee-rpi3/RPi3_OPTEE_3.1/optee_os/lib/libutee/tee_api_operations.c:344
    1e38:	f94037a0 	ldr	x0, [x29, #104]
    1e3c:	52800014 	mov	w20, #0x0                   	// #0
/home/zliu/ubuntu-optee-rpi3/RPi3_OPTEE_3.1/optee_os/lib/libutee/tee_api_operations.c:342
    1e40:	b90032bf 	str	wzr, [x21, #48]
/home/zliu/ubuntu-optee-rpi3/RPi3_OPTEE_3.1/optee_os/lib/libutee/tee_api_operations.c:344
    1e44:	f9000015 	str	x21, [x0]
    1e48:	17fffec0 	b	1948 <TEE_AllocateOperation+0x1fc>
/home/zliu/ubuntu-optee-rpi3/RPi3_OPTEE_3.1/optee_os/lib/libutee/tee_api_operations.c:66
    1e4c:	5280001a 	mov	w26, #0x0                   	// #0
/home/zliu/ubuntu-optee-rpi3/RPi3_OPTEE_3.1/optee_os/lib/libutee/tee_api_operations.c:151
    1e50:	52800043 	mov	w3, #0x2                   	// #2
    1e54:	17ffffd5 	b	1da8 <TEE_AllocateOperation+0x65c>
/home/zliu/ubuntu-optee-rpi3/RPi3_OPTEE_3.1/optee_os/lib/libutee/tee_api_operations.c:67
    1e58:	52800019 	mov	w25, #0x0                   	// #0
/home/zliu/ubuntu-optee-rpi3/RPi3_OPTEE_3.1/optee_os/lib/libutee/tee_api_operations.c:178
    1e5c:	5280003a 	mov	w26, #0x1                   	// #1
/home/zliu/ubuntu-optee-rpi3/RPi3_OPTEE_3.1/optee_os/lib/libutee/tee_api_operations.c:179
    1e60:	52800203 	mov	w3, #0x10                  	// #16
    1e64:	17ffff8b 	b	1c90 <TEE_AllocateOperation+0x544>
    1e68:	5280001c 	mov	w28, #0x0                   	// #0
/home/zliu/ubuntu-optee-rpi3/RPi3_OPTEE_3.1/optee_os/lib/libutee/tee_api_operations.c:67
    1e6c:	52800019 	mov	w25, #0x0                   	// #0
/home/zliu/ubuntu-optee-rpi3/RPi3_OPTEE_3.1/optee_os/lib/libutee/tee_api_operations.c:66
    1e70:	5280001a 	mov	w26, #0x0                   	// #0
/home/zliu/ubuntu-optee-rpi3/RPi3_OPTEE_3.1/optee_os/lib/libutee/tee_api_operations.c:194
    1e74:	52800043 	mov	w3, #0x2                   	// #2
/home/zliu/ubuntu-optee-rpi3/RPi3_OPTEE_3.1/optee_os/lib/libutee/tee_api_operations.c:64
    1e78:	d2800036 	mov	x22, #0x1                   	// #1
    1e7c:	17ffffcb 	b	1da8 <TEE_AllocateOperation+0x65c>
    1e80:	5280001c 	mov	w28, #0x0                   	// #0
/home/zliu/ubuntu-optee-rpi3/RPi3_OPTEE_3.1/optee_os/lib/libutee/tee_api_operations.c:67
    1e84:	52800019 	mov	w25, #0x0                   	// #0
/home/zliu/ubuntu-optee-rpi3/RPi3_OPTEE_3.1/optee_os/lib/libutee/tee_api_operations.c:66
    1e88:	5280001a 	mov	w26, #0x0                   	// #0
/home/zliu/ubuntu-optee-rpi3/RPi3_OPTEE_3.1/optee_os/lib/libutee/tee_api_operations.c:205
    1e8c:	52800443 	mov	w3, #0x22                  	// #34
    1e90:	17fffffa 	b	1e78 <TEE_AllocateOperation+0x72c>
/home/zliu/ubuntu-optee-rpi3/RPi3_OPTEE_3.1/optee_os/lib/libutee/tee_api_operations.c:288
    1e94:	7100033f 	cmp	w25, #0x0
    1e98:	d37ffac0 	lsl	x0, x22, #1
/home/zliu/ubuntu-optee-rpi3/RPi3_OPTEE_3.1/optee_os/lib/libutee/tee_api_operations.c:290
    1e9c:	52b00001 	mov	w1, #0x80000000            	// #-2147483648
    1ea0:	9a961000 	csel	x0, x0, x22, ne  // ne = any
    1ea4:	97fffae1 	bl	a28 <TEE_Malloc>
    1ea8:	f9001ea0 	str	x0, [x21, #56]
/home/zliu/ubuntu-optee-rpi3/RPi3_OPTEE_3.1/optee_os/lib/libutee/tee_api_operations.c:292
    1eac:	b5fff9c0 	cbnz	x0, 1de4 <TEE_AllocateOperation+0x698>
/home/zliu/ubuntu-optee-rpi3/RPi3_OPTEE_3.1/optee_os/lib/libutee/tee_api_operations.c:293
    1eb0:	129ffe74 	mov	w20, #0xffff000c            	// #-65524
    1eb4:	14000019 	b	1f18 <TEE_AllocateOperation+0x7cc>
/home/zliu/ubuntu-optee-rpi3/RPi3_OPTEE_3.1/optee_os/lib/libutee/tee_api_operations.c:302
    1eb8:	7100035f 	cmp	w26, #0x0
    1ebc:	52b40001 	mov	w1, #0xa0000000            	// #-1610612736
    1ec0:	52b42000 	mov	w0, #0xa1000000            	// #-1593835520
    1ec4:	1a811000 	csel	w0, w0, w1, ne  // ne = any
/home/zliu/ubuntu-optee-rpi3/RPi3_OPTEE_3.1/optee_os/lib/libutee/tee_api_operations.c:309
    1ec8:	b9401ea1 	ldr	w1, [x21, #28]
/home/zliu/ubuntu-optee-rpi3/RPi3_OPTEE_3.1/optee_os/lib/libutee/tee_api_operations.c:302
    1ecc:	12001e76 	and	w22, w19, #0xff
    1ed0:	2a160016 	orr	w22, w0, w22
/home/zliu/ubuntu-optee-rpi3/RPi3_OPTEE_3.1/optee_os/lib/libutee/tee_api_operations.c:310
    1ed4:	53017ee0 	lsr	w0, w23, #1
/home/zliu/ubuntu-optee-rpi3/RPi3_OPTEE_3.1/optee_os/lib/libutee/tee_api_operations.c:312
    1ed8:	910082a2 	add	x2, x21, #0x20
/home/zliu/ubuntu-optee-rpi3/RPi3_OPTEE_3.1/optee_os/lib/libutee/tee_api_operations.c:310
    1edc:	f26d003f 	tst	x1, #0x80000
    1ee0:	1a971017 	csel	w23, w0, w23, ne  // ne = any
/home/zliu/ubuntu-optee-rpi3/RPi3_OPTEE_3.1/optee_os/lib/libutee/tee_api_operations.c:312
    1ee4:	2a1603e0 	mov	w0, w22
    1ee8:	2a1703e1 	mov	w1, w23
    1eec:	97fffb9d 	bl	d60 <TEE_AllocateTransientObject>
    1ef0:	2a0003f4 	mov	w20, w0
/home/zliu/ubuntu-optee-rpi3/RPi3_OPTEE_3.1/optee_os/lib/libutee/tee_api_operations.c:313
    1ef4:	35000120 	cbnz	w0, 1f18 <TEE_AllocateOperation+0x7cc>
/home/zliu/ubuntu-optee-rpi3/RPi3_OPTEE_3.1/optee_os/lib/libutee/tee_api_operations.c:316
    1ef8:	b9401ea0 	ldr	w0, [x21, #28]
    1efc:	369ff7c0 	tbz	w0, #19, 1df4 <TEE_AllocateOperation+0x6a8>
/home/zliu/ubuntu-optee-rpi3/RPi3_OPTEE_3.1/optee_os/lib/libutee/tee_api_operations.c:317
    1f00:	9100a2a2 	add	x2, x21, #0x28
    1f04:	2a1703e1 	mov	w1, w23
    1f08:	2a1603e0 	mov	w0, w22
    1f0c:	97fffb95 	bl	d60 <TEE_AllocateTransientObject>
    1f10:	2a0003f4 	mov	w20, w0
/home/zliu/ubuntu-optee-rpi3/RPi3_OPTEE_3.1/optee_os/lib/libutee/tee_api_operations.c:319
    1f14:	34fff700 	cbz	w0, 1df4 <TEE_AllocateOperation+0x6a8>
/home/zliu/ubuntu-optee-rpi3/RPi3_OPTEE_3.1/optee_os/lib/libutee/tee_api_operations.c:349
    1f18:	529ffec0 	mov	w0, #0xfff6                	// #65526
    1f1c:	0b000280 	add	w0, w20, w0
/home/zliu/ubuntu-optee-rpi3/RPi3_OPTEE_3.1/optee_os/lib/libutee/tee_api_operations.c:348
    1f20:	721e781f 	tst	w0, #0xfffffffd
    1f24:	54000060 	b.eq	1f30 <TEE_AllocateOperation+0x7e4>  // b.none
/home/zliu/ubuntu-optee-rpi3/RPi3_OPTEE_3.1/optee_os/lib/libutee/tee_api_operations.c:350
    1f28:	2a1403e0 	mov	w0, w20
    1f2c:	940006fa 	bl	3b14 <TEE_Panic>
/home/zliu/ubuntu-optee-rpi3/RPi3_OPTEE_3.1/optee_os/lib/libutee/tee_api_operations.c:352
    1f30:	b9405aa0 	ldr	w0, [x21, #88]
    1f34:	34000080 	cbz	w0, 1f44 <TEE_AllocateOperation+0x7f8>
/home/zliu/ubuntu-optee-rpi3/RPi3_OPTEE_3.1/optee_os/lib/libutee/tee_api_operations.c:353
    1f38:	aa1503e0 	mov	x0, x21
    1f3c:	97fffdf3 	bl	1708 <TEE_FreeOperation>
    1f40:	17fffe82 	b	1948 <TEE_AllocateOperation+0x1fc>
/home/zliu/ubuntu-optee-rpi3/RPi3_OPTEE_3.1/optee_os/lib/libutee/tee_api_operations.c:355
    1f44:	f9401ea0 	ldr	x0, [x21, #56]
    1f48:	97fffabc 	bl	a38 <TEE_Free>
/home/zliu/ubuntu-optee-rpi3/RPi3_OPTEE_3.1/optee_os/lib/libutee/tee_api_operations.c:356
    1f4c:	f94012a0 	ldr	x0, [x21, #32]
    1f50:	97fffb9d 	bl	dc4 <TEE_FreeTransientObject>
/home/zliu/ubuntu-optee-rpi3/RPi3_OPTEE_3.1/optee_os/lib/libutee/tee_api_operations.c:357
    1f54:	f94016a0 	ldr	x0, [x21, #40]
    1f58:	97fffb9b 	bl	dc4 <TEE_FreeTransientObject>
/home/zliu/ubuntu-optee-rpi3/RPi3_OPTEE_3.1/optee_os/lib/libutee/tee_api_operations.c:358
    1f5c:	aa1503e0 	mov	x0, x21
    1f60:	97fffab6 	bl	a38 <TEE_Free>
    1f64:	17fffe79 	b	1948 <TEE_AllocateOperation+0x1fc>
    1f68:	2a0003f4 	mov	w20, w0
    1f6c:	17ffffeb 	b	1f18 <TEE_AllocateOperation+0x7cc>

0000000000001f70 <TEE_GetOperationInfo>:
TEE_GetOperationInfo():
/home/zliu/ubuntu-optee-rpi3/RPi3_OPTEE_3.1/optee_os/lib/libutee/tee_api_operations.c:388
    1f70:	a9be7bfd 	stp	x29, x30, [sp, #-32]!
    1f74:	910003fd 	mov	x29, sp
    1f78:	a90153f3 	stp	x19, x20, [sp, #16]
    1f7c:	aa0003f4 	mov	x20, x0
    1f80:	aa0103f3 	mov	x19, x1
/home/zliu/ubuntu-optee-rpi3/RPi3_OPTEE_3.1/optee_os/lib/libutee/tee_api_operations.c:389
    1f84:	b5000060 	cbnz	x0, 1f90 <TEE_GetOperationInfo+0x20>
/home/zliu/ubuntu-optee-rpi3/RPi3_OPTEE_3.1/optee_os/lib/libutee/tee_api_operations.c:390
    1f88:	52800000 	mov	w0, #0x0                   	// #0
    1f8c:	940006e2 	bl	3b14 <TEE_Panic>
/home/zliu/ubuntu-optee-rpi3/RPi3_OPTEE_3.1/optee_os/lib/libutee/tee_api_operations.c:392
    1f90:	b5000073 	cbnz	x19, 1f9c <TEE_GetOperationInfo+0x2c>
/home/zliu/ubuntu-optee-rpi3/RPi3_OPTEE_3.1/optee_os/lib/libutee/tee_api_operations.c:393
    1f94:	52800000 	mov	w0, #0x0                   	// #0
    1f98:	940006df 	bl	3b14 <TEE_Panic>
/home/zliu/ubuntu-optee-rpi3/RPi3_OPTEE_3.1/optee_os/lib/libutee/tee_api_operations.c:395
    1f9c:	aa1403e1 	mov	x1, x20
    1fa0:	d2800402 	mov	x2, #0x20                  	// #32
    1fa4:	aa1303e0 	mov	x0, x19
    1fa8:	94001059 	bl	610c <memcpy>
/home/zliu/ubuntu-optee-rpi3/RPi3_OPTEE_3.1/optee_os/lib/libutee/tee_api_operations.c:396
    1fac:	a94153f3 	ldp	x19, x20, [sp, #16]
    1fb0:	a8c27bfd 	ldp	x29, x30, [sp], #32
    1fb4:	d65f03c0 	ret

0000000000001fb8 <TEE_GetOperationInfoMultiple>:
TEE_GetOperationInfoMultiple():
/home/zliu/ubuntu-optee-rpi3/RPi3_OPTEE_3.1/optee_os/lib/libutee/tee_api_operations.c:401
    1fb8:	a9b97bfd 	stp	x29, x30, [sp, #-112]!
/home/zliu/ubuntu-optee-rpi3/RPi3_OPTEE_3.1/optee_os/lib/libutee/tee_api_operations.c:418
    1fbc:	f100005f 	cmp	x2, #0x0
    1fc0:	fa401824 	ccmp	x1, #0x0, #0x4, ne  // ne = any
/home/zliu/ubuntu-optee-rpi3/RPi3_OPTEE_3.1/optee_os/lib/libutee/tee_api_operations.c:401
    1fc4:	910003fd 	mov	x29, sp
    1fc8:	a9025bf5 	stp	x21, x22, [sp, #32]
/home/zliu/ubuntu-optee-rpi3/RPi3_OPTEE_3.1/optee_os/lib/libutee/tee_api_operations.c:418
    1fcc:	fa401804 	ccmp	x0, #0x0, #0x4, ne  // ne = any
/home/zliu/ubuntu-optee-rpi3/RPi3_OPTEE_3.1/optee_os/lib/libutee/tee_api_operations.c:401
    1fd0:	a90153f3 	stp	x19, x20, [sp, #16]
/home/zliu/ubuntu-optee-rpi3/RPi3_OPTEE_3.1/optee_os/lib/libutee/tee_api_operations.c:419
    1fd4:	129fff35 	mov	w21, #0xffff0006            	// #-65530
/home/zliu/ubuntu-optee-rpi3/RPi3_OPTEE_3.1/optee_os/lib/libutee/tee_api_operations.c:418
    1fd8:	540004a0 	b.eq	206c <TEE_GetOperationInfoMultiple+0xb4>  // b.none
/home/zliu/ubuntu-optee-rpi3/RPi3_OPTEE_3.1/optee_os/lib/libutee/tee_api_operations.c:423
    1fdc:	b9400056 	ldr	w22, [x2]
    1fe0:	d10082d6 	sub	x22, x22, #0x20
    1fe4:	d343fed6 	lsr	x22, x22, #3
/home/zliu/ubuntu-optee-rpi3/RPi3_OPTEE_3.1/optee_os/lib/libutee/tee_api_operations.c:426
    1fe8:	71000adf 	cmp	w22, #0x2
    1fec:	54000408 	b.hi	206c <TEE_GetOperationInfoMultiple+0xb4>  // b.pmore
    1ff0:	aa0003f4 	mov	x20, x0
/home/zliu/ubuntu-optee-rpi3/RPi3_OPTEE_3.1/optee_os/lib/libutee/tee_api_operations.c:432
    1ff4:	b9401c00 	ldr	w0, [x0, #28]
/home/zliu/ubuntu-optee-rpi3/RPi3_OPTEE_3.1/optee_os/lib/libutee/tee_api_operations.c:435
    1ff8:	129ffdf5 	mov	w21, #0xffff0010            	// #-65520
/home/zliu/ubuntu-optee-rpi3/RPi3_OPTEE_3.1/optee_os/lib/libutee/tee_api_operations.c:433
    1ffc:	f26d001f 	tst	x0, #0x80000
    2000:	7a421ac4 	ccmp	w22, #0x2, #0x4, ne  // ne = any
    2004:	54000341 	b.ne	206c <TEE_GetOperationInfoMultiple+0xb4>  // b.any
/home/zliu/ubuntu-optee-rpi3/RPi3_OPTEE_3.1/optee_os/lib/libutee/tee_api_operations.c:440
    2008:	92407ec2 	and	x2, x22, #0xffffffff
    200c:	aa0103f3 	mov	x19, x1
    2010:	91008020 	add	x0, x1, #0x20
/home/zliu/ubuntu-optee-rpi3/RPi3_OPTEE_3.1/optee_os/lib/libutee/tee_api_operations.c:433
    2014:	d2800001 	mov	x1, #0x0                   	// #0
/home/zliu/ubuntu-optee-rpi3/RPi3_OPTEE_3.1/optee_os/lib/libutee/tee_api_operations.c:440 (discriminator 1)
    2018:	eb02003f 	cmp	x1, x2
    201c:	540003e3 	b.cc	2098 <TEE_GetOperationInfoMultiple+0xe0>  // b.lo, b.ul, b.last
/home/zliu/ubuntu-optee-rpi3/RPi3_OPTEE_3.1/optee_os/lib/libutee/tee_api_operations.c:445
    2020:	71000adf 	cmp	w22, #0x2
    2024:	54000421 	b.ne	20a8 <TEE_GetOperationInfoMultiple+0xf0>  // b.any
/home/zliu/ubuntu-optee-rpi3/RPi3_OPTEE_3.1/optee_os/lib/libutee/tee_api_operations.c:446
    2028:	f9401680 	ldr	x0, [x20, #40]
    202c:	910143a1 	add	x1, x29, #0x50
    2030:	97fffaae 	bl	ae8 <TEE_GetObjectInfo1>
    2034:	2a0003f5 	mov	w21, w0
/home/zliu/ubuntu-optee-rpi3/RPi3_OPTEE_3.1/optee_os/lib/libutee/tee_api_operations.c:448
    2038:	350001a0 	cbnz	w0, 206c <TEE_GetOperationInfoMultiple+0xb4>
/home/zliu/ubuntu-optee-rpi3/RPi3_OPTEE_3.1/optee_os/lib/libutee/tee_api_operations.c:451
    203c:	b94057a0 	ldr	w0, [x29, #84]
    2040:	b9002a60 	str	w0, [x19, #40]
/home/zliu/ubuntu-optee-rpi3/RPi3_OPTEE_3.1/optee_os/lib/libutee/tee_api_operations.c:453
    2044:	b9401a80 	ldr	w0, [x20, #24]
    2048:	b9002e60 	str	w0, [x19, #44]
/home/zliu/ubuntu-optee-rpi3/RPi3_OPTEE_3.1/optee_os/lib/libutee/tee_api_operations.c:458
    204c:	f9401280 	ldr	x0, [x20, #32]
    2050:	9100c3a1 	add	x1, x29, #0x30
    2054:	97fffaa5 	bl	ae8 <TEE_GetObjectInfo1>
    2058:	2a0003f5 	mov	w21, w0
/home/zliu/ubuntu-optee-rpi3/RPi3_OPTEE_3.1/optee_os/lib/libutee/tee_api_operations.c:460
    205c:	34000480 	cbz	w0, 20ec <TEE_GetOperationInfoMultiple+0x134>
/home/zliu/ubuntu-optee-rpi3/RPi3_OPTEE_3.1/optee_os/lib/libutee/tee_api_operations.c:461
    2060:	71000adf 	cmp	w22, #0x2
    2064:	54000041 	b.ne	206c <TEE_GetOperationInfoMultiple+0xb4>  // b.any
/home/zliu/ubuntu-optee-rpi3/RPi3_OPTEE_3.1/optee_os/lib/libutee/tee_api_operations.c:465
    2068:	29057e7f 	stp	wzr, wzr, [x19, #40]
/home/zliu/ubuntu-optee-rpi3/RPi3_OPTEE_3.1/optee_os/lib/libutee/tee_api_operations.c:487
    206c:	710002bf 	cmp	w21, #0x0
    2070:	129ffde0 	mov	w0, #0xffff0010            	// #-65520
    2074:	7a4012a4 	ccmp	w21, w0, #0x4, ne  // ne = any
    2078:	54000060 	b.eq	2084 <TEE_GetOperationInfoMultiple+0xcc>  // b.none
/home/zliu/ubuntu-optee-rpi3/RPi3_OPTEE_3.1/optee_os/lib/libutee/tee_api_operations.c:489
    207c:	2a1503e0 	mov	w0, w21
    2080:	940006a5 	bl	3b14 <TEE_Panic>
/home/zliu/ubuntu-optee-rpi3/RPi3_OPTEE_3.1/optee_os/lib/libutee/tee_api_operations.c:492
    2084:	2a1503e0 	mov	w0, w21
    2088:	a94153f3 	ldp	x19, x20, [sp, #16]
    208c:	a9425bf5 	ldp	x21, x22, [sp, #32]
    2090:	a8c77bfd 	ldp	x29, x30, [sp], #112
    2094:	d65f03c0 	ret
/home/zliu/ubuntu-optee-rpi3/RPi3_OPTEE_3.1/optee_os/lib/libutee/tee_api_operations.c:442 (discriminator 3)
    2098:	29007c1f 	stp	wzr, wzr, [x0]
/home/zliu/ubuntu-optee-rpi3/RPi3_OPTEE_3.1/optee_os/lib/libutee/tee_api_operations.c:440 (discriminator 3)
    209c:	91000421 	add	x1, x1, #0x1
    20a0:	91002000 	add	x0, x0, #0x8
    20a4:	17ffffdd 	b	2018 <TEE_GetOperationInfoMultiple+0x60>
/home/zliu/ubuntu-optee-rpi3/RPi3_OPTEE_3.1/optee_os/lib/libutee/tee_api_operations.c:457
    20a8:	35fffd36 	cbnz	w22, 204c <TEE_GetOperationInfoMultiple+0x94>
/home/zliu/ubuntu-optee-rpi3/RPi3_OPTEE_3.1/optee_os/lib/libutee/tee_api_operations.c:477
    20ac:	b9400280 	ldr	w0, [x20]
/home/zliu/ubuntu-optee-rpi3/RPi3_OPTEE_3.1/optee_os/lib/libutee/tee_api_operations.c:484
    20b0:	52800015 	mov	w21, #0x0                   	// #0
/home/zliu/ubuntu-optee-rpi3/RPi3_OPTEE_3.1/optee_os/lib/libutee/tee_api_operations.c:477
    20b4:	b9000260 	str	w0, [x19]
/home/zliu/ubuntu-optee-rpi3/RPi3_OPTEE_3.1/optee_os/lib/libutee/tee_api_operations.c:478
    20b8:	b9400680 	ldr	w0, [x20, #4]
    20bc:	b9000660 	str	w0, [x19, #4]
/home/zliu/ubuntu-optee-rpi3/RPi3_OPTEE_3.1/optee_os/lib/libutee/tee_api_operations.c:479
    20c0:	b9400a80 	ldr	w0, [x20, #8]
    20c4:	b9000a60 	str	w0, [x19, #8]
/home/zliu/ubuntu-optee-rpi3/RPi3_OPTEE_3.1/optee_os/lib/libutee/tee_api_operations.c:480
    20c8:	b9400e80 	ldr	w0, [x20, #12]
    20cc:	b9000e60 	str	w0, [x19, #12]
/home/zliu/ubuntu-optee-rpi3/RPi3_OPTEE_3.1/optee_os/lib/libutee/tee_api_operations.c:481
    20d0:	b9401280 	ldr	w0, [x20, #16]
    20d4:	b9001260 	str	w0, [x19, #16]
/home/zliu/ubuntu-optee-rpi3/RPi3_OPTEE_3.1/optee_os/lib/libutee/tee_api_operations.c:482
    20d8:	b9401e80 	ldr	w0, [x20, #28]
    20dc:	b9001660 	str	w0, [x19, #20]
/home/zliu/ubuntu-optee-rpi3/RPi3_OPTEE_3.1/optee_os/lib/libutee/tee_api_operations.c:483
    20e0:	b9403280 	ldr	w0, [x20, #48]
/home/zliu/ubuntu-optee-rpi3/RPi3_OPTEE_3.1/optee_os/lib/libutee/tee_api_operations.c:484
    20e4:	29035a60 	stp	w0, w22, [x19, #24]
    20e8:	17ffffe1 	b	206c <TEE_GetOperationInfoMultiple+0xb4>
/home/zliu/ubuntu-optee-rpi3/RPi3_OPTEE_3.1/optee_os/lib/libutee/tee_api_operations.c:470
    20ec:	b94037a0 	ldr	w0, [x29, #52]
    20f0:	b9002260 	str	w0, [x19, #32]
/home/zliu/ubuntu-optee-rpi3/RPi3_OPTEE_3.1/optee_os/lib/libutee/tee_api_operations.c:472
    20f4:	b9401a80 	ldr	w0, [x20, #24]
    20f8:	b9002660 	str	w0, [x19, #36]
    20fc:	17ffffec 	b	20ac <TEE_GetOperationInfoMultiple+0xf4>

0000000000002100 <TEE_ResetOperation>:
TEE_ResetOperation():
/home/zliu/ubuntu-optee-rpi3/RPi3_OPTEE_3.1/optee_os/lib/libutee/tee_api_operations.c:495
    2100:	a9be7bfd 	stp	x29, x30, [sp, #-32]!
    2104:	910003fd 	mov	x29, sp
    2108:	f9000bf3 	str	x19, [sp, #16]
    210c:	aa0003f3 	mov	x19, x0
/home/zliu/ubuntu-optee-rpi3/RPi3_OPTEE_3.1/optee_os/lib/libutee/tee_api_operations.c:498
    2110:	b5000060 	cbnz	x0, 211c <TEE_ResetOperation+0x1c>
/home/zliu/ubuntu-optee-rpi3/RPi3_OPTEE_3.1/optee_os/lib/libutee/tee_api_operations.c:499
    2114:	52800000 	mov	w0, #0x0                   	// #0
    2118:	9400067f 	bl	3b14 <TEE_Panic>
/home/zliu/ubuntu-optee-rpi3/RPi3_OPTEE_3.1/optee_os/lib/libutee/tee_api_operations.c:501
    211c:	b9401e60 	ldr	w0, [x19, #28]
    2120:	37900060 	tbnz	w0, #18, 212c <TEE_ResetOperation+0x2c>
/home/zliu/ubuntu-optee-rpi3/RPi3_OPTEE_3.1/optee_os/lib/libutee/tee_api_operations.c:502
    2124:	52800000 	mov	w0, #0x0                   	// #0
    2128:	9400067b 	bl	3b14 <TEE_Panic>
/home/zliu/ubuntu-optee-rpi3/RPi3_OPTEE_3.1/optee_os/lib/libutee/tee_api_operations.c:506
    212c:	b9400660 	ldr	w0, [x19, #4]
/home/zliu/ubuntu-optee-rpi3/RPi3_OPTEE_3.1/optee_os/lib/libutee/tee_api_operations.c:504
    2130:	b900327f 	str	wzr, [x19, #48]
/home/zliu/ubuntu-optee-rpi3/RPi3_OPTEE_3.1/optee_os/lib/libutee/tee_api_operations.c:506
    2134:	7100141f 	cmp	w0, #0x5
    2138:	540001a1 	b.ne	216c <TEE_ResetOperation+0x6c>  // b.any
/home/zliu/ubuntu-optee-rpi3/RPi3_OPTEE_3.1/optee_os/lib/libutee/tee_api_operations.c:507
    213c:	b9405a60 	ldr	w0, [x19, #88]
    2140:	d2800002 	mov	x2, #0x0                   	// #0
    2144:	d2800001 	mov	x1, #0x0                   	// #0
    2148:	9400075c 	bl	3eb8 <utee_hash_init>
/home/zliu/ubuntu-optee-rpi3/RPi3_OPTEE_3.1/optee_os/lib/libutee/tee_api_operations.c:508
    214c:	34000040 	cbz	w0, 2154 <TEE_ResetOperation+0x54>
/home/zliu/ubuntu-optee-rpi3/RPi3_OPTEE_3.1/optee_os/lib/libutee/tee_api_operations.c:509
    2150:	94000671 	bl	3b14 <TEE_Panic>
/home/zliu/ubuntu-optee-rpi3/RPi3_OPTEE_3.1/optee_os/lib/libutee/tee_api_operations.c:510
    2154:	b9401e60 	ldr	w0, [x19, #28]
    2158:	320f0000 	orr	w0, w0, #0x20000
/home/zliu/ubuntu-optee-rpi3/RPi3_OPTEE_3.1/optee_os/lib/libutee/tee_api_operations.c:512
    215c:	b9001e60 	str	w0, [x19, #28]
/home/zliu/ubuntu-optee-rpi3/RPi3_OPTEE_3.1/optee_os/lib/libutee/tee_api_operations.c:514
    2160:	f9400bf3 	ldr	x19, [sp, #16]
    2164:	a8c27bfd 	ldp	x29, x30, [sp], #32
    2168:	d65f03c0 	ret
/home/zliu/ubuntu-optee-rpi3/RPi3_OPTEE_3.1/optee_os/lib/libutee/tee_api_operations.c:512
    216c:	b9401e60 	ldr	w0, [x19, #28]
    2170:	120e7800 	and	w0, w0, #0xfffdffff
    2174:	17fffffa 	b	215c <TEE_ResetOperation+0x5c>

0000000000002178 <TEE_SetOperationKey>:
TEE_SetOperationKey():
/home/zliu/ubuntu-optee-rpi3/RPi3_OPTEE_3.1/optee_os/lib/libutee/tee_api_operations.c:518
    2178:	a9bb7bfd 	stp	x29, x30, [sp, #-80]!
    217c:	910003fd 	mov	x29, sp
    2180:	a90153f3 	stp	x19, x20, [sp, #16]
    2184:	a9025bf5 	stp	x21, x22, [sp, #32]
/home/zliu/ubuntu-optee-rpi3/RPi3_OPTEE_3.1/optee_os/lib/libutee/tee_api_operations.c:523
    2188:	b50001e0 	cbnz	x0, 21c4 <TEE_SetOperationKey+0x4c>
/home/zliu/ubuntu-optee-rpi3/RPi3_OPTEE_3.1/optee_os/lib/libutee/tee_api_operations.c:536
    218c:	129fff34 	mov	w20, #0xffff0006            	// #-65530
/home/zliu/ubuntu-optee-rpi3/RPi3_OPTEE_3.1/optee_os/lib/libutee/tee_api_operations.c:585
    2190:	121e7a80 	and	w0, w20, #0xfffffffd
    2194:	7100029f 	cmp	w20, #0x0
    2198:	52800021 	mov	w1, #0x1                   	// #1
    219c:	72be0201 	movk	w1, #0xf010, lsl #16
    21a0:	7a411004 	ccmp	w0, w1, #0x4, ne  // ne = any
    21a4:	54000060 	b.eq	21b0 <TEE_SetOperationKey+0x38>  // b.none
/home/zliu/ubuntu-optee-rpi3/RPi3_OPTEE_3.1/optee_os/lib/libutee/tee_api_operations.c:587
    21a8:	2a1403e0 	mov	w0, w20
    21ac:	9400065a 	bl	3b14 <TEE_Panic>
/home/zliu/ubuntu-optee-rpi3/RPi3_OPTEE_3.1/optee_os/lib/libutee/tee_api_operations.c:590
    21b0:	2a1403e0 	mov	w0, w20
    21b4:	a94153f3 	ldp	x19, x20, [sp, #16]
    21b8:	a9425bf5 	ldp	x21, x22, [sp, #32]
    21bc:	a8c57bfd 	ldp	x29, x30, [sp], #80
    21c0:	d65f03c0 	ret
    21c4:	aa0003f3 	mov	x19, x0
/home/zliu/ubuntu-optee-rpi3/RPi3_OPTEE_3.1/optee_os/lib/libutee/tee_api_operations.c:528
    21c8:	b9403000 	ldr	w0, [x0, #48]
    21cc:	35fffe00 	cbnz	w0, 218c <TEE_SetOperationKey+0x14>
    21d0:	aa0103f5 	mov	x21, x1
/home/zliu/ubuntu-optee-rpi3/RPi3_OPTEE_3.1/optee_os/lib/libutee/tee_api_operations.c:533
    21d4:	b5000081 	cbnz	x1, 21e4 <TEE_SetOperationKey+0x6c>
/home/zliu/ubuntu-optee-rpi3/RPi3_OPTEE_3.1/optee_os/lib/libutee/tee_api_operations.c:535
    21d8:	f9401260 	ldr	x0, [x19, #32]
    21dc:	97fffb0f 	bl	e18 <TEE_ResetTransientObject>
    21e0:	17ffffeb 	b	218c <TEE_SetOperationKey+0x14>
/home/zliu/ubuntu-optee-rpi3/RPi3_OPTEE_3.1/optee_os/lib/libutee/tee_api_operations.c:541
    21e4:	b9400660 	ldr	w0, [x19, #4]
    21e8:	7100141f 	cmp	w0, #0x5
    21ec:	54fffd00 	b.eq	218c <TEE_SetOperationKey+0x14>  // b.none
/home/zliu/ubuntu-optee-rpi3/RPi3_OPTEE_3.1/optee_os/lib/libutee/tee_api_operations.c:547
    21f0:	b9401e60 	ldr	w0, [x19, #28]
    21f4:	379ffcc0 	tbnz	w0, #19, 218c <TEE_SetOperationKey+0x14>
/home/zliu/ubuntu-optee-rpi3/RPi3_OPTEE_3.1/optee_os/lib/libutee/tee_api_operations.c:553
    21f8:	9100c3a1 	add	x1, x29, #0x30
    21fc:	aa1503e0 	mov	x0, x21
    2200:	97fffa3a 	bl	ae8 <TEE_GetObjectInfo1>
    2204:	2a0003f4 	mov	w20, w0
/home/zliu/ubuntu-optee-rpi3/RPi3_OPTEE_3.1/optee_os/lib/libutee/tee_api_operations.c:555
    2208:	35fffc40 	cbnz	w0, 2190 <TEE_SetOperationKey+0x18>
/home/zliu/ubuntu-optee-rpi3/RPi3_OPTEE_3.1/optee_os/lib/libutee/tee_api_operations.c:559
    220c:	b9401a60 	ldr	w0, [x19, #24]
    2210:	b9403fa1 	ldr	w1, [x29, #60]
    2214:	6a21001f 	bics	wzr, w0, w1
    2218:	54fffba1 	b.ne	218c <TEE_SetOperationKey+0x14>  // b.any
/home/zliu/ubuntu-optee-rpi3/RPi3_OPTEE_3.1/optee_os/lib/libutee/tee_api_operations.c:565
    221c:	b9401260 	ldr	w0, [x19, #16]
    2220:	b94037b6 	ldr	w22, [x29, #52]
    2224:	6b16001f 	cmp	w0, w22
    2228:	54fffb23 	b.cc	218c <TEE_SetOperationKey+0x14>  // b.lo, b.ul, b.last
/home/zliu/ubuntu-optee-rpi3/RPi3_OPTEE_3.1/optee_os/lib/libutee/tee_api_operations.c:572
    222c:	f9401260 	ldr	x0, [x19, #32]
    2230:	97fffafa 	bl	e18 <TEE_ResetTransientObject>
/home/zliu/ubuntu-optee-rpi3/RPi3_OPTEE_3.1/optee_os/lib/libutee/tee_api_operations.c:573
    2234:	b9401e60 	ldr	w0, [x19, #28]
/home/zliu/ubuntu-optee-rpi3/RPi3_OPTEE_3.1/optee_os/lib/libutee/tee_api_operations.c:575
    2238:	aa1503e1 	mov	x1, x21
/home/zliu/ubuntu-optee-rpi3/RPi3_OPTEE_3.1/optee_os/lib/libutee/tee_api_operations.c:573
    223c:	120d7800 	and	w0, w0, #0xfffbffff
    2240:	b9001e60 	str	w0, [x19, #28]
/home/zliu/ubuntu-optee-rpi3/RPi3_OPTEE_3.1/optee_os/lib/libutee/tee_api_operations.c:575
    2244:	f9401260 	ldr	x0, [x19, #32]
    2248:	97fffb62 	bl	fd0 <TEE_CopyObjectAttributes1>
    224c:	2a0003f4 	mov	w20, w0
/home/zliu/ubuntu-optee-rpi3/RPi3_OPTEE_3.1/optee_os/lib/libutee/tee_api_operations.c:576
    2250:	35fffa00 	cbnz	w0, 2190 <TEE_SetOperationKey+0x18>
/home/zliu/ubuntu-optee-rpi3/RPi3_OPTEE_3.1/optee_os/lib/libutee/tee_api_operations.c:579
    2254:	b9401e60 	ldr	w0, [x19, #28]
/home/zliu/ubuntu-optee-rpi3/RPi3_OPTEE_3.1/optee_os/lib/libutee/tee_api_operations.c:581
    2258:	b9001676 	str	w22, [x19, #20]
/home/zliu/ubuntu-optee-rpi3/RPi3_OPTEE_3.1/optee_os/lib/libutee/tee_api_operations.c:579
    225c:	320e0000 	orr	w0, w0, #0x40000
    2260:	b9001e60 	str	w0, [x19, #28]
    2264:	17ffffcb 	b	2190 <TEE_SetOperationKey+0x18>

0000000000002268 <TEE_SetOperationKey2>:
TEE_SetOperationKey2():
/home/zliu/ubuntu-optee-rpi3/RPi3_OPTEE_3.1/optee_os/lib/libutee/tee_api_operations.c:594
    2268:	a9b87bfd 	stp	x29, x30, [sp, #-128]!
    226c:	910003fd 	mov	x29, sp
    2270:	a90153f3 	stp	x19, x20, [sp, #16]
    2274:	a9025bf5 	stp	x21, x22, [sp, #32]
    2278:	f9001bf7 	str	x23, [sp, #48]
/home/zliu/ubuntu-optee-rpi3/RPi3_OPTEE_3.1/optee_os/lib/libutee/tee_api_operations.c:600
    227c:	b50001e0 	cbnz	x0, 22b8 <TEE_SetOperationKey2+0x50>
/home/zliu/ubuntu-optee-rpi3/RPi3_OPTEE_3.1/optee_os/lib/libutee/tee_api_operations.c:621
    2280:	129fff34 	mov	w20, #0xffff0006            	// #-65530
/home/zliu/ubuntu-optee-rpi3/RPi3_OPTEE_3.1/optee_os/lib/libutee/tee_api_operations.c:708
    2284:	12be0200 	mov	w0, #0xfefffff             	// #267386879
/home/zliu/ubuntu-optee-rpi3/RPi3_OPTEE_3.1/optee_os/lib/libutee/tee_api_operations.c:707
    2288:	7100029f 	cmp	w20, #0x0
/home/zliu/ubuntu-optee-rpi3/RPi3_OPTEE_3.1/optee_os/lib/libutee/tee_api_operations.c:708
    228c:	0b000280 	add	w0, w20, w0
/home/zliu/ubuntu-optee-rpi3/RPi3_OPTEE_3.1/optee_os/lib/libutee/tee_api_operations.c:707
    2290:	7a431800 	ccmp	w0, #0x3, #0x0, ne  // ne = any
    2294:	54000069 	b.ls	22a0 <TEE_SetOperationKey2+0x38>  // b.plast
/home/zliu/ubuntu-optee-rpi3/RPi3_OPTEE_3.1/optee_os/lib/libutee/tee_api_operations.c:712
    2298:	2a1403e0 	mov	w0, w20
    229c:	9400061e 	bl	3b14 <TEE_Panic>
/home/zliu/ubuntu-optee-rpi3/RPi3_OPTEE_3.1/optee_os/lib/libutee/tee_api_operations.c:715
    22a0:	2a1403e0 	mov	w0, w20
    22a4:	f9401bf7 	ldr	x23, [sp, #48]
    22a8:	a94153f3 	ldp	x19, x20, [sp, #16]
    22ac:	a9425bf5 	ldp	x21, x22, [sp, #32]
    22b0:	a8c87bfd 	ldp	x29, x30, [sp], #128
    22b4:	d65f03c0 	ret
    22b8:	aa0003f3 	mov	x19, x0
/home/zliu/ubuntu-optee-rpi3/RPi3_OPTEE_3.1/optee_os/lib/libutee/tee_api_operations.c:605
    22bc:	b9403000 	ldr	w0, [x0, #48]
    22c0:	35fffe00 	cbnz	w0, 2280 <TEE_SetOperationKey2+0x18>
/home/zliu/ubuntu-optee-rpi3/RPi3_OPTEE_3.1/optee_os/lib/libutee/tee_api_operations.c:614
    22c4:	f100003f 	cmp	x1, #0x0
    22c8:	aa0103f6 	mov	x22, x1
    22cc:	aa0203f5 	mov	x21, x2
    22d0:	fa401844 	ccmp	x2, #0x0, #0x4, ne  // ne = any
    22d4:	54000121 	b.ne	22f8 <TEE_SetOperationKey2+0x90>  // b.any
/home/zliu/ubuntu-optee-rpi3/RPi3_OPTEE_3.1/optee_os/lib/libutee/tee_api_operations.c:616
    22d8:	b4000081 	cbz	x1, 22e8 <TEE_SetOperationKey2+0x80>
/home/zliu/ubuntu-optee-rpi3/RPi3_OPTEE_3.1/optee_os/lib/libutee/tee_api_operations.c:620
    22dc:	f9401660 	ldr	x0, [x19, #40]
    22e0:	97ffface 	bl	e18 <TEE_ResetTransientObject>
    22e4:	17ffffe7 	b	2280 <TEE_SetOperationKey2+0x18>
/home/zliu/ubuntu-optee-rpi3/RPi3_OPTEE_3.1/optee_os/lib/libutee/tee_api_operations.c:617
    22e8:	f9401260 	ldr	x0, [x19, #32]
    22ec:	97fffacb 	bl	e18 <TEE_ResetTransientObject>
/home/zliu/ubuntu-optee-rpi3/RPi3_OPTEE_3.1/optee_os/lib/libutee/tee_api_operations.c:619
    22f0:	b5fffc95 	cbnz	x21, 2280 <TEE_SetOperationKey2+0x18>
    22f4:	17fffffa 	b	22dc <TEE_SetOperationKey2+0x74>
/home/zliu/ubuntu-optee-rpi3/RPi3_OPTEE_3.1/optee_os/lib/libutee/tee_api_operations.c:626
    22f8:	b9400660 	ldr	w0, [x19, #4]
    22fc:	7100141f 	cmp	w0, #0x5
    2300:	54fffc00 	b.eq	2280 <TEE_SetOperationKey2+0x18>  // b.none
/home/zliu/ubuntu-optee-rpi3/RPi3_OPTEE_3.1/optee_os/lib/libutee/tee_api_operations.c:632
    2304:	b9401e60 	ldr	w0, [x19, #28]
    2308:	369ffbc0 	tbz	w0, #19, 2280 <TEE_SetOperationKey2+0x18>
/home/zliu/ubuntu-optee-rpi3/RPi3_OPTEE_3.1/optee_os/lib/libutee/tee_api_operations.c:638
    230c:	910103a1 	add	x1, x29, #0x40
    2310:	aa1603e0 	mov	x0, x22
    2314:	97fff9f5 	bl	ae8 <TEE_GetObjectInfo1>
    2318:	2a0003f4 	mov	w20, w0
/home/zliu/ubuntu-optee-rpi3/RPi3_OPTEE_3.1/optee_os/lib/libutee/tee_api_operations.c:640
    231c:	35fffb40 	cbnz	w0, 2284 <TEE_SetOperationKey2+0x1c>
/home/zliu/ubuntu-optee-rpi3/RPi3_OPTEE_3.1/optee_os/lib/libutee/tee_api_operations.c:644
    2320:	b9401a60 	ldr	w0, [x19, #24]
    2324:	b9404fa1 	ldr	w1, [x29, #76]
    2328:	6a21001f 	bics	wzr, w0, w1
    232c:	54fffaa1 	b.ne	2280 <TEE_SetOperationKey2+0x18>  // b.any
/home/zliu/ubuntu-optee-rpi3/RPi3_OPTEE_3.1/optee_os/lib/libutee/tee_api_operations.c:650
    2330:	910183a1 	add	x1, x29, #0x60
    2334:	aa1503e0 	mov	x0, x21
    2338:	97fff9ec 	bl	ae8 <TEE_GetObjectInfo1>
    233c:	2a0003f4 	mov	w20, w0
/home/zliu/ubuntu-optee-rpi3/RPi3_OPTEE_3.1/optee_os/lib/libutee/tee_api_operations.c:652
    2340:	34000100 	cbz	w0, 2360 <TEE_SetOperationKey2+0xf8>
/home/zliu/ubuntu-optee-rpi3/RPi3_OPTEE_3.1/optee_os/lib/libutee/tee_api_operations.c:653
    2344:	52800020 	mov	w0, #0x1                   	// #1
    2348:	72be0200 	movk	w0, #0xf010, lsl #16
    234c:	6b00029f 	cmp	w20, w0
    2350:	54fff9a1 	b.ne	2284 <TEE_SetOperationKey2+0x1c>  // b.any
/home/zliu/ubuntu-optee-rpi3/RPi3_OPTEE_3.1/optee_os/lib/libutee/tee_api_operations.c:654
    2354:	52800054 	mov	w20, #0x2                   	// #2
    2358:	72be0214 	movk	w20, #0xf010, lsl #16
    235c:	17ffffca 	b	2284 <TEE_SetOperationKey2+0x1c>
/home/zliu/ubuntu-optee-rpi3/RPi3_OPTEE_3.1/optee_os/lib/libutee/tee_api_operations.c:659
    2360:	b9401a60 	ldr	w0, [x19, #24]
    2364:	b9406fa1 	ldr	w1, [x29, #108]
    2368:	6a21001f 	bics	wzr, w0, w1
    236c:	54fff8a1 	b.ne	2280 <TEE_SetOperationKey2+0x18>  // b.any
/home/zliu/ubuntu-optee-rpi3/RPi3_OPTEE_3.1/optee_os/lib/libutee/tee_api_operations.c:669
    2370:	b9400261 	ldr	w1, [x19]
    2374:	52808200 	mov	w0, #0x410                 	// #1040
    2378:	72a20000 	movk	w0, #0x1000, lsl #16
    237c:	b94047b7 	ldr	w23, [x29, #68]
    2380:	6b00003f 	cmp	w1, w0
    2384:	54000081 	b.ne	2394 <TEE_SetOperationKey2+0x12c>  // b.any
/home/zliu/ubuntu-optee-rpi3/RPi3_OPTEE_3.1/optee_os/lib/libutee/tee_api_operations.c:669 (discriminator 1)
    2388:	b94067a0 	ldr	w0, [x29, #100]
    238c:	6b0002ff 	cmp	w23, w0
    2390:	54fff781 	b.ne	2280 <TEE_SetOperationKey2+0x18>  // b.any
/home/zliu/ubuntu-optee-rpi3/RPi3_OPTEE_3.1/optee_os/lib/libutee/tee_api_operations.c:676
    2394:	b9401260 	ldr	w0, [x19, #16]
    2398:	6b17001f 	cmp	w0, w23
    239c:	54fff723 	b.cc	2280 <TEE_SetOperationKey2+0x18>  // b.lo, b.ul, b.last
/home/zliu/ubuntu-optee-rpi3/RPi3_OPTEE_3.1/optee_os/lib/libutee/tee_api_operations.c:687
    23a0:	f9401260 	ldr	x0, [x19, #32]
    23a4:	97fffa9d 	bl	e18 <TEE_ResetTransientObject>
/home/zliu/ubuntu-optee-rpi3/RPi3_OPTEE_3.1/optee_os/lib/libutee/tee_api_operations.c:688
    23a8:	f9401660 	ldr	x0, [x19, #40]
    23ac:	97fffa9b 	bl	e18 <TEE_ResetTransientObject>
/home/zliu/ubuntu-optee-rpi3/RPi3_OPTEE_3.1/optee_os/lib/libutee/tee_api_operations.c:689
    23b0:	b9401e60 	ldr	w0, [x19, #28]
/home/zliu/ubuntu-optee-rpi3/RPi3_OPTEE_3.1/optee_os/lib/libutee/tee_api_operations.c:691
    23b4:	aa1603e1 	mov	x1, x22
/home/zliu/ubuntu-optee-rpi3/RPi3_OPTEE_3.1/optee_os/lib/libutee/tee_api_operations.c:689
    23b8:	120d7800 	and	w0, w0, #0xfffbffff
    23bc:	b9001e60 	str	w0, [x19, #28]
/home/zliu/ubuntu-optee-rpi3/RPi3_OPTEE_3.1/optee_os/lib/libutee/tee_api_operations.c:691
    23c0:	f9401260 	ldr	x0, [x19, #32]
    23c4:	97fffb03 	bl	fd0 <TEE_CopyObjectAttributes1>
    23c8:	2a0003f4 	mov	w20, w0
/home/zliu/ubuntu-optee-rpi3/RPi3_OPTEE_3.1/optee_os/lib/libutee/tee_api_operations.c:692
    23cc:	35fff5c0 	cbnz	w0, 2284 <TEE_SetOperationKey2+0x1c>
/home/zliu/ubuntu-optee-rpi3/RPi3_OPTEE_3.1/optee_os/lib/libutee/tee_api_operations.c:695
    23d0:	f9401660 	ldr	x0, [x19, #40]
    23d4:	aa1503e1 	mov	x1, x21
    23d8:	97fffafe 	bl	fd0 <TEE_CopyObjectAttributes1>
    23dc:	2a0003f4 	mov	w20, w0
/home/zliu/ubuntu-optee-rpi3/RPi3_OPTEE_3.1/optee_os/lib/libutee/tee_api_operations.c:696
    23e0:	35fffb20 	cbnz	w0, 2344 <TEE_SetOperationKey2+0xdc>
/home/zliu/ubuntu-optee-rpi3/RPi3_OPTEE_3.1/optee_os/lib/libutee/tee_api_operations.c:702
    23e4:	b9401e60 	ldr	w0, [x19, #28]
/home/zliu/ubuntu-optee-rpi3/RPi3_OPTEE_3.1/optee_os/lib/libutee/tee_api_operations.c:704
    23e8:	b9001677 	str	w23, [x19, #20]
/home/zliu/ubuntu-optee-rpi3/RPi3_OPTEE_3.1/optee_os/lib/libutee/tee_api_operations.c:702
    23ec:	320e0000 	orr	w0, w0, #0x40000
    23f0:	b9001e60 	str	w0, [x19, #28]
    23f4:	17ffffa4 	b	2284 <TEE_SetOperationKey2+0x1c>

00000000000023f8 <TEE_CopyOperation>:
TEE_CopyOperation():
/home/zliu/ubuntu-optee-rpi3/RPi3_OPTEE_3.1/optee_os/lib/libutee/tee_api_operations.c:718
    23f8:	a9be7bfd 	stp	x29, x30, [sp, #-32]!
/home/zliu/ubuntu-optee-rpi3/RPi3_OPTEE_3.1/optee_os/lib/libutee/tee_api_operations.c:721
    23fc:	f100001f 	cmp	x0, #0x0
    2400:	fa401824 	ccmp	x1, #0x0, #0x4, ne  // ne = any
/home/zliu/ubuntu-optee-rpi3/RPi3_OPTEE_3.1/optee_os/lib/libutee/tee_api_operations.c:718
    2404:	910003fd 	mov	x29, sp
    2408:	a90153f3 	stp	x19, x20, [sp, #16]
    240c:	aa0003f4 	mov	x20, x0
    2410:	aa0103f3 	mov	x19, x1
/home/zliu/ubuntu-optee-rpi3/RPi3_OPTEE_3.1/optee_os/lib/libutee/tee_api_operations.c:721
    2414:	54000061 	b.ne	2420 <TEE_CopyOperation+0x28>  // b.any
/home/zliu/ubuntu-optee-rpi3/RPi3_OPTEE_3.1/optee_os/lib/libutee/tee_api_operations.c:722
    2418:	52800000 	mov	w0, #0x0                   	// #0
    241c:	940005be 	bl	3b14 <TEE_Panic>
/home/zliu/ubuntu-optee-rpi3/RPi3_OPTEE_3.1/optee_os/lib/libutee/tee_api_operations.c:723
    2420:	b9400260 	ldr	w0, [x19]
    2424:	b9400281 	ldr	w1, [x20]
    2428:	6b00003f 	cmp	w1, w0
    242c:	54000060 	b.eq	2438 <TEE_CopyOperation+0x40>  // b.none
/home/zliu/ubuntu-optee-rpi3/RPi3_OPTEE_3.1/optee_os/lib/libutee/tee_api_operations.c:724
    2430:	52800000 	mov	w0, #0x0                   	// #0
    2434:	940005b8 	bl	3b14 <TEE_Panic>
/home/zliu/ubuntu-optee-rpi3/RPi3_OPTEE_3.1/optee_os/lib/libutee/tee_api_operations.c:725
    2438:	b9400660 	ldr	w0, [x19, #4]
    243c:	7100141f 	cmp	w0, #0x5
    2440:	540000e0 	b.eq	245c <TEE_CopyOperation+0x64>  // b.none
/home/zliu/ubuntu-optee-rpi3/RPi3_OPTEE_3.1/optee_os/lib/libutee/tee_api_operations.c:729
    2444:	b9401e60 	ldr	w0, [x19, #28]
    2448:	369004e0 	tbz	w0, #18, 24e4 <TEE_CopyOperation+0xec>
/home/zliu/ubuntu-optee-rpi3/RPi3_OPTEE_3.1/optee_os/lib/libutee/tee_api_operations.c:731
    244c:	a9420a61 	ldp	x1, x2, [x19, #32]
/home/zliu/ubuntu-optee-rpi3/RPi3_OPTEE_3.1/optee_os/lib/libutee/tee_api_operations.c:734
    2450:	37980500 	tbnz	w0, #19, 24f0 <TEE_CopyOperation+0xf8>
/home/zliu/ubuntu-optee-rpi3/RPi3_OPTEE_3.1/optee_os/lib/libutee/tee_api_operations.c:736
    2454:	aa1403e0 	mov	x0, x20
    2458:	97ffff48 	bl	2178 <TEE_SetOperationKey>
/home/zliu/ubuntu-optee-rpi3/RPi3_OPTEE_3.1/optee_os/lib/libutee/tee_api_operations.c:741
    245c:	b9401e60 	ldr	w0, [x19, #28]
    2460:	b9001e80 	str	w0, [x20, #28]
/home/zliu/ubuntu-optee-rpi3/RPi3_OPTEE_3.1/optee_os/lib/libutee/tee_api_operations.c:742
    2464:	b9401660 	ldr	w0, [x19, #20]
    2468:	b9001680 	str	w0, [x20, #20]
/home/zliu/ubuntu-optee-rpi3/RPi3_OPTEE_3.1/optee_os/lib/libutee/tee_api_operations.c:743
    246c:	b9403260 	ldr	w0, [x19, #48]
/home/zliu/ubuntu-optee-rpi3/RPi3_OPTEE_3.1/optee_os/lib/libutee/tee_api_operations.c:745
    2470:	39410281 	ldrb	w1, [x20, #64]
/home/zliu/ubuntu-optee-rpi3/RPi3_OPTEE_3.1/optee_os/lib/libutee/tee_api_operations.c:743
    2474:	b9003280 	str	w0, [x20, #48]
/home/zliu/ubuntu-optee-rpi3/RPi3_OPTEE_3.1/optee_os/lib/libutee/tee_api_operations.c:745
    2478:	39410260 	ldrb	w0, [x19, #64]
    247c:	6b00003f 	cmp	w1, w0
    2480:	540000a1 	b.ne	2494 <TEE_CopyOperation+0x9c>  // b.any
/home/zliu/ubuntu-optee-rpi3/RPi3_OPTEE_3.1/optee_os/lib/libutee/tee_api_operations.c:745 (discriminator 1)
    2484:	f9402660 	ldr	x0, [x19, #72]
    2488:	f9402681 	ldr	x1, [x20, #72]
    248c:	eb00003f 	cmp	x1, x0
    2490:	54000060 	b.eq	249c <TEE_CopyOperation+0xa4>  // b.none
/home/zliu/ubuntu-optee-rpi3/RPi3_OPTEE_3.1/optee_os/lib/libutee/tee_api_operations.c:747
    2494:	52800000 	mov	w0, #0x0                   	// #0
    2498:	9400059f 	bl	3b14 <TEE_Panic>
/home/zliu/ubuntu-optee-rpi3/RPi3_OPTEE_3.1/optee_os/lib/libutee/tee_api_operations.c:749
    249c:	f9401e81 	ldr	x1, [x20, #56]
    24a0:	f9401e60 	ldr	x0, [x19, #56]
    24a4:	b40002c1 	cbz	x1, 24fc <TEE_CopyOperation+0x104>
/home/zliu/ubuntu-optee-rpi3/RPi3_OPTEE_3.1/optee_os/lib/libutee/tee_api_operations.c:750
    24a8:	b5000040 	cbnz	x0, 24b0 <TEE_CopyOperation+0xb8>
/home/zliu/ubuntu-optee-rpi3/RPi3_OPTEE_3.1/optee_os/lib/libutee/tee_api_operations.c:751
    24ac:	9400059a 	bl	3b14 <TEE_Panic>
/home/zliu/ubuntu-optee-rpi3/RPi3_OPTEE_3.1/optee_os/lib/libutee/tee_api_operations.c:753
    24b0:	f9401e61 	ldr	x1, [x19, #56]
    24b4:	f9402a62 	ldr	x2, [x19, #80]
    24b8:	f9401e80 	ldr	x0, [x20, #56]
    24bc:	94000f14 	bl	610c <memcpy>
/home/zliu/ubuntu-optee-rpi3/RPi3_OPTEE_3.1/optee_os/lib/libutee/tee_api_operations.c:754
    24c0:	f9402a60 	ldr	x0, [x19, #80]
    24c4:	f9002a80 	str	x0, [x20, #80]
/home/zliu/ubuntu-optee-rpi3/RPi3_OPTEE_3.1/optee_os/lib/libutee/tee_api_operations.c:759
    24c8:	b9405a61 	ldr	w1, [x19, #88]
    24cc:	b9405a80 	ldr	w0, [x20, #88]
    24d0:	94000674 	bl	3ea0 <utee_cryp_state_copy>
/home/zliu/ubuntu-optee-rpi3/RPi3_OPTEE_3.1/optee_os/lib/libutee/tee_api_operations.c:760
    24d4:	340001c0 	cbz	w0, 250c <TEE_CopyOperation+0x114>
/home/zliu/ubuntu-optee-rpi3/RPi3_OPTEE_3.1/optee_os/lib/libutee/tee_api_operations.c:762
    24d8:	a94153f3 	ldp	x19, x20, [sp, #16]
    24dc:	a8c27bfd 	ldp	x29, x30, [sp], #32
/home/zliu/ubuntu-optee-rpi3/RPi3_OPTEE_3.1/optee_os/lib/libutee/tee_api_operations.c:761
    24e0:	1400058d 	b	3b14 <TEE_Panic>
/home/zliu/ubuntu-optee-rpi3/RPi3_OPTEE_3.1/optee_os/lib/libutee/tee_api_operations.c:727
    24e4:	d2800002 	mov	x2, #0x0                   	// #0
/home/zliu/ubuntu-optee-rpi3/RPi3_OPTEE_3.1/optee_os/lib/libutee/tee_api_operations.c:726
    24e8:	d2800001 	mov	x1, #0x0                   	// #0
    24ec:	17ffffd9 	b	2450 <TEE_CopyOperation+0x58>
/home/zliu/ubuntu-optee-rpi3/RPi3_OPTEE_3.1/optee_os/lib/libutee/tee_api_operations.c:738
    24f0:	aa1403e0 	mov	x0, x20
    24f4:	97ffff5d 	bl	2268 <TEE_SetOperationKey2>
    24f8:	17ffffd9 	b	245c <TEE_CopyOperation+0x64>
/home/zliu/ubuntu-optee-rpi3/RPi3_OPTEE_3.1/optee_os/lib/libutee/tee_api_operations.c:755
    24fc:	b4fffe60 	cbz	x0, 24c8 <TEE_CopyOperation+0xd0>
/home/zliu/ubuntu-optee-rpi3/RPi3_OPTEE_3.1/optee_os/lib/libutee/tee_api_operations.c:756
    2500:	52800000 	mov	w0, #0x0                   	// #0
    2504:	94000584 	bl	3b14 <TEE_Panic>
    2508:	17fffff0 	b	24c8 <TEE_CopyOperation+0xd0>
/home/zliu/ubuntu-optee-rpi3/RPi3_OPTEE_3.1/optee_os/lib/libutee/tee_api_operations.c:762
    250c:	a94153f3 	ldp	x19, x20, [sp, #16]
    2510:	a8c27bfd 	ldp	x29, x30, [sp], #32
    2514:	d65f03c0 	ret

0000000000002518 <TEE_DigestUpdate>:
TEE_DigestUpdate():
/home/zliu/ubuntu-optee-rpi3/RPi3_OPTEE_3.1/optee_os/lib/libutee/tee_api_operations.c:784
    2518:	a9bd7bfd 	stp	x29, x30, [sp, #-48]!
    251c:	910003fd 	mov	x29, sp
    2520:	a90153f3 	stp	x19, x20, [sp, #16]
    2524:	aa0003f3 	mov	x19, x0
    2528:	f90013f5 	str	x21, [sp, #32]
    252c:	aa0103f4 	mov	x20, x1
    2530:	2a0203f5 	mov	w21, w2
/home/zliu/ubuntu-optee-rpi3/RPi3_OPTEE_3.1/optee_os/lib/libutee/tee_api_operations.c:787
    2534:	b4000080 	cbz	x0, 2544 <TEE_DigestUpdate+0x2c>
/home/zliu/ubuntu-optee-rpi3/RPi3_OPTEE_3.1/optee_os/lib/libutee/tee_api_operations.c:787 (discriminator 1)
    2538:	b9400400 	ldr	w0, [x0, #4]
    253c:	7100141f 	cmp	w0, #0x5
    2540:	54000060 	b.eq	254c <TEE_DigestUpdate+0x34>  // b.none
/home/zliu/ubuntu-optee-rpi3/RPi3_OPTEE_3.1/optee_os/lib/libutee/tee_api_operations.c:789
    2544:	52800000 	mov	w0, #0x0                   	// #0
    2548:	94000573 	bl	3b14 <TEE_Panic>
/home/zliu/ubuntu-optee-rpi3/RPi3_OPTEE_3.1/optee_os/lib/libutee/tee_api_operations.c:791
    254c:	52800020 	mov	w0, #0x1                   	// #1
    2550:	b9003260 	str	w0, [x19, #48]
/home/zliu/ubuntu-optee-rpi3/RPi3_OPTEE_3.1/optee_os/lib/libutee/tee_api_operations.c:793
    2554:	b9405a60 	ldr	w0, [x19, #88]
    2558:	2a1503e2 	mov	w2, w21
    255c:	aa1403e1 	mov	x1, x20
    2560:	94000659 	bl	3ec4 <utee_hash_update>
/home/zliu/ubuntu-optee-rpi3/RPi3_OPTEE_3.1/optee_os/lib/libutee/tee_api_operations.c:794
    2564:	340000a0 	cbz	w0, 2578 <TEE_DigestUpdate+0x60>
/home/zliu/ubuntu-optee-rpi3/RPi3_OPTEE_3.1/optee_os/lib/libutee/tee_api_operations.c:796
    2568:	a94153f3 	ldp	x19, x20, [sp, #16]
    256c:	f94013f5 	ldr	x21, [sp, #32]
    2570:	a8c37bfd 	ldp	x29, x30, [sp], #48
/home/zliu/ubuntu-optee-rpi3/RPi3_OPTEE_3.1/optee_os/lib/libutee/tee_api_operations.c:795
    2574:	14000568 	b	3b14 <TEE_Panic>
/home/zliu/ubuntu-optee-rpi3/RPi3_OPTEE_3.1/optee_os/lib/libutee/tee_api_operations.c:796
    2578:	a94153f3 	ldp	x19, x20, [sp, #16]
    257c:	f94013f5 	ldr	x21, [sp, #32]
    2580:	a8c37bfd 	ldp	x29, x30, [sp], #48
    2584:	d65f03c0 	ret

0000000000002588 <TEE_DigestDoFinal>:
TEE_DigestDoFinal():
/home/zliu/ubuntu-optee-rpi3/RPi3_OPTEE_3.1/optee_os/lib/libutee/tee_api_operations.c:800
    2588:	a9bc7bfd 	stp	x29, x30, [sp, #-64]!
    258c:	910003fd 	mov	x29, sp
    2590:	a90153f3 	stp	x19, x20, [sp, #16]
    2594:	aa0003f3 	mov	x19, x0
    2598:	f90013f5 	str	x21, [sp, #32]
/home/zliu/ubuntu-optee-rpi3/RPi3_OPTEE_3.1/optee_os/lib/libutee/tee_api_operations.c:809
    259c:	129fff34 	mov	w20, #0xffff0006            	// #-65530
/home/zliu/ubuntu-optee-rpi3/RPi3_OPTEE_3.1/optee_os/lib/libutee/tee_api_operations.c:804
    25a0:	b4000400 	cbz	x0, 2620 <TEE_DigestDoFinal+0x98>
/home/zliu/ubuntu-optee-rpi3/RPi3_OPTEE_3.1/optee_os/lib/libutee/tee_api_operations.c:805 (discriminator 1)
    25a4:	f100003f 	cmp	x1, #0x0
/home/zliu/ubuntu-optee-rpi3/RPi3_OPTEE_3.1/optee_os/lib/libutee/tee_api_operations.c:804 (discriminator 1)
    25a8:	7a400844 	ccmp	w2, #0x0, #0x4, eq  // eq = none
    25ac:	540003a1 	b.ne	2620 <TEE_DigestDoFinal+0x98>  // b.any
/home/zliu/ubuntu-optee-rpi3/RPi3_OPTEE_3.1/optee_os/lib/libutee/tee_api_operations.c:806
    25b0:	f100007f 	cmp	x3, #0x0
    25b4:	aa0403f5 	mov	x21, x4
    25b8:	fa401884 	ccmp	x4, #0x0, #0x4, ne  // ne = any
    25bc:	54000320 	b.eq	2620 <TEE_DigestDoFinal+0x98>  // b.none
/home/zliu/ubuntu-optee-rpi3/RPi3_OPTEE_3.1/optee_os/lib/libutee/tee_api_operations.c:807
    25c0:	b9400660 	ldr	w0, [x19, #4]
    25c4:	7100141f 	cmp	w0, #0x5
    25c8:	540002c1 	b.ne	2620 <TEE_DigestDoFinal+0x98>  // b.any
/home/zliu/ubuntu-optee-rpi3/RPi3_OPTEE_3.1/optee_os/lib/libutee/tee_api_operations.c:813
    25cc:	910103a4 	add	x4, x29, #0x40
    25d0:	b94002a0 	ldr	w0, [x21]
/home/zliu/ubuntu-optee-rpi3/RPi3_OPTEE_3.1/optee_os/lib/libutee/tee_api_operations.c:814
    25d4:	2a0203e2 	mov	w2, w2
/home/zliu/ubuntu-optee-rpi3/RPi3_OPTEE_3.1/optee_os/lib/libutee/tee_api_operations.c:813
    25d8:	f81f8c80 	str	x0, [x4, #-8]!
/home/zliu/ubuntu-optee-rpi3/RPi3_OPTEE_3.1/optee_os/lib/libutee/tee_api_operations.c:814
    25dc:	b9405a60 	ldr	w0, [x19, #88]
    25e0:	9400063c 	bl	3ed0 <utee_hash_final>
    25e4:	2a0003f4 	mov	w20, w0
/home/zliu/ubuntu-optee-rpi3/RPi3_OPTEE_3.1/optee_os/lib/libutee/tee_api_operations.c:815
    25e8:	f9401fa0 	ldr	x0, [x29, #56]
    25ec:	b90002a0 	str	w0, [x21]
/home/zliu/ubuntu-optee-rpi3/RPi3_OPTEE_3.1/optee_os/lib/libutee/tee_api_operations.c:816
    25f0:	35000194 	cbnz	w20, 2620 <TEE_DigestDoFinal+0x98>
init_hash_operation():
/home/zliu/ubuntu-optee-rpi3/RPi3_OPTEE_3.1/optee_os/lib/libutee/tee_api_operations.c:775
    25f4:	b9405a60 	ldr	w0, [x19, #88]
    25f8:	d2800002 	mov	x2, #0x0                   	// #0
    25fc:	d2800001 	mov	x1, #0x0                   	// #0
    2600:	9400062e 	bl	3eb8 <utee_hash_init>
/home/zliu/ubuntu-optee-rpi3/RPi3_OPTEE_3.1/optee_os/lib/libutee/tee_api_operations.c:776
    2604:	34000040 	cbz	w0, 260c <TEE_DigestDoFinal+0x84>
/home/zliu/ubuntu-optee-rpi3/RPi3_OPTEE_3.1/optee_os/lib/libutee/tee_api_operations.c:777
    2608:	94000543 	bl	3b14 <TEE_Panic>
/home/zliu/ubuntu-optee-rpi3/RPi3_OPTEE_3.1/optee_os/lib/libutee/tee_api_operations.c:779
    260c:	b9401e60 	ldr	w0, [x19, #28]
TEE_DigestDoFinal():
/home/zliu/ubuntu-optee-rpi3/RPi3_OPTEE_3.1/optee_os/lib/libutee/tee_api_operations.c:822
    2610:	b900327f 	str	wzr, [x19, #48]
init_hash_operation():
/home/zliu/ubuntu-optee-rpi3/RPi3_OPTEE_3.1/optee_os/lib/libutee/tee_api_operations.c:779
    2614:	320f0000 	orr	w0, w0, #0x20000
/home/zliu/ubuntu-optee-rpi3/RPi3_OPTEE_3.1/optee_os/lib/libutee/tee_api_operations.c:778
    2618:	f9002a7f 	str	xzr, [x19, #80]
/home/zliu/ubuntu-optee-rpi3/RPi3_OPTEE_3.1/optee_os/lib/libutee/tee_api_operations.c:779
    261c:	b9001e60 	str	w0, [x19, #28]
TEE_DigestDoFinal():
/home/zliu/ubuntu-optee-rpi3/RPi3_OPTEE_3.1/optee_os/lib/libutee/tee_api_operations.c:825
    2620:	7100029f 	cmp	w20, #0x0
    2624:	129ffde0 	mov	w0, #0xffff0010            	// #-65520
    2628:	7a401284 	ccmp	w20, w0, #0x4, ne  // ne = any
    262c:	54000060 	b.eq	2638 <TEE_DigestDoFinal+0xb0>  // b.none
/home/zliu/ubuntu-optee-rpi3/RPi3_OPTEE_3.1/optee_os/lib/libutee/tee_api_operations.c:827
    2630:	2a1403e0 	mov	w0, w20
    2634:	94000538 	bl	3b14 <TEE_Panic>
/home/zliu/ubuntu-optee-rpi3/RPi3_OPTEE_3.1/optee_os/lib/libutee/tee_api_operations.c:830
    2638:	2a1403e0 	mov	w0, w20
    263c:	f94013f5 	ldr	x21, [sp, #32]
    2640:	a94153f3 	ldp	x19, x20, [sp, #16]
    2644:	a8c47bfd 	ldp	x29, x30, [sp], #64
    2648:	d65f03c0 	ret

000000000000264c <TEE_CipherInit>:
TEE_CipherInit():
/home/zliu/ubuntu-optee-rpi3/RPi3_OPTEE_3.1/optee_os/lib/libutee/tee_api_operations.c:836
    264c:	a9bd7bfd 	stp	x29, x30, [sp, #-48]!
    2650:	910003fd 	mov	x29, sp
    2654:	a90153f3 	stp	x19, x20, [sp, #16]
    2658:	aa0003f3 	mov	x19, x0
    265c:	f90013f5 	str	x21, [sp, #32]
    2660:	aa0103f4 	mov	x20, x1
    2664:	2a0203f5 	mov	w21, w2
/home/zliu/ubuntu-optee-rpi3/RPi3_OPTEE_3.1/optee_os/lib/libutee/tee_api_operations.c:839
    2668:	b5000060 	cbnz	x0, 2674 <TEE_CipherInit+0x28>
/home/zliu/ubuntu-optee-rpi3/RPi3_OPTEE_3.1/optee_os/lib/libutee/tee_api_operations.c:840
    266c:	52800000 	mov	w0, #0x0                   	// #0
    2670:	94000529 	bl	3b14 <TEE_Panic>
/home/zliu/ubuntu-optee-rpi3/RPi3_OPTEE_3.1/optee_os/lib/libutee/tee_api_operations.c:842
    2674:	b9400660 	ldr	w0, [x19, #4]
    2678:	7100041f 	cmp	w0, #0x1
    267c:	54000060 	b.eq	2688 <TEE_CipherInit+0x3c>  // b.none
/home/zliu/ubuntu-optee-rpi3/RPi3_OPTEE_3.1/optee_os/lib/libutee/tee_api_operations.c:843
    2680:	52800000 	mov	w0, #0x0                   	// #0
    2684:	94000524 	bl	3b14 <TEE_Panic>
/home/zliu/ubuntu-optee-rpi3/RPi3_OPTEE_3.1/optee_os/lib/libutee/tee_api_operations.c:845
    2688:	b9401e60 	ldr	w0, [x19, #28]
    268c:	36900060 	tbz	w0, #18, 2698 <TEE_CipherInit+0x4c>
/home/zliu/ubuntu-optee-rpi3/RPi3_OPTEE_3.1/optee_os/lib/libutee/tee_api_operations.c:845 (discriminator 1)
    2690:	f9401260 	ldr	x0, [x19, #32]
    2694:	b5000060 	cbnz	x0, 26a0 <TEE_CipherInit+0x54>
/home/zliu/ubuntu-optee-rpi3/RPi3_OPTEE_3.1/optee_os/lib/libutee/tee_api_operations.c:847
    2698:	52800000 	mov	w0, #0x0                   	// #0
    269c:	9400051e 	bl	3b14 <TEE_Panic>
/home/zliu/ubuntu-optee-rpi3/RPi3_OPTEE_3.1/optee_os/lib/libutee/tee_api_operations.c:849
    26a0:	b9403260 	ldr	w0, [x19, #48]
    26a4:	34000060 	cbz	w0, 26b0 <TEE_CipherInit+0x64>
/home/zliu/ubuntu-optee-rpi3/RPi3_OPTEE_3.1/optee_os/lib/libutee/tee_api_operations.c:850
    26a8:	aa1303e0 	mov	x0, x19
    26ac:	97fffe95 	bl	2100 <TEE_ResetOperation>
/home/zliu/ubuntu-optee-rpi3/RPi3_OPTEE_3.1/optee_os/lib/libutee/tee_api_operations.c:852
    26b0:	52800020 	mov	w0, #0x1                   	// #1
    26b4:	b9003260 	str	w0, [x19, #48]
/home/zliu/ubuntu-optee-rpi3/RPi3_OPTEE_3.1/optee_os/lib/libutee/tee_api_operations.c:854
    26b8:	b9405a60 	ldr	w0, [x19, #88]
    26bc:	2a1503e2 	mov	w2, w21
    26c0:	aa1403e1 	mov	x1, x20
    26c4:	94000606 	bl	3edc <utee_cipher_init>
/home/zliu/ubuntu-optee-rpi3/RPi3_OPTEE_3.1/optee_os/lib/libutee/tee_api_operations.c:855
    26c8:	34000040 	cbz	w0, 26d0 <TEE_CipherInit+0x84>
/home/zliu/ubuntu-optee-rpi3/RPi3_OPTEE_3.1/optee_os/lib/libutee/tee_api_operations.c:856
    26cc:	94000512 	bl	3b14 <TEE_Panic>
/home/zliu/ubuntu-optee-rpi3/RPi3_OPTEE_3.1/optee_os/lib/libutee/tee_api_operations.c:859
    26d0:	b9401e60 	ldr	w0, [x19, #28]
/home/zliu/ubuntu-optee-rpi3/RPi3_OPTEE_3.1/optee_os/lib/libutee/tee_api_operations.c:860
    26d4:	f94013f5 	ldr	x21, [sp, #32]
/home/zliu/ubuntu-optee-rpi3/RPi3_OPTEE_3.1/optee_os/lib/libutee/tee_api_operations.c:859
    26d8:	320f0000 	orr	w0, w0, #0x20000
/home/zliu/ubuntu-optee-rpi3/RPi3_OPTEE_3.1/optee_os/lib/libutee/tee_api_operations.c:858
    26dc:	f9002a7f 	str	xzr, [x19, #80]
/home/zliu/ubuntu-optee-rpi3/RPi3_OPTEE_3.1/optee_os/lib/libutee/tee_api_operations.c:859
    26e0:	b9001e60 	str	w0, [x19, #28]
/home/zliu/ubuntu-optee-rpi3/RPi3_OPTEE_3.1/optee_os/lib/libutee/tee_api_operations.c:860
    26e4:	a94153f3 	ldp	x19, x20, [sp, #16]
    26e8:	a8c37bfd 	ldp	x29, x30, [sp], #48
    26ec:	d65f03c0 	ret

00000000000026f0 <TEE_CipherUpdate>:
TEE_CipherUpdate():
/home/zliu/ubuntu-optee-rpi3/RPi3_OPTEE_3.1/optee_os/lib/libutee/tee_api_operations.c:962
    26f0:	a9bd7bfd 	stp	x29, x30, [sp, #-48]!
    26f4:	910003fd 	mov	x29, sp
    26f8:	a90153f3 	stp	x19, x20, [sp, #16]
/home/zliu/ubuntu-optee-rpi3/RPi3_OPTEE_3.1/optee_os/lib/libutee/tee_api_operations.c:971
    26fc:	129fff33 	mov	w19, #0xffff0006            	// #-65530
/home/zliu/ubuntu-optee-rpi3/RPi3_OPTEE_3.1/optee_os/lib/libutee/tee_api_operations.c:967
    2700:	b40003c0 	cbz	x0, 2778 <TEE_CipherUpdate+0x88>
/home/zliu/ubuntu-optee-rpi3/RPi3_OPTEE_3.1/optee_os/lib/libutee/tee_api_operations.c:968 (discriminator 1)
    2704:	f100003f 	cmp	x1, #0x0
    2708:	aa0403f4 	mov	x20, x4
    270c:	1a9f17e5 	cset	w5, eq  // eq = none
    2710:	7100005f 	cmp	w2, #0x0
    2714:	2a0203e6 	mov	w6, w2
    2718:	1a9f07e2 	cset	w2, ne  // ne = any
    271c:	f100029f 	cmp	x20, #0x0
    2720:	0a0200a4 	and	w4, w5, w2
    2724:	1a9f17e2 	cset	w2, eq  // eq = none
    2728:	2a040042 	orr	w2, w2, w4
    272c:	35000262 	cbnz	w2, 2778 <TEE_CipherUpdate+0x88>
/home/zliu/ubuntu-optee-rpi3/RPi3_OPTEE_3.1/optee_os/lib/libutee/tee_api_operations.c:969
    2730:	b5000063 	cbnz	x3, 273c <TEE_CipherUpdate+0x4c>
/home/zliu/ubuntu-optee-rpi3/RPi3_OPTEE_3.1/optee_os/lib/libutee/tee_api_operations.c:970
    2734:	b9400282 	ldr	w2, [x20]
    2738:	35000202 	cbnz	w2, 2778 <TEE_CipherUpdate+0x88>
/home/zliu/ubuntu-optee-rpi3/RPi3_OPTEE_3.1/optee_os/lib/libutee/tee_api_operations.c:975
    273c:	b9400402 	ldr	w2, [x0, #4]
/home/zliu/ubuntu-optee-rpi3/RPi3_OPTEE_3.1/optee_os/lib/libutee/tee_api_operations.c:971
    2740:	129fff33 	mov	w19, #0xffff0006            	// #-65530
/home/zliu/ubuntu-optee-rpi3/RPi3_OPTEE_3.1/optee_os/lib/libutee/tee_api_operations.c:975
    2744:	7100045f 	cmp	w2, #0x1
    2748:	54000181 	b.ne	2778 <TEE_CipherUpdate+0x88>  // b.any
/home/zliu/ubuntu-optee-rpi3/RPi3_OPTEE_3.1/optee_os/lib/libutee/tee_api_operations.c:980
    274c:	b9401c02 	ldr	w2, [x0, #28]
    2750:	36880142 	tbz	w2, #17, 2778 <TEE_CipherUpdate+0x88>
/home/zliu/ubuntu-optee-rpi3/RPi3_OPTEE_3.1/optee_os/lib/libutee/tee_api_operations.c:985
    2754:	b9403002 	ldr	w2, [x0, #48]
    2758:	7100045f 	cmp	w2, #0x1
    275c:	540000e1 	b.ne	2778 <TEE_CipherUpdate+0x88>  // b.any
/home/zliu/ubuntu-optee-rpi3/RPi3_OPTEE_3.1/optee_os/lib/libutee/tee_api_operations.c:990
    2760:	710000df 	cmp	w6, #0x0
    2764:	1a9f17e2 	cset	w2, eq  // eq = none
    2768:	6a0200bf 	tst	w5, w2
    276c:	540001a0 	b.eq	27a0 <TEE_CipherUpdate+0xb0>  // b.none
/home/zliu/ubuntu-optee-rpi3/RPi3_OPTEE_3.1/optee_os/lib/libutee/tee_api_operations.c:992
    2770:	52800013 	mov	w19, #0x0                   	// #0
/home/zliu/ubuntu-optee-rpi3/RPi3_OPTEE_3.1/optee_os/lib/libutee/tee_api_operations.c:991
    2774:	b900029f 	str	wzr, [x20]
/home/zliu/ubuntu-optee-rpi3/RPi3_OPTEE_3.1/optee_os/lib/libutee/tee_api_operations.c:1036
    2778:	7100027f 	cmp	w19, #0x0
    277c:	129ffde0 	mov	w0, #0xffff0010            	// #-65520
    2780:	7a401264 	ccmp	w19, w0, #0x4, ne  // ne = any
    2784:	54000060 	b.eq	2790 <TEE_CipherUpdate+0xa0>  // b.none
/home/zliu/ubuntu-optee-rpi3/RPi3_OPTEE_3.1/optee_os/lib/libutee/tee_api_operations.c:1038
    2788:	2a1303e0 	mov	w0, w19
    278c:	940004e2 	bl	3b14 <TEE_Panic>
/home/zliu/ubuntu-optee-rpi3/RPi3_OPTEE_3.1/optee_os/lib/libutee/tee_api_operations.c:1041
    2790:	2a1303e0 	mov	w0, w19
    2794:	a94153f3 	ldp	x19, x20, [sp, #16]
    2798:	a8c37bfd 	ldp	x29, x30, [sp], #48
    279c:	d65f03c0 	ret
/home/zliu/ubuntu-optee-rpi3/RPi3_OPTEE_3.1/optee_os/lib/libutee/tee_api_operations.c:997
    27a0:	f9402405 	ldr	x5, [x0, #72]
    27a4:	2a0603e2 	mov	w2, w6
/home/zliu/ubuntu-optee-rpi3/RPi3_OPTEE_3.1/optee_os/lib/libutee/tee_api_operations.c:1001
    27a8:	aa0203e4 	mov	x4, x2
/home/zliu/ubuntu-optee-rpi3/RPi3_OPTEE_3.1/optee_os/lib/libutee/tee_api_operations.c:997
    27ac:	f10004bf 	cmp	x5, #0x1
    27b0:	540000a9 	b.ls	27c4 <TEE_CipherUpdate+0xd4>  // b.plast
/home/zliu/ubuntu-optee-rpi3/RPi3_OPTEE_3.1/optee_os/lib/libutee/tee_api_operations.c:998
    27b4:	f9402804 	ldr	x4, [x0, #80]
    27b8:	8b040044 	add	x4, x2, x4
    27bc:	9ac50884 	udiv	x4, x4, x5
    27c0:	9b057c84 	mul	x4, x4, x5
/home/zliu/ubuntu-optee-rpi3/RPi3_OPTEE_3.1/optee_os/lib/libutee/tee_api_operations.c:1003
    27c4:	39410007 	ldrb	w7, [x0, #64]
    27c8:	340000a7 	cbz	w7, 27dc <TEE_CipherUpdate+0xec>
/home/zliu/ubuntu-optee-rpi3/RPi3_OPTEE_3.1/optee_os/lib/libutee/tee_api_operations.c:1004
    27cc:	d37ff8a7 	lsl	x7, x5, #1
/home/zliu/ubuntu-optee-rpi3/RPi3_OPTEE_3.1/optee_os/lib/libutee/tee_api_operations.c:1005
    27d0:	cb070088 	sub	x8, x4, x7
    27d4:	eb07009f 	cmp	x4, x7
    27d8:	9a9f8104 	csel	x4, x8, xzr, hi  // hi = pmore
/home/zliu/ubuntu-optee-rpi3/RPi3_OPTEE_3.1/optee_os/lib/libutee/tee_api_operations.c:1014
    27dc:	b9400287 	ldr	w7, [x20]
    27e0:	eb07009f 	cmp	x4, x7
    27e4:	54000089 	b.ls	27f4 <TEE_CipherUpdate+0x104>  // b.plast
/home/zliu/ubuntu-optee-rpi3/RPi3_OPTEE_3.1/optee_os/lib/libutee/tee_api_operations.c:1016
    27e8:	129ffdf3 	mov	w19, #0xffff0010            	// #-65520
/home/zliu/ubuntu-optee-rpi3/RPi3_OPTEE_3.1/optee_os/lib/libutee/tee_api_operations.c:1015
    27ec:	b9000284 	str	w4, [x20]
/home/zliu/ubuntu-optee-rpi3/RPi3_OPTEE_3.1/optee_os/lib/libutee/tee_api_operations.c:1017
    27f0:	17ffffe2 	b	2778 <TEE_CipherUpdate+0x88>
/home/zliu/ubuntu-optee-rpi3/RPi3_OPTEE_3.1/optee_os/lib/libutee/tee_api_operations.c:1020
    27f4:	f90017a7 	str	x7, [x29, #40]
/home/zliu/ubuntu-optee-rpi3/RPi3_OPTEE_3.1/optee_os/lib/libutee/tee_api_operations.c:1021
    27f8:	f10004bf 	cmp	x5, #0x1
    27fc:	54000189 	b.ls	282c <TEE_CipherUpdate+0x13c>  // b.plast
/home/zliu/ubuntu-optee-rpi3/RPi3_OPTEE_3.1/optee_os/lib/libutee/tee_api_operations.c:1022
    2800:	aa0303e4 	mov	x4, x3
    2804:	aa0203e3 	mov	x3, x2
    2808:	aa0103e2 	mov	x2, x1
    280c:	d0000041 	adrp	x1, c000 <__func__.3927+0x294>
    2810:	9100a3a5 	add	x5, x29, #0x28
    2814:	f9449421 	ldr	x1, [x1, #2344]
    2818:	94000438 	bl	38f8 <tee_buffer_update>
/home/zliu/ubuntu-optee-rpi3/RPi3_OPTEE_3.1/optee_os/lib/libutee/tee_api_operations.c:1026
    281c:	2a0003f3 	mov	w19, w0
/home/zliu/ubuntu-optee-rpi3/RPi3_OPTEE_3.1/optee_os/lib/libutee/tee_api_operations.c:1033
    2820:	f94017a0 	ldr	x0, [x29, #40]
    2824:	b9000280 	str	w0, [x20]
    2828:	17ffffd4 	b	2778 <TEE_CipherUpdate+0x88>
/home/zliu/ubuntu-optee-rpi3/RPi3_OPTEE_3.1/optee_os/lib/libutee/tee_api_operations.c:1025
    282c:	340000a6 	cbz	w6, 2840 <TEE_CipherUpdate+0x150>
/home/zliu/ubuntu-optee-rpi3/RPi3_OPTEE_3.1/optee_os/lib/libutee/tee_api_operations.c:1026
    2830:	b9405800 	ldr	w0, [x0, #88]
    2834:	9100a3a4 	add	x4, x29, #0x28
    2838:	940005ac 	bl	3ee8 <utee_cipher_update>
    283c:	17fffff8 	b	281c <TEE_CipherUpdate+0x12c>
/home/zliu/ubuntu-optee-rpi3/RPi3_OPTEE_3.1/optee_os/lib/libutee/tee_api_operations.c:1029
    2840:	52800013 	mov	w19, #0x0                   	// #0
/home/zliu/ubuntu-optee-rpi3/RPi3_OPTEE_3.1/optee_os/lib/libutee/tee_api_operations.c:1030
    2844:	f90017bf 	str	xzr, [x29, #40]
    2848:	17fffff6 	b	2820 <TEE_CipherUpdate+0x130>

000000000000284c <TEE_CipherDoFinal>:
TEE_CipherDoFinal():
/home/zliu/ubuntu-optee-rpi3/RPi3_OPTEE_3.1/optee_os/lib/libutee/tee_api_operations.c:1046
    284c:	a9bb7bfd 	stp	x29, x30, [sp, #-80]!
    2850:	910003fd 	mov	x29, sp
    2854:	a90153f3 	stp	x19, x20, [sp, #16]
/home/zliu/ubuntu-optee-rpi3/RPi3_OPTEE_3.1/optee_os/lib/libutee/tee_api_operations.c:1057
    2858:	129fff34 	mov	w20, #0xffff0006            	// #-65530
/home/zliu/ubuntu-optee-rpi3/RPi3_OPTEE_3.1/optee_os/lib/libutee/tee_api_operations.c:1046
    285c:	a9025bf5 	stp	x21, x22, [sp, #32]
    2860:	a90363f7 	stp	x23, x24, [sp, #48]
/home/zliu/ubuntu-optee-rpi3/RPi3_OPTEE_3.1/optee_os/lib/libutee/tee_api_operations.c:1053
    2864:	b40005e0 	cbz	x0, 2920 <TEE_CipherDoFinal+0xd4>
/home/zliu/ubuntu-optee-rpi3/RPi3_OPTEE_3.1/optee_os/lib/libutee/tee_api_operations.c:1054 (discriminator 1)
    2868:	f100003f 	cmp	x1, #0x0
    286c:	aa0403f5 	mov	x21, x4
    2870:	7a400844 	ccmp	w2, #0x0, #0x4, eq  // eq = none
    2874:	fa400884 	ccmp	x4, #0x0, #0x4, eq  // eq = none
    2878:	54000540 	b.eq	2920 <TEE_CipherDoFinal+0xd4>  // b.none
    287c:	aa0003f3 	mov	x19, x0
    2880:	aa0303f8 	mov	x24, x3
/home/zliu/ubuntu-optee-rpi3/RPi3_OPTEE_3.1/optee_os/lib/libutee/tee_api_operations.c:1055
    2884:	b5000063 	cbnz	x3, 2890 <TEE_CipherDoFinal+0x44>
/home/zliu/ubuntu-optee-rpi3/RPi3_OPTEE_3.1/optee_os/lib/libutee/tee_api_operations.c:1056
    2888:	b9400080 	ldr	w0, [x4]
    288c:	350004a0 	cbnz	w0, 2920 <TEE_CipherDoFinal+0xd4>
/home/zliu/ubuntu-optee-rpi3/RPi3_OPTEE_3.1/optee_os/lib/libutee/tee_api_operations.c:1061
    2890:	b9400660 	ldr	w0, [x19, #4]
/home/zliu/ubuntu-optee-rpi3/RPi3_OPTEE_3.1/optee_os/lib/libutee/tee_api_operations.c:1057
    2894:	129fff34 	mov	w20, #0xffff0006            	// #-65530
/home/zliu/ubuntu-optee-rpi3/RPi3_OPTEE_3.1/optee_os/lib/libutee/tee_api_operations.c:1061
    2898:	7100041f 	cmp	w0, #0x1
    289c:	54000421 	b.ne	2920 <TEE_CipherDoFinal+0xd4>  // b.any
/home/zliu/ubuntu-optee-rpi3/RPi3_OPTEE_3.1/optee_os/lib/libutee/tee_api_operations.c:1066
    28a0:	b9401e60 	ldr	w0, [x19, #28]
    28a4:	368803e0 	tbz	w0, #17, 2920 <TEE_CipherDoFinal+0xd4>
/home/zliu/ubuntu-optee-rpi3/RPi3_OPTEE_3.1/optee_os/lib/libutee/tee_api_operations.c:1071
    28a8:	b9403260 	ldr	w0, [x19, #48]
    28ac:	7100041f 	cmp	w0, #0x1
    28b0:	54000381 	b.ne	2920 <TEE_CipherDoFinal+0xd4>  // b.any
/home/zliu/ubuntu-optee-rpi3/RPi3_OPTEE_3.1/optee_os/lib/libutee/tee_api_operations.c:1080
    28b4:	b9400260 	ldr	w0, [x19]
    28b8:	529ffe03 	mov	w3, #0xfff0                	// #65520
    28bc:	72bdffe3 	movk	w3, #0xefff, lsl #16
    28c0:	2a0203e2 	mov	w2, w2
    28c4:	12177800 	and	w0, w0, #0xfffffeff
    28c8:	0b030003 	add	w3, w0, w3
/home/zliu/ubuntu-optee-rpi3/RPi3_OPTEE_3.1/optee_os/lib/libutee/tee_api_operations.c:1084
    28cc:	7100047f 	cmp	w3, #0x1
    28d0:	52800263 	mov	w3, #0x13                  	// #19
    28d4:	72a20003 	movk	w3, #0x1000, lsl #16
    28d8:	7a438004 	ccmp	w0, w3, #0x4, hi  // hi = pmore
    28dc:	f9402663 	ldr	x3, [x19, #72]
    28e0:	540000c1 	b.ne	28f8 <TEE_CipherDoFinal+0xac>  // b.any
/home/zliu/ubuntu-optee-rpi3/RPi3_OPTEE_3.1/optee_os/lib/libutee/tee_api_operations.c:1086
    28e4:	f9402a60 	ldr	x0, [x19, #80]
    28e8:	8b000040 	add	x0, x2, x0
    28ec:	9ac30804 	udiv	x4, x0, x3
    28f0:	9b038080 	msub	x0, x4, x3, x0
    28f4:	b5000160 	cbnz	x0, 2920 <TEE_CipherDoFinal+0xd4>
/home/zliu/ubuntu-optee-rpi3/RPi3_OPTEE_3.1/optee_os/lib/libutee/tee_api_operations.c:1101
    28f8:	aa0203e0 	mov	x0, x2
/home/zliu/ubuntu-optee-rpi3/RPi3_OPTEE_3.1/optee_os/lib/libutee/tee_api_operations.c:1098
    28fc:	f100047f 	cmp	x3, #0x1
    2900:	54000069 	b.ls	290c <TEE_CipherDoFinal+0xc0>  // b.plast
/home/zliu/ubuntu-optee-rpi3/RPi3_OPTEE_3.1/optee_os/lib/libutee/tee_api_operations.c:1099
    2904:	f9402a60 	ldr	x0, [x19, #80]
    2908:	8b000040 	add	x0, x2, x0
/home/zliu/ubuntu-optee-rpi3/RPi3_OPTEE_3.1/optee_os/lib/libutee/tee_api_operations.c:1103
    290c:	b94002a4 	ldr	w4, [x21]
    2910:	eb04001f 	cmp	x0, x4
    2914:	540001e9 	b.ls	2950 <TEE_CipherDoFinal+0x104>  // b.plast
/home/zliu/ubuntu-optee-rpi3/RPi3_OPTEE_3.1/optee_os/lib/libutee/tee_api_operations.c:1105
    2918:	129ffdf4 	mov	w20, #0xffff0010            	// #-65520
/home/zliu/ubuntu-optee-rpi3/RPi3_OPTEE_3.1/optee_os/lib/libutee/tee_api_operations.c:1104
    291c:	b90002a0 	str	w0, [x21]
/home/zliu/ubuntu-optee-rpi3/RPi3_OPTEE_3.1/optee_os/lib/libutee/tee_api_operations.c:1137
    2920:	7100029f 	cmp	w20, #0x0
    2924:	129ffde0 	mov	w0, #0xffff0010            	// #-65520
    2928:	7a401284 	ccmp	w20, w0, #0x4, ne  // ne = any
    292c:	54000060 	b.eq	2938 <TEE_CipherDoFinal+0xec>  // b.none
/home/zliu/ubuntu-optee-rpi3/RPi3_OPTEE_3.1/optee_os/lib/libutee/tee_api_operations.c:1139
    2930:	2a1403e0 	mov	w0, w20
    2934:	94000478 	bl	3b14 <TEE_Panic>
/home/zliu/ubuntu-optee-rpi3/RPi3_OPTEE_3.1/optee_os/lib/libutee/tee_api_operations.c:1142
    2938:	2a1403e0 	mov	w0, w20
    293c:	a94153f3 	ldp	x19, x20, [sp, #16]
    2940:	a9425bf5 	ldp	x21, x22, [sp, #32]
    2944:	a94363f7 	ldp	x23, x24, [sp, #48]
    2948:	a8c57bfd 	ldp	x29, x30, [sp], #80
    294c:	d65f03c0 	ret
/home/zliu/ubuntu-optee-rpi3/RPi3_OPTEE_3.1/optee_os/lib/libutee/tee_api_operations.c:1109
    2950:	910143b7 	add	x23, x29, #0x50
/home/zliu/ubuntu-optee-rpi3/RPi3_OPTEE_3.1/optee_os/lib/libutee/tee_api_operations.c:1110
    2954:	f100047f 	cmp	x3, #0x1
/home/zliu/ubuntu-optee-rpi3/RPi3_OPTEE_3.1/optee_os/lib/libutee/tee_api_operations.c:1109
    2958:	f81f8ee4 	str	x4, [x23, #-8]!
/home/zliu/ubuntu-optee-rpi3/RPi3_OPTEE_3.1/optee_os/lib/libutee/tee_api_operations.c:1110
    295c:	540003e9 	b.ls	29d8 <TEE_CipherDoFinal+0x18c>  // b.plast
/home/zliu/ubuntu-optee-rpi3/RPi3_OPTEE_3.1/optee_os/lib/libutee/tee_api_operations.c:1111
    2960:	aa0203e3 	mov	x3, x2
    2964:	aa0103e2 	mov	x2, x1
    2968:	d0000041 	adrp	x1, c000 <__func__.3927+0x294>
    296c:	aa1703e5 	mov	x5, x23
    2970:	aa1803e4 	mov	x4, x24
    2974:	aa1303e0 	mov	x0, x19
    2978:	f9449421 	ldr	x1, [x1, #2344]
    297c:	940003df 	bl	38f8 <tee_buffer_update>
    2980:	2a0003f4 	mov	w20, w0
/home/zliu/ubuntu-optee-rpi3/RPi3_OPTEE_3.1/optee_os/lib/libutee/tee_api_operations.c:1113
    2984:	35fffce0 	cbnz	w0, 2920 <TEE_CipherDoFinal+0xd4>
/home/zliu/ubuntu-optee-rpi3/RPi3_OPTEE_3.1/optee_os/lib/libutee/tee_api_operations.c:1116
    2988:	f94027b6 	ldr	x22, [x29, #72]
/home/zliu/ubuntu-optee-rpi3/RPi3_OPTEE_3.1/optee_os/lib/libutee/tee_api_operations.c:1120
    298c:	aa1703e4 	mov	x4, x23
/home/zliu/ubuntu-optee-rpi3/RPi3_OPTEE_3.1/optee_os/lib/libutee/tee_api_operations.c:1119
    2990:	b94002a0 	ldr	w0, [x21]
/home/zliu/ubuntu-optee-rpi3/RPi3_OPTEE_3.1/optee_os/lib/libutee/tee_api_operations.c:1120
    2994:	f9401e61 	ldr	x1, [x19, #56]
    2998:	8b160303 	add	x3, x24, x22
/home/zliu/ubuntu-optee-rpi3/RPi3_OPTEE_3.1/optee_os/lib/libutee/tee_api_operations.c:1119
    299c:	cb160000 	sub	x0, x0, x22
/home/zliu/ubuntu-optee-rpi3/RPi3_OPTEE_3.1/optee_os/lib/libutee/tee_api_operations.c:1120
    29a0:	f9402a62 	ldr	x2, [x19, #80]
/home/zliu/ubuntu-optee-rpi3/RPi3_OPTEE_3.1/optee_os/lib/libutee/tee_api_operations.c:1119
    29a4:	f90027a0 	str	x0, [x29, #72]
/home/zliu/ubuntu-optee-rpi3/RPi3_OPTEE_3.1/optee_os/lib/libutee/tee_api_operations.c:1120
    29a8:	b9405a60 	ldr	w0, [x19, #88]
    29ac:	94000552 	bl	3ef4 <utee_cipher_final>
    29b0:	2a0003f4 	mov	w20, w0
/home/zliu/ubuntu-optee-rpi3/RPi3_OPTEE_3.1/optee_os/lib/libutee/tee_api_operations.c:1126
    29b4:	35fffb74 	cbnz	w20, 2920 <TEE_CipherDoFinal+0xd4>
/home/zliu/ubuntu-optee-rpi3/RPi3_OPTEE_3.1/optee_os/lib/libutee/tee_api_operations.c:1129
    29b8:	f94027a0 	ldr	x0, [x29, #72]
    29bc:	8b0002d6 	add	x22, x22, x0
/home/zliu/ubuntu-optee-rpi3/RPi3_OPTEE_3.1/optee_os/lib/libutee/tee_api_operations.c:1130
    29c0:	b90002b6 	str	w22, [x21]
/home/zliu/ubuntu-optee-rpi3/RPi3_OPTEE_3.1/optee_os/lib/libutee/tee_api_operations.c:1134
    29c4:	b900327f 	str	wzr, [x19, #48]
/home/zliu/ubuntu-optee-rpi3/RPi3_OPTEE_3.1/optee_os/lib/libutee/tee_api_operations.c:1132
    29c8:	b9401e60 	ldr	w0, [x19, #28]
    29cc:	120e7800 	and	w0, w0, #0xfffdffff
    29d0:	b9001e60 	str	w0, [x19, #28]
    29d4:	17ffffd3 	b	2920 <TEE_CipherDoFinal+0xd4>
/home/zliu/ubuntu-optee-rpi3/RPi3_OPTEE_3.1/optee_os/lib/libutee/tee_api_operations.c:1123
    29d8:	b9405a60 	ldr	w0, [x19, #88]
    29dc:	aa1703e4 	mov	x4, x23
    29e0:	aa1803e3 	mov	x3, x24
/home/zliu/ubuntu-optee-rpi3/RPi3_OPTEE_3.1/optee_os/lib/libutee/tee_api_operations.c:1049
    29e4:	d2800016 	mov	x22, #0x0                   	// #0
/home/zliu/ubuntu-optee-rpi3/RPi3_OPTEE_3.1/optee_os/lib/libutee/tee_api_operations.c:1123
    29e8:	94000543 	bl	3ef4 <utee_cipher_final>
    29ec:	2a0003f4 	mov	w20, w0
    29f0:	17fffff1 	b	29b4 <TEE_CipherDoFinal+0x168>

00000000000029f4 <TEE_MACInit>:
TEE_MACInit():
/home/zliu/ubuntu-optee-rpi3/RPi3_OPTEE_3.1/optee_os/lib/libutee/tee_api_operations.c:1147
    29f4:	a9bd7bfd 	stp	x29, x30, [sp, #-48]!
    29f8:	910003fd 	mov	x29, sp
    29fc:	a90153f3 	stp	x19, x20, [sp, #16]
    2a00:	aa0003f3 	mov	x19, x0
    2a04:	f90013f5 	str	x21, [sp, #32]
    2a08:	aa0103f4 	mov	x20, x1
    2a0c:	2a0203f5 	mov	w21, w2
/home/zliu/ubuntu-optee-rpi3/RPi3_OPTEE_3.1/optee_os/lib/libutee/tee_api_operations.c:1148
    2a10:	b5000060 	cbnz	x0, 2a1c <TEE_MACInit+0x28>
/home/zliu/ubuntu-optee-rpi3/RPi3_OPTEE_3.1/optee_os/lib/libutee/tee_api_operations.c:1149
    2a14:	52800000 	mov	w0, #0x0                   	// #0
    2a18:	9400043f 	bl	3b14 <TEE_Panic>
/home/zliu/ubuntu-optee-rpi3/RPi3_OPTEE_3.1/optee_os/lib/libutee/tee_api_operations.c:1151
    2a1c:	b9400660 	ldr	w0, [x19, #4]
    2a20:	71000c1f 	cmp	w0, #0x3
    2a24:	54000060 	b.eq	2a30 <TEE_MACInit+0x3c>  // b.none
/home/zliu/ubuntu-optee-rpi3/RPi3_OPTEE_3.1/optee_os/lib/libutee/tee_api_operations.c:1152
    2a28:	52800000 	mov	w0, #0x0                   	// #0
    2a2c:	9400043a 	bl	3b14 <TEE_Panic>
/home/zliu/ubuntu-optee-rpi3/RPi3_OPTEE_3.1/optee_os/lib/libutee/tee_api_operations.c:1154
    2a30:	b9401e60 	ldr	w0, [x19, #28]
    2a34:	36900060 	tbz	w0, #18, 2a40 <TEE_MACInit+0x4c>
/home/zliu/ubuntu-optee-rpi3/RPi3_OPTEE_3.1/optee_os/lib/libutee/tee_api_operations.c:1154 (discriminator 1)
    2a38:	f9401260 	ldr	x0, [x19, #32]
    2a3c:	b5000060 	cbnz	x0, 2a48 <TEE_MACInit+0x54>
/home/zliu/ubuntu-optee-rpi3/RPi3_OPTEE_3.1/optee_os/lib/libutee/tee_api_operations.c:1156
    2a40:	52800000 	mov	w0, #0x0                   	// #0
    2a44:	94000434 	bl	3b14 <TEE_Panic>
/home/zliu/ubuntu-optee-rpi3/RPi3_OPTEE_3.1/optee_os/lib/libutee/tee_api_operations.c:1158
    2a48:	b9403260 	ldr	w0, [x19, #48]
    2a4c:	34000060 	cbz	w0, 2a58 <TEE_MACInit+0x64>
/home/zliu/ubuntu-optee-rpi3/RPi3_OPTEE_3.1/optee_os/lib/libutee/tee_api_operations.c:1159
    2a50:	aa1303e0 	mov	x0, x19
    2a54:	97fffdab 	bl	2100 <TEE_ResetOperation>
/home/zliu/ubuntu-optee-rpi3/RPi3_OPTEE_3.1/optee_os/lib/libutee/tee_api_operations.c:1161
    2a58:	52800020 	mov	w0, #0x1                   	// #1
    2a5c:	b9003260 	str	w0, [x19, #48]
init_hash_operation():
/home/zliu/ubuntu-optee-rpi3/RPi3_OPTEE_3.1/optee_os/lib/libutee/tee_api_operations.c:775
    2a60:	b9405a60 	ldr	w0, [x19, #88]
    2a64:	2a1503e2 	mov	w2, w21
    2a68:	aa1403e1 	mov	x1, x20
    2a6c:	94000513 	bl	3eb8 <utee_hash_init>
/home/zliu/ubuntu-optee-rpi3/RPi3_OPTEE_3.1/optee_os/lib/libutee/tee_api_operations.c:776
    2a70:	34000040 	cbz	w0, 2a78 <TEE_MACInit+0x84>
/home/zliu/ubuntu-optee-rpi3/RPi3_OPTEE_3.1/optee_os/lib/libutee/tee_api_operations.c:777
    2a74:	94000428 	bl	3b14 <TEE_Panic>
/home/zliu/ubuntu-optee-rpi3/RPi3_OPTEE_3.1/optee_os/lib/libutee/tee_api_operations.c:779
    2a78:	b9401e60 	ldr	w0, [x19, #28]
TEE_MACInit():
/home/zliu/ubuntu-optee-rpi3/RPi3_OPTEE_3.1/optee_os/lib/libutee/tee_api_operations.c:1164
    2a7c:	f94013f5 	ldr	x21, [sp, #32]
init_hash_operation():
/home/zliu/ubuntu-optee-rpi3/RPi3_OPTEE_3.1/optee_os/lib/libutee/tee_api_operations.c:779
    2a80:	320f0000 	orr	w0, w0, #0x20000
/home/zliu/ubuntu-optee-rpi3/RPi3_OPTEE_3.1/optee_os/lib/libutee/tee_api_operations.c:778
    2a84:	f9002a7f 	str	xzr, [x19, #80]
/home/zliu/ubuntu-optee-rpi3/RPi3_OPTEE_3.1/optee_os/lib/libutee/tee_api_operations.c:779
    2a88:	b9001e60 	str	w0, [x19, #28]
TEE_MACInit():
/home/zliu/ubuntu-optee-rpi3/RPi3_OPTEE_3.1/optee_os/lib/libutee/tee_api_operations.c:1164
    2a8c:	a94153f3 	ldp	x19, x20, [sp, #16]
    2a90:	a8c37bfd 	ldp	x29, x30, [sp], #48
    2a94:	d65f03c0 	ret

0000000000002a98 <TEE_MACUpdate>:
TEE_MACUpdate():
/home/zliu/ubuntu-optee-rpi3/RPi3_OPTEE_3.1/optee_os/lib/libutee/tee_api_operations.c:1168
    2a98:	a9bd7bfd 	stp	x29, x30, [sp, #-48]!
    2a9c:	910003fd 	mov	x29, sp
    2aa0:	a90153f3 	stp	x19, x20, [sp, #16]
    2aa4:	aa0003f3 	mov	x19, x0
    2aa8:	f90013f5 	str	x21, [sp, #32]
    2aac:	aa0103f4 	mov	x20, x1
    2ab0:	2a0203f5 	mov	w21, w2
/home/zliu/ubuntu-optee-rpi3/RPi3_OPTEE_3.1/optee_os/lib/libutee/tee_api_operations.c:1171
    2ab4:	b4000080 	cbz	x0, 2ac4 <TEE_MACUpdate+0x2c>
/home/zliu/ubuntu-optee-rpi3/RPi3_OPTEE_3.1/optee_os/lib/libutee/tee_api_operations.c:1171 (discriminator 1)
    2ab8:	f100003f 	cmp	x1, #0x0
    2abc:	7a400844 	ccmp	w2, #0x0, #0x4, eq  // eq = none
    2ac0:	54000060 	b.eq	2acc <TEE_MACUpdate+0x34>  // b.none
/home/zliu/ubuntu-optee-rpi3/RPi3_OPTEE_3.1/optee_os/lib/libutee/tee_api_operations.c:1172
    2ac4:	52800000 	mov	w0, #0x0                   	// #0
    2ac8:	94000413 	bl	3b14 <TEE_Panic>
/home/zliu/ubuntu-optee-rpi3/RPi3_OPTEE_3.1/optee_os/lib/libutee/tee_api_operations.c:1174
    2acc:	b9400660 	ldr	w0, [x19, #4]
    2ad0:	71000c1f 	cmp	w0, #0x3
    2ad4:	54000060 	b.eq	2ae0 <TEE_MACUpdate+0x48>  // b.none
/home/zliu/ubuntu-optee-rpi3/RPi3_OPTEE_3.1/optee_os/lib/libutee/tee_api_operations.c:1175
    2ad8:	52800000 	mov	w0, #0x0                   	// #0
    2adc:	9400040e 	bl	3b14 <TEE_Panic>
/home/zliu/ubuntu-optee-rpi3/RPi3_OPTEE_3.1/optee_os/lib/libutee/tee_api_operations.c:1177
    2ae0:	b9401e60 	ldr	w0, [x19, #28]
    2ae4:	37880060 	tbnz	w0, #17, 2af0 <TEE_MACUpdate+0x58>
/home/zliu/ubuntu-optee-rpi3/RPi3_OPTEE_3.1/optee_os/lib/libutee/tee_api_operations.c:1178
    2ae8:	52800000 	mov	w0, #0x0                   	// #0
    2aec:	9400040a 	bl	3b14 <TEE_Panic>
/home/zliu/ubuntu-optee-rpi3/RPi3_OPTEE_3.1/optee_os/lib/libutee/tee_api_operations.c:1180
    2af0:	b9403260 	ldr	w0, [x19, #48]
    2af4:	7100041f 	cmp	w0, #0x1
    2af8:	54000060 	b.eq	2b04 <TEE_MACUpdate+0x6c>  // b.none
/home/zliu/ubuntu-optee-rpi3/RPi3_OPTEE_3.1/optee_os/lib/libutee/tee_api_operations.c:1181
    2afc:	52800000 	mov	w0, #0x0                   	// #0
    2b00:	94000405 	bl	3b14 <TEE_Panic>
/home/zliu/ubuntu-optee-rpi3/RPi3_OPTEE_3.1/optee_os/lib/libutee/tee_api_operations.c:1183
    2b04:	b9405a60 	ldr	w0, [x19, #88]
    2b08:	2a1503e2 	mov	w2, w21
    2b0c:	aa1403e1 	mov	x1, x20
    2b10:	940004ed 	bl	3ec4 <utee_hash_update>
/home/zliu/ubuntu-optee-rpi3/RPi3_OPTEE_3.1/optee_os/lib/libutee/tee_api_operations.c:1184
    2b14:	340000a0 	cbz	w0, 2b28 <TEE_MACUpdate+0x90>
/home/zliu/ubuntu-optee-rpi3/RPi3_OPTEE_3.1/optee_os/lib/libutee/tee_api_operations.c:1186
    2b18:	a94153f3 	ldp	x19, x20, [sp, #16]
    2b1c:	f94013f5 	ldr	x21, [sp, #32]
    2b20:	a8c37bfd 	ldp	x29, x30, [sp], #48
/home/zliu/ubuntu-optee-rpi3/RPi3_OPTEE_3.1/optee_os/lib/libutee/tee_api_operations.c:1185
    2b24:	140003fc 	b	3b14 <TEE_Panic>
/home/zliu/ubuntu-optee-rpi3/RPi3_OPTEE_3.1/optee_os/lib/libutee/tee_api_operations.c:1186
    2b28:	a94153f3 	ldp	x19, x20, [sp, #16]
    2b2c:	f94013f5 	ldr	x21, [sp, #32]
    2b30:	a8c37bfd 	ldp	x29, x30, [sp], #48
    2b34:	d65f03c0 	ret

0000000000002b38 <TEE_MACComputeFinal>:
TEE_MACComputeFinal():
/home/zliu/ubuntu-optee-rpi3/RPi3_OPTEE_3.1/optee_os/lib/libutee/tee_api_operations.c:1191
    2b38:	a9bc7bfd 	stp	x29, x30, [sp, #-64]!
    2b3c:	910003fd 	mov	x29, sp
    2b40:	a90153f3 	stp	x19, x20, [sp, #16]
    2b44:	aa0003f3 	mov	x19, x0
    2b48:	f90013f5 	str	x21, [sp, #32]
/home/zliu/ubuntu-optee-rpi3/RPi3_OPTEE_3.1/optee_os/lib/libutee/tee_api_operations.c:1199
    2b4c:	129fff34 	mov	w20, #0xffff0006            	// #-65530
/home/zliu/ubuntu-optee-rpi3/RPi3_OPTEE_3.1/optee_os/lib/libutee/tee_api_operations.c:1195
    2b50:	b40003c0 	cbz	x0, 2bc8 <TEE_MACComputeFinal+0x90>
/home/zliu/ubuntu-optee-rpi3/RPi3_OPTEE_3.1/optee_os/lib/libutee/tee_api_operations.c:1196 (discriminator 1)
    2b54:	f100003f 	cmp	x1, #0x0
/home/zliu/ubuntu-optee-rpi3/RPi3_OPTEE_3.1/optee_os/lib/libutee/tee_api_operations.c:1195 (discriminator 1)
    2b58:	7a400844 	ccmp	w2, #0x0, #0x4, eq  // eq = none
    2b5c:	54000361 	b.ne	2bc8 <TEE_MACComputeFinal+0x90>  // b.any
/home/zliu/ubuntu-optee-rpi3/RPi3_OPTEE_3.1/optee_os/lib/libutee/tee_api_operations.c:1197
    2b60:	f100007f 	cmp	x3, #0x0
    2b64:	aa0403f5 	mov	x21, x4
    2b68:	fa401884 	ccmp	x4, #0x0, #0x4, ne  // ne = any
    2b6c:	540002e0 	b.eq	2bc8 <TEE_MACComputeFinal+0x90>  // b.none
/home/zliu/ubuntu-optee-rpi3/RPi3_OPTEE_3.1/optee_os/lib/libutee/tee_api_operations.c:1203
    2b70:	b9400660 	ldr	w0, [x19, #4]
    2b74:	71000c1f 	cmp	w0, #0x3
    2b78:	54000281 	b.ne	2bc8 <TEE_MACComputeFinal+0x90>  // b.any
/home/zliu/ubuntu-optee-rpi3/RPi3_OPTEE_3.1/optee_os/lib/libutee/tee_api_operations.c:1208
    2b7c:	b9401e60 	ldr	w0, [x19, #28]
    2b80:	36880240 	tbz	w0, #17, 2bc8 <TEE_MACComputeFinal+0x90>
/home/zliu/ubuntu-optee-rpi3/RPi3_OPTEE_3.1/optee_os/lib/libutee/tee_api_operations.c:1213
    2b84:	b9403260 	ldr	w0, [x19, #48]
    2b88:	7100041f 	cmp	w0, #0x1
    2b8c:	540001e1 	b.ne	2bc8 <TEE_MACComputeFinal+0x90>  // b.any
/home/zliu/ubuntu-optee-rpi3/RPi3_OPTEE_3.1/optee_os/lib/libutee/tee_api_operations.c:1218
    2b90:	910103a4 	add	x4, x29, #0x40
    2b94:	b94002a0 	ldr	w0, [x21]
/home/zliu/ubuntu-optee-rpi3/RPi3_OPTEE_3.1/optee_os/lib/libutee/tee_api_operations.c:1219
    2b98:	2a0203e2 	mov	w2, w2
/home/zliu/ubuntu-optee-rpi3/RPi3_OPTEE_3.1/optee_os/lib/libutee/tee_api_operations.c:1218
    2b9c:	f81f8c80 	str	x0, [x4, #-8]!
/home/zliu/ubuntu-optee-rpi3/RPi3_OPTEE_3.1/optee_os/lib/libutee/tee_api_operations.c:1219
    2ba0:	b9405a60 	ldr	w0, [x19, #88]
    2ba4:	940004cb 	bl	3ed0 <utee_hash_final>
    2ba8:	2a0003f4 	mov	w20, w0
/home/zliu/ubuntu-optee-rpi3/RPi3_OPTEE_3.1/optee_os/lib/libutee/tee_api_operations.c:1220
    2bac:	f9401fa0 	ldr	x0, [x29, #56]
    2bb0:	b90002a0 	str	w0, [x21]
/home/zliu/ubuntu-optee-rpi3/RPi3_OPTEE_3.1/optee_os/lib/libutee/tee_api_operations.c:1221
    2bb4:	350000b4 	cbnz	w20, 2bc8 <TEE_MACComputeFinal+0x90>
/home/zliu/ubuntu-optee-rpi3/RPi3_OPTEE_3.1/optee_os/lib/libutee/tee_api_operations.c:1224
    2bb8:	b9401e60 	ldr	w0, [x19, #28]
/home/zliu/ubuntu-optee-rpi3/RPi3_OPTEE_3.1/optee_os/lib/libutee/tee_api_operations.c:1226
    2bbc:	b900327f 	str	wzr, [x19, #48]
/home/zliu/ubuntu-optee-rpi3/RPi3_OPTEE_3.1/optee_os/lib/libutee/tee_api_operations.c:1224
    2bc0:	120e7800 	and	w0, w0, #0xfffdffff
    2bc4:	b9001e60 	str	w0, [x19, #28]
/home/zliu/ubuntu-optee-rpi3/RPi3_OPTEE_3.1/optee_os/lib/libutee/tee_api_operations.c:1229
    2bc8:	7100029f 	cmp	w20, #0x0
    2bcc:	129ffde0 	mov	w0, #0xffff0010            	// #-65520
    2bd0:	7a401284 	ccmp	w20, w0, #0x4, ne  // ne = any
    2bd4:	54000060 	b.eq	2be0 <TEE_MACComputeFinal+0xa8>  // b.none
/home/zliu/ubuntu-optee-rpi3/RPi3_OPTEE_3.1/optee_os/lib/libutee/tee_api_operations.c:1231
    2bd8:	2a1403e0 	mov	w0, w20
    2bdc:	940003ce 	bl	3b14 <TEE_Panic>
/home/zliu/ubuntu-optee-rpi3/RPi3_OPTEE_3.1/optee_os/lib/libutee/tee_api_operations.c:1234
    2be0:	2a1403e0 	mov	w0, w20
    2be4:	f94013f5 	ldr	x21, [sp, #32]
    2be8:	a94153f3 	ldp	x19, x20, [sp, #16]
    2bec:	a8c47bfd 	ldp	x29, x30, [sp], #64
    2bf0:	d65f03c0 	ret

0000000000002bf4 <TEE_MACCompareFinal>:
TEE_MACCompareFinal():
/home/zliu/ubuntu-optee-rpi3/RPi3_OPTEE_3.1/optee_os/lib/libutee/tee_api_operations.c:1239
    2bf4:	a9b77bfd 	stp	x29, x30, [sp, #-144]!
    2bf8:	910003fd 	mov	x29, sp
    2bfc:	a9025bf5 	stp	x21, x22, [sp, #32]
    2c00:	aa0303f6 	mov	x22, x3
/home/zliu/ubuntu-optee-rpi3/RPi3_OPTEE_3.1/optee_os/lib/libutee/tee_api_operations.c:1242
    2c04:	52800803 	mov	w3, #0x40                  	// #64
/home/zliu/ubuntu-optee-rpi3/RPi3_OPTEE_3.1/optee_os/lib/libutee/tee_api_operations.c:1239
    2c08:	a90153f3 	stp	x19, x20, [sp, #16]
/home/zliu/ubuntu-optee-rpi3/RPi3_OPTEE_3.1/optee_os/lib/libutee/tee_api_operations.c:1242
    2c0c:	b9004fa3 	str	w3, [x29, #76]
/home/zliu/ubuntu-optee-rpi3/RPi3_OPTEE_3.1/optee_os/lib/libutee/tee_api_operations.c:1245
    2c10:	129fff33 	mov	w19, #0xffff0006            	// #-65530
/home/zliu/ubuntu-optee-rpi3/RPi3_OPTEE_3.1/optee_os/lib/libutee/tee_api_operations.c:1244
    2c14:	b9400403 	ldr	w3, [x0, #4]
/home/zliu/ubuntu-optee-rpi3/RPi3_OPTEE_3.1/optee_os/lib/libutee/tee_api_operations.c:1239
    2c18:	f9001bf7 	str	x23, [sp, #48]
/home/zliu/ubuntu-optee-rpi3/RPi3_OPTEE_3.1/optee_os/lib/libutee/tee_api_operations.c:1244
    2c1c:	71000c7f 	cmp	w3, #0x3
    2c20:	54000241 	b.ne	2c68 <TEE_MACCompareFinal+0x74>  // b.any
/home/zliu/ubuntu-optee-rpi3/RPi3_OPTEE_3.1/optee_os/lib/libutee/tee_api_operations.c:1249
    2c24:	b9401c03 	ldr	w3, [x0, #28]
    2c28:	aa0003f4 	mov	x20, x0
    2c2c:	368801e3 	tbz	w3, #17, 2c68 <TEE_MACCompareFinal+0x74>
/home/zliu/ubuntu-optee-rpi3/RPi3_OPTEE_3.1/optee_os/lib/libutee/tee_api_operations.c:1254
    2c30:	b9403003 	ldr	w3, [x0, #48]
    2c34:	7100047f 	cmp	w3, #0x1
    2c38:	54000181 	b.ne	2c68 <TEE_MACCompareFinal+0x74>  // b.any
/home/zliu/ubuntu-optee-rpi3/RPi3_OPTEE_3.1/optee_os/lib/libutee/tee_api_operations.c:1259
    2c3c:	910143b5 	add	x21, x29, #0x50
    2c40:	2a0403f7 	mov	w23, w4
    2c44:	aa1503e3 	mov	x3, x21
    2c48:	910133a4 	add	x4, x29, #0x4c
    2c4c:	97ffffbb 	bl	2b38 <TEE_MACComputeFinal>
    2c50:	2a0003f3 	mov	w19, w0
/home/zliu/ubuntu-optee-rpi3/RPi3_OPTEE_3.1/optee_os/lib/libutee/tee_api_operations.c:1261
    2c54:	350000a0 	cbnz	w0, 2c68 <TEE_MACCompareFinal+0x74>
/home/zliu/ubuntu-optee-rpi3/RPi3_OPTEE_3.1/optee_os/lib/libutee/tee_api_operations.c:1264
    2c58:	b9404fa2 	ldr	w2, [x29, #76]
    2c5c:	6b17005f 	cmp	w2, w23
    2c60:	540001c0 	b.eq	2c98 <TEE_MACCompareFinal+0xa4>  // b.none
/home/zliu/ubuntu-optee-rpi3/RPi3_OPTEE_3.1/optee_os/lib/libutee/tee_api_operations.c:1265
    2c64:	1299f1d3 	mov	w19, #0xffff3071            	// #-53135
/home/zliu/ubuntu-optee-rpi3/RPi3_OPTEE_3.1/optee_os/lib/libutee/tee_api_operations.c:1277
    2c68:	7100027f 	cmp	w19, #0x0
    2c6c:	1299f1c0 	mov	w0, #0xffff3071            	// #-53135
    2c70:	7a401264 	ccmp	w19, w0, #0x4, ne  // ne = any
    2c74:	54000060 	b.eq	2c80 <TEE_MACCompareFinal+0x8c>  // b.none
/home/zliu/ubuntu-optee-rpi3/RPi3_OPTEE_3.1/optee_os/lib/libutee/tee_api_operations.c:1279
    2c78:	2a1303e0 	mov	w0, w19
    2c7c:	940003a6 	bl	3b14 <TEE_Panic>
/home/zliu/ubuntu-optee-rpi3/RPi3_OPTEE_3.1/optee_os/lib/libutee/tee_api_operations.c:1282
    2c80:	2a1303e0 	mov	w0, w19
    2c84:	f9401bf7 	ldr	x23, [sp, #48]
    2c88:	a94153f3 	ldp	x19, x20, [sp, #16]
    2c8c:	a9425bf5 	ldp	x21, x22, [sp, #32]
    2c90:	a8c97bfd 	ldp	x29, x30, [sp], #144
    2c94:	d65f03c0 	ret
/home/zliu/ubuntu-optee-rpi3/RPi3_OPTEE_3.1/optee_os/lib/libutee/tee_api_operations.c:1269
    2c98:	2a0203e2 	mov	w2, w2
    2c9c:	aa1503e1 	mov	x1, x21
    2ca0:	aa1603e0 	mov	x0, x22
    2ca4:	9400105f 	bl	6e20 <buf_compare_ct>
    2ca8:	35fffde0 	cbnz	w0, 2c64 <TEE_MACCompareFinal+0x70>
/home/zliu/ubuntu-optee-rpi3/RPi3_OPTEE_3.1/optee_os/lib/libutee/tee_api_operations.c:1274
    2cac:	b900329f 	str	wzr, [x20, #48]
    2cb0:	17ffffee 	b	2c68 <TEE_MACCompareFinal+0x74>

0000000000002cb4 <TEE_AEInit>:
TEE_AEInit():
/home/zliu/ubuntu-optee-rpi3/RPi3_OPTEE_3.1/optee_os/lib/libutee/tee_api_operations.c:1289
    2cb4:	a9bd7bfd 	stp	x29, x30, [sp, #-48]!
/home/zliu/ubuntu-optee-rpi3/RPi3_OPTEE_3.1/optee_os/lib/libutee/tee_api_operations.c:1292
    2cb8:	f100001f 	cmp	x0, #0x0
    2cbc:	fa401824 	ccmp	x1, #0x0, #0x4, ne  // ne = any
/home/zliu/ubuntu-optee-rpi3/RPi3_OPTEE_3.1/optee_os/lib/libutee/tee_api_operations.c:1289
    2cc0:	910003fd 	mov	x29, sp
    2cc4:	a90153f3 	stp	x19, x20, [sp, #16]
/home/zliu/ubuntu-optee-rpi3/RPi3_OPTEE_3.1/optee_os/lib/libutee/tee_api_operations.c:1293
    2cc8:	129fff34 	mov	w20, #0xffff0006            	// #-65530
/home/zliu/ubuntu-optee-rpi3/RPi3_OPTEE_3.1/optee_os/lib/libutee/tee_api_operations.c:1289
    2ccc:	f90013f5 	str	x21, [sp, #32]
/home/zliu/ubuntu-optee-rpi3/RPi3_OPTEE_3.1/optee_os/lib/libutee/tee_api_operations.c:1292
    2cd0:	540003e0 	b.eq	2d4c <TEE_AEInit+0x98>  // b.none
    2cd4:	aa0003f3 	mov	x19, x0
/home/zliu/ubuntu-optee-rpi3/RPi3_OPTEE_3.1/optee_os/lib/libutee/tee_api_operations.c:1297
    2cd8:	b9400400 	ldr	w0, [x0, #4]
    2cdc:	7100101f 	cmp	w0, #0x4
    2ce0:	54000361 	b.ne	2d4c <TEE_AEInit+0x98>  // b.any
/home/zliu/ubuntu-optee-rpi3/RPi3_OPTEE_3.1/optee_os/lib/libutee/tee_api_operations.c:1302
    2ce4:	b9403260 	ldr	w0, [x19, #48]
    2ce8:	35000320 	cbnz	w0, 2d4c <TEE_AEInit+0x98>
/home/zliu/ubuntu-optee-rpi3/RPi3_OPTEE_3.1/optee_os/lib/libutee/tee_api_operations.c:1313
    2cec:	b9400266 	ldr	w6, [x19]
    2cf0:	52810200 	mov	w0, #0x810                 	// #2064
    2cf4:	72a80000 	movk	w0, #0x4000, lsl #16
    2cf8:	6b0000df 	cmp	w6, w0
    2cfc:	540000e1 	b.ne	2d18 <TEE_AEInit+0x64>  // b.any
/home/zliu/ubuntu-optee-rpi3/RPi3_OPTEE_3.1/optee_os/lib/libutee/tee_api_operations.c:1317
    2d00:	51018060 	sub	w0, w3, #0x60
/home/zliu/ubuntu-optee-rpi3/RPi3_OPTEE_3.1/optee_os/lib/libutee/tee_api_operations.c:1318
    2d04:	129ffeb4 	mov	w20, #0xffff000a            	// #-65526
/home/zliu/ubuntu-optee-rpi3/RPi3_OPTEE_3.1/optee_os/lib/libutee/tee_api_operations.c:1317
    2d08:	7100801f 	cmp	w0, #0x20
    2d0c:	54000208 	b.hi	2d4c <TEE_AEInit+0x98>  // b.pmore
/home/zliu/ubuntu-optee-rpi3/RPi3_OPTEE_3.1/optee_os/lib/libutee/tee_api_operations.c:1317 (discriminator 1)
    2d10:	f240087f 	tst	x3, #0x7
    2d14:	540001c1 	b.ne	2d4c <TEE_AEInit+0x98>  // b.any
/home/zliu/ubuntu-optee-rpi3/RPi3_OPTEE_3.1/optee_os/lib/libutee/tee_api_operations.c:1323
    2d18:	b9405a60 	ldr	w0, [x19, #88]
/home/zliu/ubuntu-optee-rpi3/RPi3_OPTEE_3.1/optee_os/lib/libutee/tee_api_operations.c:1324
    2d1c:	53037c75 	lsr	w21, w3, #3
/home/zliu/ubuntu-optee-rpi3/RPi3_OPTEE_3.1/optee_os/lib/libutee/tee_api_operations.c:1323
    2d20:	2a0503e5 	mov	w5, w5
    2d24:	2a0403e4 	mov	w4, w4
    2d28:	924072a3 	and	x3, x21, #0x1fffffff
    2d2c:	2a0203e2 	mov	w2, w2
    2d30:	94000492 	bl	3f78 <utee_authenc_init>
    2d34:	2a0003f4 	mov	w20, w0
/home/zliu/ubuntu-optee-rpi3/RPi3_OPTEE_3.1/optee_os/lib/libutee/tee_api_operations.c:1325
    2d38:	350000a0 	cbnz	w0, 2d4c <TEE_AEInit+0x98>
/home/zliu/ubuntu-optee-rpi3/RPi3_OPTEE_3.1/optee_os/lib/libutee/tee_api_operations.c:1329
    2d3c:	b9401e60 	ldr	w0, [x19, #28]
/home/zliu/ubuntu-optee-rpi3/RPi3_OPTEE_3.1/optee_os/lib/libutee/tee_api_operations.c:1328
    2d40:	b9005e75 	str	w21, [x19, #92]
/home/zliu/ubuntu-optee-rpi3/RPi3_OPTEE_3.1/optee_os/lib/libutee/tee_api_operations.c:1329
    2d44:	320f0000 	orr	w0, w0, #0x20000
    2d48:	b9001e60 	str	w0, [x19, #28]
/home/zliu/ubuntu-optee-rpi3/RPi3_OPTEE_3.1/optee_os/lib/libutee/tee_api_operations.c:1332
    2d4c:	7100029f 	cmp	w20, #0x0
    2d50:	129ffea0 	mov	w0, #0xffff000a            	// #-65526
    2d54:	7a401284 	ccmp	w20, w0, #0x4, ne  // ne = any
    2d58:	54000060 	b.eq	2d64 <TEE_AEInit+0xb0>  // b.none
/home/zliu/ubuntu-optee-rpi3/RPi3_OPTEE_3.1/optee_os/lib/libutee/tee_api_operations.c:1334
    2d5c:	2a1403e0 	mov	w0, w20
    2d60:	9400036d 	bl	3b14 <TEE_Panic>
/home/zliu/ubuntu-optee-rpi3/RPi3_OPTEE_3.1/optee_os/lib/libutee/tee_api_operations.c:1337
    2d64:	2a1403e0 	mov	w0, w20
    2d68:	f94013f5 	ldr	x21, [sp, #32]
    2d6c:	a94153f3 	ldp	x19, x20, [sp, #16]
    2d70:	a8c37bfd 	ldp	x29, x30, [sp], #48
    2d74:	d65f03c0 	ret

0000000000002d78 <TEE_AEUpdateAAD>:
TEE_AEUpdateAAD():
/home/zliu/ubuntu-optee-rpi3/RPi3_OPTEE_3.1/optee_os/lib/libutee/tee_api_operations.c:1341
    2d78:	a9bd7bfd 	stp	x29, x30, [sp, #-48]!
    2d7c:	910003fd 	mov	x29, sp
    2d80:	a90153f3 	stp	x19, x20, [sp, #16]
    2d84:	aa0003f3 	mov	x19, x0
    2d88:	f90013f5 	str	x21, [sp, #32]
    2d8c:	aa0103f4 	mov	x20, x1
    2d90:	2a0203f5 	mov	w21, w2
/home/zliu/ubuntu-optee-rpi3/RPi3_OPTEE_3.1/optee_os/lib/libutee/tee_api_operations.c:1344
    2d94:	b4000080 	cbz	x0, 2da4 <TEE_AEUpdateAAD+0x2c>
/home/zliu/ubuntu-optee-rpi3/RPi3_OPTEE_3.1/optee_os/lib/libutee/tee_api_operations.c:1345 (discriminator 1)
    2d98:	f100003f 	cmp	x1, #0x0
/home/zliu/ubuntu-optee-rpi3/RPi3_OPTEE_3.1/optee_os/lib/libutee/tee_api_operations.c:1344 (discriminator 1)
    2d9c:	7a400844 	ccmp	w2, #0x0, #0x4, eq  // eq = none
    2da0:	54000060 	b.eq	2dac <TEE_AEUpdateAAD+0x34>  // b.none
/home/zliu/ubuntu-optee-rpi3/RPi3_OPTEE_3.1/optee_os/lib/libutee/tee_api_operations.c:1346
    2da4:	52800000 	mov	w0, #0x0                   	// #0
    2da8:	9400035b 	bl	3b14 <TEE_Panic>
/home/zliu/ubuntu-optee-rpi3/RPi3_OPTEE_3.1/optee_os/lib/libutee/tee_api_operations.c:1348
    2dac:	b9400660 	ldr	w0, [x19, #4]
    2db0:	7100101f 	cmp	w0, #0x4
    2db4:	54000060 	b.eq	2dc0 <TEE_AEUpdateAAD+0x48>  // b.none
/home/zliu/ubuntu-optee-rpi3/RPi3_OPTEE_3.1/optee_os/lib/libutee/tee_api_operations.c:1349
    2db8:	52800000 	mov	w0, #0x0                   	// #0
    2dbc:	94000356 	bl	3b14 <TEE_Panic>
/home/zliu/ubuntu-optee-rpi3/RPi3_OPTEE_3.1/optee_os/lib/libutee/tee_api_operations.c:1351
    2dc0:	b9401e60 	ldr	w0, [x19, #28]
    2dc4:	37880060 	tbnz	w0, #17, 2dd0 <TEE_AEUpdateAAD+0x58>
/home/zliu/ubuntu-optee-rpi3/RPi3_OPTEE_3.1/optee_os/lib/libutee/tee_api_operations.c:1352
    2dc8:	52800000 	mov	w0, #0x0                   	// #0
    2dcc:	94000352 	bl	3b14 <TEE_Panic>
/home/zliu/ubuntu-optee-rpi3/RPi3_OPTEE_3.1/optee_os/lib/libutee/tee_api_operations.c:1354
    2dd0:	b9405a60 	ldr	w0, [x19, #88]
    2dd4:	aa1403e1 	mov	x1, x20
    2dd8:	2a1503e2 	mov	w2, w21
    2ddc:	9400046a 	bl	3f84 <utee_authenc_update_aad>
/home/zliu/ubuntu-optee-rpi3/RPi3_OPTEE_3.1/optee_os/lib/libutee/tee_api_operations.c:1356
    2de0:	52800021 	mov	w1, #0x1                   	// #1
    2de4:	b9003261 	str	w1, [x19, #48]
/home/zliu/ubuntu-optee-rpi3/RPi3_OPTEE_3.1/optee_os/lib/libutee/tee_api_operations.c:1358
    2de8:	340000a0 	cbz	w0, 2dfc <TEE_AEUpdateAAD+0x84>
/home/zliu/ubuntu-optee-rpi3/RPi3_OPTEE_3.1/optee_os/lib/libutee/tee_api_operations.c:1360
    2dec:	a94153f3 	ldp	x19, x20, [sp, #16]
    2df0:	f94013f5 	ldr	x21, [sp, #32]
    2df4:	a8c37bfd 	ldp	x29, x30, [sp], #48
/home/zliu/ubuntu-optee-rpi3/RPi3_OPTEE_3.1/optee_os/lib/libutee/tee_api_operations.c:1359
    2df8:	14000347 	b	3b14 <TEE_Panic>
/home/zliu/ubuntu-optee-rpi3/RPi3_OPTEE_3.1/optee_os/lib/libutee/tee_api_operations.c:1360
    2dfc:	a94153f3 	ldp	x19, x20, [sp, #16]
    2e00:	f94013f5 	ldr	x21, [sp, #32]
    2e04:	a8c37bfd 	ldp	x29, x30, [sp], #48
    2e08:	d65f03c0 	ret

0000000000002e0c <TEE_AEUpdate>:
TEE_AEUpdate():
/home/zliu/ubuntu-optee-rpi3/RPi3_OPTEE_3.1/optee_os/lib/libutee/tee_api_operations.c:1364
    2e0c:	a9bc7bfd 	stp	x29, x30, [sp, #-64]!
    2e10:	910003fd 	mov	x29, sp
    2e14:	a90153f3 	stp	x19, x20, [sp, #16]
/home/zliu/ubuntu-optee-rpi3/RPi3_OPTEE_3.1/optee_os/lib/libutee/tee_api_operations.c:1373
    2e18:	129fff33 	mov	w19, #0xffff0006            	// #-65530
/home/zliu/ubuntu-optee-rpi3/RPi3_OPTEE_3.1/optee_os/lib/libutee/tee_api_operations.c:1364
    2e1c:	f90013f5 	str	x21, [sp, #32]
/home/zliu/ubuntu-optee-rpi3/RPi3_OPTEE_3.1/optee_os/lib/libutee/tee_api_operations.c:1369
    2e20:	b4000560 	cbz	x0, 2ecc <TEE_AEUpdate+0xc0>
/home/zliu/ubuntu-optee-rpi3/RPi3_OPTEE_3.1/optee_os/lib/libutee/tee_api_operations.c:1370 (discriminator 1)
    2e24:	f100003f 	cmp	x1, #0x0
    2e28:	aa0403f5 	mov	x21, x4
    2e2c:	1a9f17e4 	cset	w4, eq  // eq = none
    2e30:	7100005f 	cmp	w2, #0x0
    2e34:	aa0003f4 	mov	x20, x0
    2e38:	1a9f07e0 	cset	w0, ne  // ne = any
    2e3c:	f10002bf 	cmp	x21, #0x0
    2e40:	2a0203e5 	mov	w5, w2
    2e44:	0a000082 	and	w2, w4, w0
    2e48:	1a9f17e0 	cset	w0, eq  // eq = none
    2e4c:	2a020000 	orr	w0, w0, w2
    2e50:	350003e0 	cbnz	w0, 2ecc <TEE_AEUpdate+0xc0>
/home/zliu/ubuntu-optee-rpi3/RPi3_OPTEE_3.1/optee_os/lib/libutee/tee_api_operations.c:1371
    2e54:	b5000063 	cbnz	x3, 2e60 <TEE_AEUpdate+0x54>
/home/zliu/ubuntu-optee-rpi3/RPi3_OPTEE_3.1/optee_os/lib/libutee/tee_api_operations.c:1372
    2e58:	b94002a0 	ldr	w0, [x21]
    2e5c:	35000380 	cbnz	w0, 2ecc <TEE_AEUpdate+0xc0>
/home/zliu/ubuntu-optee-rpi3/RPi3_OPTEE_3.1/optee_os/lib/libutee/tee_api_operations.c:1377
    2e60:	b9400680 	ldr	w0, [x20, #4]
/home/zliu/ubuntu-optee-rpi3/RPi3_OPTEE_3.1/optee_os/lib/libutee/tee_api_operations.c:1373
    2e64:	129fff33 	mov	w19, #0xffff0006            	// #-65530
/home/zliu/ubuntu-optee-rpi3/RPi3_OPTEE_3.1/optee_os/lib/libutee/tee_api_operations.c:1377
    2e68:	7100101f 	cmp	w0, #0x4
    2e6c:	54000301 	b.ne	2ecc <TEE_AEUpdate+0xc0>  // b.any
/home/zliu/ubuntu-optee-rpi3/RPi3_OPTEE_3.1/optee_os/lib/libutee/tee_api_operations.c:1382
    2e70:	b9401e80 	ldr	w0, [x20, #28]
    2e74:	368802c0 	tbz	w0, #17, 2ecc <TEE_AEUpdate+0xc0>
/home/zliu/ubuntu-optee-rpi3/RPi3_OPTEE_3.1/optee_os/lib/libutee/tee_api_operations.c:1387
    2e78:	710000bf 	cmp	w5, #0x0
    2e7c:	1a9f17e0 	cset	w0, eq  // eq = none
    2e80:	6a00009f 	tst	w4, w0
    2e84:	54000080 	b.eq	2e94 <TEE_AEUpdate+0x88>  // b.none
/home/zliu/ubuntu-optee-rpi3/RPi3_OPTEE_3.1/optee_os/lib/libutee/tee_api_operations.c:1388
    2e88:	b90002bf 	str	wzr, [x21]
/home/zliu/ubuntu-optee-rpi3/RPi3_OPTEE_3.1/optee_os/lib/libutee/tee_api_operations.c:1430
    2e8c:	52800013 	mov	w19, #0x0                   	// #0
    2e90:	1400000f 	b	2ecc <TEE_AEUpdate+0xc0>
/home/zliu/ubuntu-optee-rpi3/RPi3_OPTEE_3.1/optee_os/lib/libutee/tee_api_operations.c:1398
    2e94:	f9402684 	ldr	x4, [x20, #72]
    2e98:	2a0503e2 	mov	w2, w5
/home/zliu/ubuntu-optee-rpi3/RPi3_OPTEE_3.1/optee_os/lib/libutee/tee_api_operations.c:1402
    2e9c:	aa0203e0 	mov	x0, x2
/home/zliu/ubuntu-optee-rpi3/RPi3_OPTEE_3.1/optee_os/lib/libutee/tee_api_operations.c:1398
    2ea0:	f100049f 	cmp	x4, #0x1
    2ea4:	540000a9 	b.ls	2eb8 <TEE_AEUpdate+0xac>  // b.plast
/home/zliu/ubuntu-optee-rpi3/RPi3_OPTEE_3.1/optee_os/lib/libutee/tee_api_operations.c:1399
    2ea8:	f9402a80 	ldr	x0, [x20, #80]
    2eac:	cb0403e6 	neg	x6, x4
    2eb0:	8b000040 	add	x0, x2, x0
    2eb4:	8a060000 	and	x0, x0, x6
/home/zliu/ubuntu-optee-rpi3/RPi3_OPTEE_3.1/optee_os/lib/libutee/tee_api_operations.c:1405
    2eb8:	b94002a6 	ldr	w6, [x21]
    2ebc:	eb06001f 	cmp	x0, x6
    2ec0:	540001c9 	b.ls	2ef8 <TEE_AEUpdate+0xec>  // b.plast
/home/zliu/ubuntu-optee-rpi3/RPi3_OPTEE_3.1/optee_os/lib/libutee/tee_api_operations.c:1407
    2ec4:	129ffdf3 	mov	w19, #0xffff0010            	// #-65520
/home/zliu/ubuntu-optee-rpi3/RPi3_OPTEE_3.1/optee_os/lib/libutee/tee_api_operations.c:1406
    2ec8:	b90002a0 	str	w0, [x21]
/home/zliu/ubuntu-optee-rpi3/RPi3_OPTEE_3.1/optee_os/lib/libutee/tee_api_operations.c:1433
    2ecc:	7100027f 	cmp	w19, #0x0
    2ed0:	129ffde0 	mov	w0, #0xffff0010            	// #-65520
    2ed4:	7a401264 	ccmp	w19, w0, #0x4, ne  // ne = any
    2ed8:	54000060 	b.eq	2ee4 <TEE_AEUpdate+0xd8>  // b.none
/home/zliu/ubuntu-optee-rpi3/RPi3_OPTEE_3.1/optee_os/lib/libutee/tee_api_operations.c:1435
    2edc:	2a1303e0 	mov	w0, w19
    2ee0:	9400030d 	bl	3b14 <TEE_Panic>
/home/zliu/ubuntu-optee-rpi3/RPi3_OPTEE_3.1/optee_os/lib/libutee/tee_api_operations.c:1438
    2ee4:	2a1303e0 	mov	w0, w19
    2ee8:	f94013f5 	ldr	x21, [sp, #32]
    2eec:	a94153f3 	ldp	x19, x20, [sp, #16]
    2ef0:	a8c47bfd 	ldp	x29, x30, [sp], #64
    2ef4:	d65f03c0 	ret
/home/zliu/ubuntu-optee-rpi3/RPi3_OPTEE_3.1/optee_os/lib/libutee/tee_api_operations.c:1411
    2ef8:	f9001fa6 	str	x6, [x29, #56]
/home/zliu/ubuntu-optee-rpi3/RPi3_OPTEE_3.1/optee_os/lib/libutee/tee_api_operations.c:1412
    2efc:	f100049f 	cmp	x4, #0x1
    2f00:	54000209 	b.ls	2f40 <TEE_AEUpdate+0x134>  // b.plast
/home/zliu/ubuntu-optee-rpi3/RPi3_OPTEE_3.1/optee_os/lib/libutee/tee_api_operations.c:1413
    2f04:	aa0303e4 	mov	x4, x3
    2f08:	aa0203e3 	mov	x3, x2
    2f0c:	aa0103e2 	mov	x2, x1
    2f10:	d0000041 	adrp	x1, c000 <__func__.3927+0x294>
    2f14:	9100e3a5 	add	x5, x29, #0x38
    2f18:	aa1403e0 	mov	x0, x20
    2f1c:	f9448421 	ldr	x1, [x1, #2312]
    2f20:	94000276 	bl	38f8 <tee_buffer_update>
/home/zliu/ubuntu-optee-rpi3/RPi3_OPTEE_3.1/optee_os/lib/libutee/tee_api_operations.c:1417
    2f24:	2a0003f3 	mov	w19, w0
/home/zliu/ubuntu-optee-rpi3/RPi3_OPTEE_3.1/optee_os/lib/libutee/tee_api_operations.c:1425
    2f28:	35fffd20 	cbnz	w0, 2ecc <TEE_AEUpdate+0xc0>
/home/zliu/ubuntu-optee-rpi3/RPi3_OPTEE_3.1/optee_os/lib/libutee/tee_api_operations.c:1428
    2f2c:	f9401fa0 	ldr	x0, [x29, #56]
    2f30:	b90002a0 	str	w0, [x21]
/home/zliu/ubuntu-optee-rpi3/RPi3_OPTEE_3.1/optee_os/lib/libutee/tee_api_operations.c:1430
    2f34:	52800020 	mov	w0, #0x1                   	// #1
    2f38:	b9003280 	str	w0, [x20, #48]
    2f3c:	17ffffd4 	b	2e8c <TEE_AEUpdate+0x80>
/home/zliu/ubuntu-optee-rpi3/RPi3_OPTEE_3.1/optee_os/lib/libutee/tee_api_operations.c:1416
    2f40:	340000a5 	cbz	w5, 2f54 <TEE_AEUpdate+0x148>
/home/zliu/ubuntu-optee-rpi3/RPi3_OPTEE_3.1/optee_os/lib/libutee/tee_api_operations.c:1417
    2f44:	b9405a80 	ldr	w0, [x20, #88]
    2f48:	9100e3a4 	add	x4, x29, #0x38
    2f4c:	94000411 	bl	3f90 <utee_authenc_update_payload>
    2f50:	17fffff5 	b	2f24 <TEE_AEUpdate+0x118>
/home/zliu/ubuntu-optee-rpi3/RPi3_OPTEE_3.1/optee_os/lib/libutee/tee_api_operations.c:1421
    2f54:	f9001fbf 	str	xzr, [x29, #56]
    2f58:	17fffff5 	b	2f2c <TEE_AEUpdate+0x120>

0000000000002f5c <TEE_AEEncryptFinal>:
TEE_AEEncryptFinal():
/home/zliu/ubuntu-optee-rpi3/RPi3_OPTEE_3.1/optee_os/lib/libutee/tee_api_operations.c:1444
    2f5c:	a9ba7bfd 	stp	x29, x30, [sp, #-96]!
    2f60:	910003fd 	mov	x29, sp
    2f64:	a90153f3 	stp	x19, x20, [sp, #16]
/home/zliu/ubuntu-optee-rpi3/RPi3_OPTEE_3.1/optee_os/lib/libutee/tee_api_operations.c:1457
    2f68:	129fff33 	mov	w19, #0xffff0006            	// #-65530
/home/zliu/ubuntu-optee-rpi3/RPi3_OPTEE_3.1/optee_os/lib/libutee/tee_api_operations.c:1444
    2f6c:	a9025bf5 	stp	x21, x22, [sp, #32]
    2f70:	a90363f7 	stp	x23, x24, [sp, #48]
    2f74:	a9046bf9 	stp	x25, x26, [sp, #64]
/home/zliu/ubuntu-optee-rpi3/RPi3_OPTEE_3.1/optee_os/lib/libutee/tee_api_operations.c:1452
    2f78:	b40003c0 	cbz	x0, 2ff0 <TEE_AEEncryptFinal+0x94>
/home/zliu/ubuntu-optee-rpi3/RPi3_OPTEE_3.1/optee_os/lib/libutee/tee_api_operations.c:1453 (discriminator 1)
    2f7c:	f100003f 	cmp	x1, #0x0
    2f80:	aa0403f5 	mov	x21, x4
    2f84:	7a400844 	ccmp	w2, #0x0, #0x4, eq  // eq = none
    2f88:	fa400884 	ccmp	x4, #0x0, #0x4, eq  // eq = none
    2f8c:	54000320 	b.eq	2ff0 <TEE_AEEncryptFinal+0x94>  // b.none
    2f90:	aa0003f4 	mov	x20, x0
    2f94:	aa0303f9 	mov	x25, x3
    2f98:	aa0503fa 	mov	x26, x5
    2f9c:	aa0603f8 	mov	x24, x6
/home/zliu/ubuntu-optee-rpi3/RPi3_OPTEE_3.1/optee_os/lib/libutee/tee_api_operations.c:1454
    2fa0:	b5000063 	cbnz	x3, 2fac <TEE_AEEncryptFinal+0x50>
/home/zliu/ubuntu-optee-rpi3/RPi3_OPTEE_3.1/optee_os/lib/libutee/tee_api_operations.c:1455
    2fa4:	b9400080 	ldr	w0, [x4]
    2fa8:	35000240 	cbnz	w0, 2ff0 <TEE_AEEncryptFinal+0x94>
/home/zliu/ubuntu-optee-rpi3/RPi3_OPTEE_3.1/optee_os/lib/libutee/tee_api_operations.c:1456
    2fac:	f100035f 	cmp	x26, #0x0
/home/zliu/ubuntu-optee-rpi3/RPi3_OPTEE_3.1/optee_os/lib/libutee/tee_api_operations.c:1457
    2fb0:	129fff33 	mov	w19, #0xffff0006            	// #-65530
/home/zliu/ubuntu-optee-rpi3/RPi3_OPTEE_3.1/optee_os/lib/libutee/tee_api_operations.c:1456
    2fb4:	fa401b04 	ccmp	x24, #0x0, #0x4, ne  // ne = any
    2fb8:	540001c0 	b.eq	2ff0 <TEE_AEEncryptFinal+0x94>  // b.none
/home/zliu/ubuntu-optee-rpi3/RPi3_OPTEE_3.1/optee_os/lib/libutee/tee_api_operations.c:1461
    2fbc:	b9400680 	ldr	w0, [x20, #4]
    2fc0:	7100101f 	cmp	w0, #0x4
    2fc4:	54000161 	b.ne	2ff0 <TEE_AEEncryptFinal+0x94>  // b.any
/home/zliu/ubuntu-optee-rpi3/RPi3_OPTEE_3.1/optee_os/lib/libutee/tee_api_operations.c:1466
    2fc8:	b9401e80 	ldr	w0, [x20, #28]
    2fcc:	36880120 	tbz	w0, #17, 2ff0 <TEE_AEEncryptFinal+0x94>
/home/zliu/ubuntu-optee-rpi3/RPi3_OPTEE_3.1/optee_os/lib/libutee/tee_api_operations.c:1476
    2fd0:	f9402a80 	ldr	x0, [x20, #80]
    2fd4:	2a0203e2 	mov	w2, w2
/home/zliu/ubuntu-optee-rpi3/RPi3_OPTEE_3.1/optee_os/lib/libutee/tee_api_operations.c:1477
    2fd8:	b94002a3 	ldr	w3, [x21]
/home/zliu/ubuntu-optee-rpi3/RPi3_OPTEE_3.1/optee_os/lib/libutee/tee_api_operations.c:1476
    2fdc:	8b000040 	add	x0, x2, x0
/home/zliu/ubuntu-optee-rpi3/RPi3_OPTEE_3.1/optee_os/lib/libutee/tee_api_operations.c:1477
    2fe0:	eb03001f 	cmp	x0, x3
    2fe4:	54000209 	b.ls	3024 <TEE_AEEncryptFinal+0xc8>  // b.plast
/home/zliu/ubuntu-optee-rpi3/RPi3_OPTEE_3.1/optee_os/lib/libutee/tee_api_operations.c:1478
    2fe8:	b90002a0 	str	w0, [x21]
/home/zliu/ubuntu-optee-rpi3/RPi3_OPTEE_3.1/optee_os/lib/libutee/tee_api_operations.c:1489
    2fec:	129ffdf3 	mov	w19, #0xffff0010            	// #-65520
/home/zliu/ubuntu-optee-rpi3/RPi3_OPTEE_3.1/optee_os/lib/libutee/tee_api_operations.c:1526
    2ff0:	7100027f 	cmp	w19, #0x0
    2ff4:	129ffde0 	mov	w0, #0xffff0010            	// #-65520
    2ff8:	7a401264 	ccmp	w19, w0, #0x4, ne  // ne = any
    2ffc:	54000060 	b.eq	3008 <TEE_AEEncryptFinal+0xac>  // b.none
/home/zliu/ubuntu-optee-rpi3/RPi3_OPTEE_3.1/optee_os/lib/libutee/tee_api_operations.c:1528
    3000:	2a1303e0 	mov	w0, w19
    3004:	940002c4 	bl	3b14 <TEE_Panic>
/home/zliu/ubuntu-optee-rpi3/RPi3_OPTEE_3.1/optee_os/lib/libutee/tee_api_operations.c:1531
    3008:	2a1303e0 	mov	w0, w19
    300c:	a94153f3 	ldp	x19, x20, [sp, #16]
    3010:	a9425bf5 	ldp	x21, x22, [sp, #32]
    3014:	a94363f7 	ldp	x23, x24, [sp, #48]
    3018:	a9446bf9 	ldp	x25, x26, [sp, #64]
    301c:	a8c67bfd 	ldp	x29, x30, [sp], #96
    3020:	d65f03c0 	ret
/home/zliu/ubuntu-optee-rpi3/RPi3_OPTEE_3.1/optee_os/lib/libutee/tee_api_operations.c:1487
    3024:	b9405e84 	ldr	w4, [x20, #92]
    3028:	b9400300 	ldr	w0, [x24]
    302c:	6b04001f 	cmp	w0, w4
    3030:	54000062 	b.cs	303c <TEE_AEEncryptFinal+0xe0>  // b.hs, b.nlast
/home/zliu/ubuntu-optee-rpi3/RPi3_OPTEE_3.1/optee_os/lib/libutee/tee_api_operations.c:1488
    3034:	b9000304 	str	w4, [x24]
    3038:	17ffffed 	b	2fec <TEE_AEEncryptFinal+0x90>
/home/zliu/ubuntu-optee-rpi3/RPi3_OPTEE_3.1/optee_os/lib/libutee/tee_api_operations.c:1494
    303c:	910183b7 	add	x23, x29, #0x60
/home/zliu/ubuntu-optee-rpi3/RPi3_OPTEE_3.1/optee_os/lib/libutee/tee_api_operations.c:1493
    3040:	2a0003e0 	mov	w0, w0
    3044:	f9002fa0 	str	x0, [x29, #88]
/home/zliu/ubuntu-optee-rpi3/RPi3_OPTEE_3.1/optee_os/lib/libutee/tee_api_operations.c:1495
    3048:	f9402680 	ldr	x0, [x20, #72]
/home/zliu/ubuntu-optee-rpi3/RPi3_OPTEE_3.1/optee_os/lib/libutee/tee_api_operations.c:1494
    304c:	f81f0ee3 	str	x3, [x23, #-16]!
/home/zliu/ubuntu-optee-rpi3/RPi3_OPTEE_3.1/optee_os/lib/libutee/tee_api_operations.c:1495
    3050:	f100041f 	cmp	x0, #0x1
    3054:	54000469 	b.ls	30e0 <TEE_AEEncryptFinal+0x184>  // b.plast
/home/zliu/ubuntu-optee-rpi3/RPi3_OPTEE_3.1/optee_os/lib/libutee/tee_api_operations.c:1496
    3058:	aa0203e3 	mov	x3, x2
    305c:	aa0103e2 	mov	x2, x1
    3060:	b0000041 	adrp	x1, c000 <__func__.3927+0x294>
    3064:	aa1703e5 	mov	x5, x23
    3068:	aa1903e4 	mov	x4, x25
    306c:	aa1403e0 	mov	x0, x20
    3070:	f9448421 	ldr	x1, [x1, #2312]
    3074:	94000221 	bl	38f8 <tee_buffer_update>
    3078:	2a0003f3 	mov	w19, w0
/home/zliu/ubuntu-optee-rpi3/RPi3_OPTEE_3.1/optee_os/lib/libutee/tee_api_operations.c:1498
    307c:	35fffba0 	cbnz	w0, 2ff0 <TEE_AEEncryptFinal+0x94>
/home/zliu/ubuntu-optee-rpi3/RPi3_OPTEE_3.1/optee_os/lib/libutee/tee_api_operations.c:1501
    3080:	f9402bb6 	ldr	x22, [x29, #80]
/home/zliu/ubuntu-optee-rpi3/RPi3_OPTEE_3.1/optee_os/lib/libutee/tee_api_operations.c:1505
    3084:	910163a6 	add	x6, x29, #0x58
/home/zliu/ubuntu-optee-rpi3/RPi3_OPTEE_3.1/optee_os/lib/libutee/tee_api_operations.c:1504
    3088:	b94002a0 	ldr	w0, [x21]
/home/zliu/ubuntu-optee-rpi3/RPi3_OPTEE_3.1/optee_os/lib/libutee/tee_api_operations.c:1505
    308c:	aa1a03e5 	mov	x5, x26
    3090:	f9401e81 	ldr	x1, [x20, #56]
    3094:	aa1703e4 	mov	x4, x23
/home/zliu/ubuntu-optee-rpi3/RPi3_OPTEE_3.1/optee_os/lib/libutee/tee_api_operations.c:1504
    3098:	cb160000 	sub	x0, x0, x22
/home/zliu/ubuntu-optee-rpi3/RPi3_OPTEE_3.1/optee_os/lib/libutee/tee_api_operations.c:1505
    309c:	f9402a82 	ldr	x2, [x20, #80]
/home/zliu/ubuntu-optee-rpi3/RPi3_OPTEE_3.1/optee_os/lib/libutee/tee_api_operations.c:1504
    30a0:	f9002ba0 	str	x0, [x29, #80]
/home/zliu/ubuntu-optee-rpi3/RPi3_OPTEE_3.1/optee_os/lib/libutee/tee_api_operations.c:1505
    30a4:	8b160323 	add	x3, x25, x22
    30a8:	b9405a80 	ldr	w0, [x20, #88]
    30ac:	940003bc 	bl	3f9c <utee_authenc_enc_final>
    30b0:	2a0003f3 	mov	w19, w0
/home/zliu/ubuntu-optee-rpi3/RPi3_OPTEE_3.1/optee_os/lib/libutee/tee_api_operations.c:1514
    30b4:	f9402fa0 	ldr	x0, [x29, #88]
    30b8:	b9000300 	str	w0, [x24]
/home/zliu/ubuntu-optee-rpi3/RPi3_OPTEE_3.1/optee_os/lib/libutee/tee_api_operations.c:1515
    30bc:	35fff9b3 	cbnz	w19, 2ff0 <TEE_AEEncryptFinal+0x94>
/home/zliu/ubuntu-optee-rpi3/RPi3_OPTEE_3.1/optee_os/lib/libutee/tee_api_operations.c:1518
    30c0:	f9402ba0 	ldr	x0, [x29, #80]
    30c4:	8b0002d6 	add	x22, x22, x0
/home/zliu/ubuntu-optee-rpi3/RPi3_OPTEE_3.1/optee_os/lib/libutee/tee_api_operations.c:1519
    30c8:	b90002b6 	str	w22, [x21]
/home/zliu/ubuntu-optee-rpi3/RPi3_OPTEE_3.1/optee_os/lib/libutee/tee_api_operations.c:1523
    30cc:	b900329f 	str	wzr, [x20, #48]
/home/zliu/ubuntu-optee-rpi3/RPi3_OPTEE_3.1/optee_os/lib/libutee/tee_api_operations.c:1521
    30d0:	b9401e80 	ldr	w0, [x20, #28]
    30d4:	120e7800 	and	w0, w0, #0xfffdffff
    30d8:	b9001e80 	str	w0, [x20, #28]
    30dc:	17ffffc5 	b	2ff0 <TEE_AEEncryptFinal+0x94>
/home/zliu/ubuntu-optee-rpi3/RPi3_OPTEE_3.1/optee_os/lib/libutee/tee_api_operations.c:1510
    30e0:	b9405a80 	ldr	w0, [x20, #88]
    30e4:	910163a6 	add	x6, x29, #0x58
    30e8:	aa1a03e5 	mov	x5, x26
    30ec:	aa1703e4 	mov	x4, x23
    30f0:	aa1903e3 	mov	x3, x25
/home/zliu/ubuntu-optee-rpi3/RPi3_OPTEE_3.1/optee_os/lib/libutee/tee_api_operations.c:1447
    30f4:	d2800016 	mov	x22, #0x0                   	// #0
/home/zliu/ubuntu-optee-rpi3/RPi3_OPTEE_3.1/optee_os/lib/libutee/tee_api_operations.c:1510
    30f8:	940003a9 	bl	3f9c <utee_authenc_enc_final>
    30fc:	2a0003f3 	mov	w19, w0
    3100:	17ffffed 	b	30b4 <TEE_AEEncryptFinal+0x158>

0000000000003104 <TEE_AEDecryptFinal>:
TEE_AEDecryptFinal():
/home/zliu/ubuntu-optee-rpi3/RPi3_OPTEE_3.1/optee_os/lib/libutee/tee_api_operations.c:1537
    3104:	a9ba7bfd 	stp	x29, x30, [sp, #-96]!
    3108:	910003fd 	mov	x29, sp
    310c:	a90153f3 	stp	x19, x20, [sp, #16]
/home/zliu/ubuntu-optee-rpi3/RPi3_OPTEE_3.1/optee_os/lib/libutee/tee_api_operations.c:1549
    3110:	129fff33 	mov	w19, #0xffff0006            	// #-65530
/home/zliu/ubuntu-optee-rpi3/RPi3_OPTEE_3.1/optee_os/lib/libutee/tee_api_operations.c:1537
    3114:	a9025bf5 	stp	x21, x22, [sp, #32]
    3118:	a90363f7 	stp	x23, x24, [sp, #48]
    311c:	a9046bf9 	stp	x25, x26, [sp, #64]
/home/zliu/ubuntu-optee-rpi3/RPi3_OPTEE_3.1/optee_os/lib/libutee/tee_api_operations.c:1544
    3120:	b40003c0 	cbz	x0, 3198 <TEE_AEDecryptFinal+0x94>
/home/zliu/ubuntu-optee-rpi3/RPi3_OPTEE_3.1/optee_os/lib/libutee/tee_api_operations.c:1545 (discriminator 1)
    3124:	f100003f 	cmp	x1, #0x0
    3128:	aa0403f5 	mov	x21, x4
    312c:	7a400844 	ccmp	w2, #0x0, #0x4, eq  // eq = none
    3130:	fa400884 	ccmp	x4, #0x0, #0x4, eq  // eq = none
    3134:	54000320 	b.eq	3198 <TEE_AEDecryptFinal+0x94>  // b.none
    3138:	aa0003f4 	mov	x20, x0
    313c:	aa0303f9 	mov	x25, x3
    3140:	aa0503fa 	mov	x26, x5
    3144:	2a0603f8 	mov	w24, w6
/home/zliu/ubuntu-optee-rpi3/RPi3_OPTEE_3.1/optee_os/lib/libutee/tee_api_operations.c:1546
    3148:	b5000063 	cbnz	x3, 3154 <TEE_AEDecryptFinal+0x50>
/home/zliu/ubuntu-optee-rpi3/RPi3_OPTEE_3.1/optee_os/lib/libutee/tee_api_operations.c:1547
    314c:	b9400080 	ldr	w0, [x4]
    3150:	35000240 	cbnz	w0, 3198 <TEE_AEDecryptFinal+0x94>
/home/zliu/ubuntu-optee-rpi3/RPi3_OPTEE_3.1/optee_os/lib/libutee/tee_api_operations.c:1548 (discriminator 1)
    3154:	f100035f 	cmp	x26, #0x0
/home/zliu/ubuntu-optee-rpi3/RPi3_OPTEE_3.1/optee_os/lib/libutee/tee_api_operations.c:1549 (discriminator 1)
    3158:	129fff33 	mov	w19, #0xffff0006            	// #-65530
/home/zliu/ubuntu-optee-rpi3/RPi3_OPTEE_3.1/optee_os/lib/libutee/tee_api_operations.c:1547 (discriminator 1)
    315c:	7a400b04 	ccmp	w24, #0x0, #0x4, eq  // eq = none
    3160:	540001c1 	b.ne	3198 <TEE_AEDecryptFinal+0x94>  // b.any
/home/zliu/ubuntu-optee-rpi3/RPi3_OPTEE_3.1/optee_os/lib/libutee/tee_api_operations.c:1553
    3164:	b9400680 	ldr	w0, [x20, #4]
    3168:	7100101f 	cmp	w0, #0x4
    316c:	54000161 	b.ne	3198 <TEE_AEDecryptFinal+0x94>  // b.any
/home/zliu/ubuntu-optee-rpi3/RPi3_OPTEE_3.1/optee_os/lib/libutee/tee_api_operations.c:1558
    3170:	b9401e80 	ldr	w0, [x20, #28]
    3174:	36880120 	tbz	w0, #17, 3198 <TEE_AEDecryptFinal+0x94>
/home/zliu/ubuntu-optee-rpi3/RPi3_OPTEE_3.1/optee_os/lib/libutee/tee_api_operations.c:1568
    3178:	f9402a80 	ldr	x0, [x20, #80]
    317c:	2a0203e2 	mov	w2, w2
/home/zliu/ubuntu-optee-rpi3/RPi3_OPTEE_3.1/optee_os/lib/libutee/tee_api_operations.c:1569
    3180:	b94002a3 	ldr	w3, [x21]
/home/zliu/ubuntu-optee-rpi3/RPi3_OPTEE_3.1/optee_os/lib/libutee/tee_api_operations.c:1568
    3184:	8b000040 	add	x0, x2, x0
/home/zliu/ubuntu-optee-rpi3/RPi3_OPTEE_3.1/optee_os/lib/libutee/tee_api_operations.c:1569
    3188:	eb03001f 	cmp	x0, x3
    318c:	54000249 	b.ls	31d4 <TEE_AEDecryptFinal+0xd0>  // b.plast
/home/zliu/ubuntu-optee-rpi3/RPi3_OPTEE_3.1/optee_os/lib/libutee/tee_api_operations.c:1571
    3190:	129ffdf3 	mov	w19, #0xffff0010            	// #-65520
/home/zliu/ubuntu-optee-rpi3/RPi3_OPTEE_3.1/optee_os/lib/libutee/tee_api_operations.c:1570
    3194:	b90002a0 	str	w0, [x21]
/home/zliu/ubuntu-optee-rpi3/RPi3_OPTEE_3.1/optee_os/lib/libutee/tee_api_operations.c:1611
    3198:	7100027f 	cmp	w19, #0x0
    319c:	129ffde0 	mov	w0, #0xffff0010            	// #-65520
    31a0:	7a401264 	ccmp	w19, w0, #0x4, ne  // ne = any
    31a4:	1299f1c0 	mov	w0, #0xffff3071            	// #-53135
    31a8:	7a401264 	ccmp	w19, w0, #0x4, ne  // ne = any
    31ac:	54000060 	b.eq	31b8 <TEE_AEDecryptFinal+0xb4>  // b.none
/home/zliu/ubuntu-optee-rpi3/RPi3_OPTEE_3.1/optee_os/lib/libutee/tee_api_operations.c:1613
    31b0:	2a1303e0 	mov	w0, w19
    31b4:	94000258 	bl	3b14 <TEE_Panic>
/home/zliu/ubuntu-optee-rpi3/RPi3_OPTEE_3.1/optee_os/lib/libutee/tee_api_operations.c:1616
    31b8:	2a1303e0 	mov	w0, w19
    31bc:	a94153f3 	ldp	x19, x20, [sp, #16]
    31c0:	a9425bf5 	ldp	x21, x22, [sp, #32]
    31c4:	a94363f7 	ldp	x23, x24, [sp, #48]
    31c8:	a9446bf9 	ldp	x25, x26, [sp, #64]
    31cc:	a8c67bfd 	ldp	x29, x30, [sp], #96
    31d0:	d65f03c0 	ret
/home/zliu/ubuntu-optee-rpi3/RPi3_OPTEE_3.1/optee_os/lib/libutee/tee_api_operations.c:1575
    31d4:	910183b7 	add	x23, x29, #0x60
/home/zliu/ubuntu-optee-rpi3/RPi3_OPTEE_3.1/optee_os/lib/libutee/tee_api_operations.c:1576
    31d8:	f9402680 	ldr	x0, [x20, #72]
    31dc:	f100041f 	cmp	x0, #0x1
/home/zliu/ubuntu-optee-rpi3/RPi3_OPTEE_3.1/optee_os/lib/libutee/tee_api_operations.c:1575
    31e0:	f81f8ee3 	str	x3, [x23, #-8]!
/home/zliu/ubuntu-optee-rpi3/RPi3_OPTEE_3.1/optee_os/lib/libutee/tee_api_operations.c:1576
    31e4:	540004a9 	b.ls	3278 <TEE_AEDecryptFinal+0x174>  // b.plast
/home/zliu/ubuntu-optee-rpi3/RPi3_OPTEE_3.1/optee_os/lib/libutee/tee_api_operations.c:1577
    31e8:	aa0203e3 	mov	x3, x2
    31ec:	aa0103e2 	mov	x2, x1
    31f0:	b0000041 	adrp	x1, c000 <__func__.3927+0x294>
    31f4:	aa1703e5 	mov	x5, x23
    31f8:	aa1903e4 	mov	x4, x25
    31fc:	aa1403e0 	mov	x0, x20
    3200:	f9448421 	ldr	x1, [x1, #2312]
    3204:	940001bd 	bl	38f8 <tee_buffer_update>
    3208:	2a0003f3 	mov	w19, w0
/home/zliu/ubuntu-optee-rpi3/RPi3_OPTEE_3.1/optee_os/lib/libutee/tee_api_operations.c:1579
    320c:	35fffc60 	cbnz	w0, 3198 <TEE_AEDecryptFinal+0x94>
/home/zliu/ubuntu-optee-rpi3/RPi3_OPTEE_3.1/optee_os/lib/libutee/tee_api_operations.c:1582
    3210:	f9402fb6 	ldr	x22, [x29, #88]
/home/zliu/ubuntu-optee-rpi3/RPi3_OPTEE_3.1/optee_os/lib/libutee/tee_api_operations.c:1586
    3214:	2a1803e6 	mov	w6, w24
/home/zliu/ubuntu-optee-rpi3/RPi3_OPTEE_3.1/optee_os/lib/libutee/tee_api_operations.c:1585
    3218:	b94002a0 	ldr	w0, [x21]
/home/zliu/ubuntu-optee-rpi3/RPi3_OPTEE_3.1/optee_os/lib/libutee/tee_api_operations.c:1586
    321c:	aa1a03e5 	mov	x5, x26
    3220:	f9401e81 	ldr	x1, [x20, #56]
    3224:	aa1703e4 	mov	x4, x23
/home/zliu/ubuntu-optee-rpi3/RPi3_OPTEE_3.1/optee_os/lib/libutee/tee_api_operations.c:1585
    3228:	cb160000 	sub	x0, x0, x22
/home/zliu/ubuntu-optee-rpi3/RPi3_OPTEE_3.1/optee_os/lib/libutee/tee_api_operations.c:1586
    322c:	f9402a82 	ldr	x2, [x20, #80]
/home/zliu/ubuntu-optee-rpi3/RPi3_OPTEE_3.1/optee_os/lib/libutee/tee_api_operations.c:1585
    3230:	f9002fa0 	str	x0, [x29, #88]
/home/zliu/ubuntu-optee-rpi3/RPi3_OPTEE_3.1/optee_os/lib/libutee/tee_api_operations.c:1586
    3234:	8b160323 	add	x3, x25, x22
    3238:	b9405a80 	ldr	w0, [x20, #88]
    323c:	9400035b 	bl	3fa8 <utee_authenc_dec_final>
    3240:	2a0003f3 	mov	w19, w0
/home/zliu/ubuntu-optee-rpi3/RPi3_OPTEE_3.1/optee_os/lib/libutee/tee_api_operations.c:1595
    3244:	35fffab3 	cbnz	w19, 3198 <TEE_AEDecryptFinal+0x94>
/home/zliu/ubuntu-optee-rpi3/RPi3_OPTEE_3.1/optee_os/lib/libutee/tee_api_operations.c:1599
    3248:	b9405e80 	ldr	w0, [x20, #92]
/home/zliu/ubuntu-optee-rpi3/RPi3_OPTEE_3.1/optee_os/lib/libutee/tee_api_operations.c:1600
    324c:	1299f1d3 	mov	w19, #0xffff3071            	// #-53135
    3250:	6b00031f 	cmp	w24, w0
/home/zliu/ubuntu-optee-rpi3/RPi3_OPTEE_3.1/optee_os/lib/libutee/tee_api_operations.c:1602
    3254:	f9402fa0 	ldr	x0, [x29, #88]
/home/zliu/ubuntu-optee-rpi3/RPi3_OPTEE_3.1/optee_os/lib/libutee/tee_api_operations.c:1600
    3258:	1a9303f3 	csel	w19, wzr, w19, eq  // eq = none
/home/zliu/ubuntu-optee-rpi3/RPi3_OPTEE_3.1/optee_os/lib/libutee/tee_api_operations.c:1602
    325c:	8b0002d6 	add	x22, x22, x0
/home/zliu/ubuntu-optee-rpi3/RPi3_OPTEE_3.1/optee_os/lib/libutee/tee_api_operations.c:1603
    3260:	b90002b6 	str	w22, [x21]
/home/zliu/ubuntu-optee-rpi3/RPi3_OPTEE_3.1/optee_os/lib/libutee/tee_api_operations.c:1607
    3264:	b900329f 	str	wzr, [x20, #48]
/home/zliu/ubuntu-optee-rpi3/RPi3_OPTEE_3.1/optee_os/lib/libutee/tee_api_operations.c:1605
    3268:	b9401e80 	ldr	w0, [x20, #28]
    326c:	120e7800 	and	w0, w0, #0xfffdffff
    3270:	b9001e80 	str	w0, [x20, #28]
    3274:	17ffffc9 	b	3198 <TEE_AEDecryptFinal+0x94>
/home/zliu/ubuntu-optee-rpi3/RPi3_OPTEE_3.1/optee_os/lib/libutee/tee_api_operations.c:1591
    3278:	b9405a80 	ldr	w0, [x20, #88]
    327c:	2a1803e6 	mov	w6, w24
    3280:	aa1a03e5 	mov	x5, x26
    3284:	aa1703e4 	mov	x4, x23
    3288:	aa1903e3 	mov	x3, x25
/home/zliu/ubuntu-optee-rpi3/RPi3_OPTEE_3.1/optee_os/lib/libutee/tee_api_operations.c:1540
    328c:	d2800016 	mov	x22, #0x0                   	// #0
/home/zliu/ubuntu-optee-rpi3/RPi3_OPTEE_3.1/optee_os/lib/libutee/tee_api_operations.c:1591
    3290:	94000346 	bl	3fa8 <utee_authenc_dec_final>
    3294:	2a0003f3 	mov	w19, w0
    3298:	17ffffeb 	b	3244 <TEE_AEDecryptFinal+0x140>

000000000000329c <TEE_AsymmetricEncrypt>:
TEE_AsymmetricEncrypt():
/home/zliu/ubuntu-optee-rpi3/RPi3_OPTEE_3.1/optee_os/lib/libutee/tee_api_operations.c:1625
    329c:	a9b97bfd 	stp	x29, x30, [sp, #-112]!
    32a0:	910003fd 	mov	x29, sp
    32a4:	a9046bf9 	stp	x25, x26, [sp, #64]
    32a8:	2a0203fa 	mov	w26, w2
    32ac:	a90153f3 	stp	x19, x20, [sp, #16]
    32b0:	aa0003f3 	mov	x19, x0
/home/zliu/ubuntu-optee-rpi3/RPi3_OPTEE_3.1/optee_os/lib/libutee/tee_api_operations.c:1627
    32b4:	52800300 	mov	w0, #0x18                  	// #24
/home/zliu/ubuntu-optee-rpi3/RPi3_OPTEE_3.1/optee_os/lib/libutee/tee_api_operations.c:1625
    32b8:	a9025bf5 	stp	x21, x22, [sp, #32]
    32bc:	a90363f7 	stp	x23, x24, [sp, #48]
    32c0:	aa0103f9 	mov	x25, x1
/home/zliu/ubuntu-optee-rpi3/RPi3_OPTEE_3.1/optee_os/lib/libutee/tee_api_operations.c:1627
    32c4:	9ba07f40 	umull	x0, w26, w0
/home/zliu/ubuntu-optee-rpi3/RPi3_OPTEE_3.1/optee_os/lib/libutee/tee_api_operations.c:1625
    32c8:	f9002bfb 	str	x27, [sp, #80]
    32cc:	aa1a03f5 	mov	x21, x26
    32d0:	aa0303f6 	mov	x22, x3
/home/zliu/ubuntu-optee-rpi3/RPi3_OPTEE_3.1/optee_os/lib/libutee/tee_api_operations.c:1627
    32d4:	91005800 	add	x0, x0, #0x16
/home/zliu/ubuntu-optee-rpi3/RPi3_OPTEE_3.1/optee_os/lib/libutee/tee_api_operations.c:1625
    32d8:	2a0403f7 	mov	w23, w4
/home/zliu/ubuntu-optee-rpi3/RPi3_OPTEE_3.1/optee_os/lib/libutee/tee_api_operations.c:1627
    32dc:	927c8400 	and	x0, x0, #0x3ffffffff0
/home/zliu/ubuntu-optee-rpi3/RPi3_OPTEE_3.1/optee_os/lib/libutee/tee_api_operations.c:1625
    32e0:	aa0503f8 	mov	x24, x5
/home/zliu/ubuntu-optee-rpi3/RPi3_OPTEE_3.1/optee_os/lib/libutee/tee_api_operations.c:1627
    32e4:	cb2063ff 	sub	sp, sp, x0
/home/zliu/ubuntu-optee-rpi3/RPi3_OPTEE_3.1/optee_os/lib/libutee/tee_api_operations.c:1625
    32e8:	aa0603f4 	mov	x20, x6
/home/zliu/ubuntu-optee-rpi3/RPi3_OPTEE_3.1/optee_os/lib/libutee/tee_api_operations.c:1627
    32ec:	910003fb 	mov	x27, sp
/home/zliu/ubuntu-optee-rpi3/RPi3_OPTEE_3.1/optee_os/lib/libutee/tee_api_operations.c:1630
    32f0:	b4000113 	cbz	x19, 3310 <TEE_AsymmetricEncrypt+0x74>
/home/zliu/ubuntu-optee-rpi3/RPi3_OPTEE_3.1/optee_os/lib/libutee/tee_api_operations.c:1630 (discriminator 1)
    32f4:	f100007f 	cmp	x3, #0x0
    32f8:	7a400884 	ccmp	w4, #0x0, #0x4, eq  // eq = none
    32fc:	fa4008c4 	ccmp	x6, #0x0, #0x4, eq  // eq = none
    3300:	54000080 	b.eq	3310 <TEE_AsymmetricEncrypt+0x74>  // b.none
/home/zliu/ubuntu-optee-rpi3/RPi3_OPTEE_3.1/optee_os/lib/libutee/tee_api_operations.c:1631
    3304:	b50000a5 	cbnz	x5, 3318 <TEE_AsymmetricEncrypt+0x7c>
/home/zliu/ubuntu-optee-rpi3/RPi3_OPTEE_3.1/optee_os/lib/libutee/tee_api_operations.c:1631 (discriminator 1)
    3308:	b94000c0 	ldr	w0, [x6]
    330c:	34000060 	cbz	w0, 3318 <TEE_AsymmetricEncrypt+0x7c>
/home/zliu/ubuntu-optee-rpi3/RPi3_OPTEE_3.1/optee_os/lib/libutee/tee_api_operations.c:1632
    3310:	52800000 	mov	w0, #0x0                   	// #0
    3314:	94000200 	bl	3b14 <TEE_Panic>
/home/zliu/ubuntu-optee-rpi3/RPi3_OPTEE_3.1/optee_os/lib/libutee/tee_api_operations.c:1633
    3318:	f100033f 	cmp	x25, #0x0
    331c:	7a400aa4 	ccmp	w21, #0x0, #0x4, eq  // eq = none
    3320:	54000060 	b.eq	332c <TEE_AsymmetricEncrypt+0x90>  // b.none
/home/zliu/ubuntu-optee-rpi3/RPi3_OPTEE_3.1/optee_os/lib/libutee/tee_api_operations.c:1634
    3324:	52800000 	mov	w0, #0x0                   	// #0
    3328:	940001fb 	bl	3b14 <TEE_Panic>
/home/zliu/ubuntu-optee-rpi3/RPi3_OPTEE_3.1/optee_os/lib/libutee/tee_api_operations.c:1635
    332c:	f9401260 	ldr	x0, [x19, #32]
    3330:	b5000040 	cbnz	x0, 3338 <TEE_AsymmetricEncrypt+0x9c>
/home/zliu/ubuntu-optee-rpi3/RPi3_OPTEE_3.1/optee_os/lib/libutee/tee_api_operations.c:1636
    3334:	940001f8 	bl	3b14 <TEE_Panic>
/home/zliu/ubuntu-optee-rpi3/RPi3_OPTEE_3.1/optee_os/lib/libutee/tee_api_operations.c:1637
    3338:	b9400660 	ldr	w0, [x19, #4]
    333c:	7100181f 	cmp	w0, #0x6
    3340:	54000060 	b.eq	334c <TEE_AsymmetricEncrypt+0xb0>  // b.none
/home/zliu/ubuntu-optee-rpi3/RPi3_OPTEE_3.1/optee_os/lib/libutee/tee_api_operations.c:1638
    3344:	52800000 	mov	w0, #0x0                   	// #0
    3348:	940001f3 	bl	3b14 <TEE_Panic>
/home/zliu/ubuntu-optee-rpi3/RPi3_OPTEE_3.1/optee_os/lib/libutee/tee_api_operations.c:1639
    334c:	b9400a60 	ldr	w0, [x19, #8]
    3350:	34000060 	cbz	w0, 335c <TEE_AsymmetricEncrypt+0xc0>
/home/zliu/ubuntu-optee-rpi3/RPi3_OPTEE_3.1/optee_os/lib/libutee/tee_api_operations.c:1640
    3354:	52800000 	mov	w0, #0x0                   	// #0
    3358:	940001ef 	bl	3b14 <TEE_Panic>
/home/zliu/ubuntu-optee-rpi3/RPi3_OPTEE_3.1/optee_os/lib/libutee/tee_api_operations.c:1642
    335c:	2a1503e2 	mov	w2, w21
    3360:	aa1903e1 	mov	x1, x25
    3364:	aa1b03e0 	mov	x0, x27
    3368:	97fff5bb 	bl	a54 <__utee_from_attr>
/home/zliu/ubuntu-optee-rpi3/RPi3_OPTEE_3.1/optee_os/lib/libutee/tee_api_operations.c:1643
    336c:	9101c3a6 	add	x6, x29, #0x70
    3370:	b9400280 	ldr	w0, [x20]
/home/zliu/ubuntu-optee-rpi3/RPi3_OPTEE_3.1/optee_os/lib/libutee/tee_api_operations.c:1644
    3374:	aa1b03e1 	mov	x1, x27
    3378:	aa1803e5 	mov	x5, x24
    337c:	2a1703e4 	mov	w4, w23
    3380:	aa1603e3 	mov	x3, x22
/home/zliu/ubuntu-optee-rpi3/RPi3_OPTEE_3.1/optee_os/lib/libutee/tee_api_operations.c:1643
    3384:	f81f8cc0 	str	x0, [x6, #-8]!
/home/zliu/ubuntu-optee-rpi3/RPi3_OPTEE_3.1/optee_os/lib/libutee/tee_api_operations.c:1644
    3388:	aa1a03e2 	mov	x2, x26
    338c:	b9405a60 	ldr	w0, [x19, #88]
    3390:	94000309 	bl	3fb4 <utee_asymm_operate>
/home/zliu/ubuntu-optee-rpi3/RPi3_OPTEE_3.1/optee_os/lib/libutee/tee_api_operations.c:1649
    3394:	7100001f 	cmp	w0, #0x0
/home/zliu/ubuntu-optee-rpi3/RPi3_OPTEE_3.1/optee_os/lib/libutee/tee_api_operations.c:1646
    3398:	f94037a1 	ldr	x1, [x29, #104]
/home/zliu/ubuntu-optee-rpi3/RPi3_OPTEE_3.1/optee_os/lib/libutee/tee_api_operations.c:1644
    339c:	2a0003f3 	mov	w19, w0
/home/zliu/ubuntu-optee-rpi3/RPi3_OPTEE_3.1/optee_os/lib/libutee/tee_api_operations.c:1646
    33a0:	b9000281 	str	w1, [x20]
/home/zliu/ubuntu-optee-rpi3/RPi3_OPTEE_3.1/optee_os/lib/libutee/tee_api_operations.c:1649
    33a4:	129ffde1 	mov	w1, #0xffff0010            	// #-65520
    33a8:	7a411004 	ccmp	w0, w1, #0x4, ne  // ne = any
    33ac:	129fff21 	mov	w1, #0xffff0006            	// #-65530
    33b0:	7a411004 	ccmp	w0, w1, #0x4, ne  // ne = any
    33b4:	54000040 	b.eq	33bc <TEE_AsymmetricEncrypt+0x120>  // b.none
/home/zliu/ubuntu-optee-rpi3/RPi3_OPTEE_3.1/optee_os/lib/libutee/tee_api_operations.c:1651
    33b8:	940001d7 	bl	3b14 <TEE_Panic>
/home/zliu/ubuntu-optee-rpi3/RPi3_OPTEE_3.1/optee_os/lib/libutee/tee_api_operations.c:1654
    33bc:	910003bf 	mov	sp, x29
    33c0:	2a1303e0 	mov	w0, w19
    33c4:	f9402bfb 	ldr	x27, [sp, #80]
    33c8:	a94153f3 	ldp	x19, x20, [sp, #16]
    33cc:	a9425bf5 	ldp	x21, x22, [sp, #32]
    33d0:	a94363f7 	ldp	x23, x24, [sp, #48]
    33d4:	a9446bf9 	ldp	x25, x26, [sp, #64]
    33d8:	a8c77bfd 	ldp	x29, x30, [sp], #112
    33dc:	d65f03c0 	ret

00000000000033e0 <TEE_AsymmetricDecrypt>:
TEE_AsymmetricDecrypt():
/home/zliu/ubuntu-optee-rpi3/RPi3_OPTEE_3.1/optee_os/lib/libutee/tee_api_operations.c:1661
    33e0:	a9b97bfd 	stp	x29, x30, [sp, #-112]!
    33e4:	910003fd 	mov	x29, sp
    33e8:	a9046bf9 	stp	x25, x26, [sp, #64]
    33ec:	2a0203fa 	mov	w26, w2
    33f0:	a90153f3 	stp	x19, x20, [sp, #16]
    33f4:	aa0003f3 	mov	x19, x0
/home/zliu/ubuntu-optee-rpi3/RPi3_OPTEE_3.1/optee_os/lib/libutee/tee_api_operations.c:1663
    33f8:	52800300 	mov	w0, #0x18                  	// #24
/home/zliu/ubuntu-optee-rpi3/RPi3_OPTEE_3.1/optee_os/lib/libutee/tee_api_operations.c:1661
    33fc:	a9025bf5 	stp	x21, x22, [sp, #32]
    3400:	a90363f7 	stp	x23, x24, [sp, #48]
    3404:	aa0103f9 	mov	x25, x1
/home/zliu/ubuntu-optee-rpi3/RPi3_OPTEE_3.1/optee_os/lib/libutee/tee_api_operations.c:1663
    3408:	9ba07f40 	umull	x0, w26, w0
/home/zliu/ubuntu-optee-rpi3/RPi3_OPTEE_3.1/optee_os/lib/libutee/tee_api_operations.c:1661
    340c:	f9002bfb 	str	x27, [sp, #80]
    3410:	aa1a03f5 	mov	x21, x26
    3414:	aa0303f6 	mov	x22, x3
/home/zliu/ubuntu-optee-rpi3/RPi3_OPTEE_3.1/optee_os/lib/libutee/tee_api_operations.c:1663
    3418:	91005800 	add	x0, x0, #0x16
/home/zliu/ubuntu-optee-rpi3/RPi3_OPTEE_3.1/optee_os/lib/libutee/tee_api_operations.c:1661
    341c:	2a0403f7 	mov	w23, w4
/home/zliu/ubuntu-optee-rpi3/RPi3_OPTEE_3.1/optee_os/lib/libutee/tee_api_operations.c:1663
    3420:	927c8400 	and	x0, x0, #0x3ffffffff0
/home/zliu/ubuntu-optee-rpi3/RPi3_OPTEE_3.1/optee_os/lib/libutee/tee_api_operations.c:1661
    3424:	aa0503f8 	mov	x24, x5
/home/zliu/ubuntu-optee-rpi3/RPi3_OPTEE_3.1/optee_os/lib/libutee/tee_api_operations.c:1663
    3428:	cb2063ff 	sub	sp, sp, x0
/home/zliu/ubuntu-optee-rpi3/RPi3_OPTEE_3.1/optee_os/lib/libutee/tee_api_operations.c:1661
    342c:	aa0603f4 	mov	x20, x6
/home/zliu/ubuntu-optee-rpi3/RPi3_OPTEE_3.1/optee_os/lib/libutee/tee_api_operations.c:1663
    3430:	910003fb 	mov	x27, sp
/home/zliu/ubuntu-optee-rpi3/RPi3_OPTEE_3.1/optee_os/lib/libutee/tee_api_operations.c:1666
    3434:	b4000113 	cbz	x19, 3454 <TEE_AsymmetricDecrypt+0x74>
/home/zliu/ubuntu-optee-rpi3/RPi3_OPTEE_3.1/optee_os/lib/libutee/tee_api_operations.c:1666 (discriminator 1)
    3438:	f100007f 	cmp	x3, #0x0
    343c:	7a400884 	ccmp	w4, #0x0, #0x4, eq  // eq = none
    3440:	fa4008c4 	ccmp	x6, #0x0, #0x4, eq  // eq = none
    3444:	54000080 	b.eq	3454 <TEE_AsymmetricDecrypt+0x74>  // b.none
/home/zliu/ubuntu-optee-rpi3/RPi3_OPTEE_3.1/optee_os/lib/libutee/tee_api_operations.c:1667
    3448:	b50000a5 	cbnz	x5, 345c <TEE_AsymmetricDecrypt+0x7c>
/home/zliu/ubuntu-optee-rpi3/RPi3_OPTEE_3.1/optee_os/lib/libutee/tee_api_operations.c:1667 (discriminator 1)
    344c:	b94000c0 	ldr	w0, [x6]
    3450:	34000060 	cbz	w0, 345c <TEE_AsymmetricDecrypt+0x7c>
/home/zliu/ubuntu-optee-rpi3/RPi3_OPTEE_3.1/optee_os/lib/libutee/tee_api_operations.c:1668
    3454:	52800000 	mov	w0, #0x0                   	// #0
    3458:	940001af 	bl	3b14 <TEE_Panic>
/home/zliu/ubuntu-optee-rpi3/RPi3_OPTEE_3.1/optee_os/lib/libutee/tee_api_operations.c:1669
    345c:	f100033f 	cmp	x25, #0x0
    3460:	7a400aa4 	ccmp	w21, #0x0, #0x4, eq  // eq = none
    3464:	54000060 	b.eq	3470 <TEE_AsymmetricDecrypt+0x90>  // b.none
/home/zliu/ubuntu-optee-rpi3/RPi3_OPTEE_3.1/optee_os/lib/libutee/tee_api_operations.c:1670
    3468:	52800000 	mov	w0, #0x0                   	// #0
    346c:	940001aa 	bl	3b14 <TEE_Panic>
/home/zliu/ubuntu-optee-rpi3/RPi3_OPTEE_3.1/optee_os/lib/libutee/tee_api_operations.c:1671
    3470:	f9401260 	ldr	x0, [x19, #32]
    3474:	b5000040 	cbnz	x0, 347c <TEE_AsymmetricDecrypt+0x9c>
/home/zliu/ubuntu-optee-rpi3/RPi3_OPTEE_3.1/optee_os/lib/libutee/tee_api_operations.c:1672
    3478:	940001a7 	bl	3b14 <TEE_Panic>
/home/zliu/ubuntu-optee-rpi3/RPi3_OPTEE_3.1/optee_os/lib/libutee/tee_api_operations.c:1673
    347c:	b9400660 	ldr	w0, [x19, #4]
    3480:	7100181f 	cmp	w0, #0x6
    3484:	54000060 	b.eq	3490 <TEE_AsymmetricDecrypt+0xb0>  // b.none
/home/zliu/ubuntu-optee-rpi3/RPi3_OPTEE_3.1/optee_os/lib/libutee/tee_api_operations.c:1674
    3488:	52800000 	mov	w0, #0x0                   	// #0
    348c:	940001a2 	bl	3b14 <TEE_Panic>
/home/zliu/ubuntu-optee-rpi3/RPi3_OPTEE_3.1/optee_os/lib/libutee/tee_api_operations.c:1675
    3490:	b9400a60 	ldr	w0, [x19, #8]
    3494:	7100041f 	cmp	w0, #0x1
    3498:	54000060 	b.eq	34a4 <TEE_AsymmetricDecrypt+0xc4>  // b.none
/home/zliu/ubuntu-optee-rpi3/RPi3_OPTEE_3.1/optee_os/lib/libutee/tee_api_operations.c:1676
    349c:	52800000 	mov	w0, #0x0                   	// #0
    34a0:	9400019d 	bl	3b14 <TEE_Panic>
/home/zliu/ubuntu-optee-rpi3/RPi3_OPTEE_3.1/optee_os/lib/libutee/tee_api_operations.c:1678
    34a4:	2a1503e2 	mov	w2, w21
    34a8:	aa1903e1 	mov	x1, x25
    34ac:	aa1b03e0 	mov	x0, x27
    34b0:	97fff569 	bl	a54 <__utee_from_attr>
/home/zliu/ubuntu-optee-rpi3/RPi3_OPTEE_3.1/optee_os/lib/libutee/tee_api_operations.c:1679
    34b4:	9101c3a6 	add	x6, x29, #0x70
    34b8:	b9400280 	ldr	w0, [x20]
/home/zliu/ubuntu-optee-rpi3/RPi3_OPTEE_3.1/optee_os/lib/libutee/tee_api_operations.c:1680
    34bc:	aa1b03e1 	mov	x1, x27
    34c0:	aa1803e5 	mov	x5, x24
    34c4:	2a1703e4 	mov	w4, w23
    34c8:	aa1603e3 	mov	x3, x22
/home/zliu/ubuntu-optee-rpi3/RPi3_OPTEE_3.1/optee_os/lib/libutee/tee_api_operations.c:1679
    34cc:	f81f8cc0 	str	x0, [x6, #-8]!
/home/zliu/ubuntu-optee-rpi3/RPi3_OPTEE_3.1/optee_os/lib/libutee/tee_api_operations.c:1680
    34d0:	aa1a03e2 	mov	x2, x26
    34d4:	b9405a60 	ldr	w0, [x19, #88]
    34d8:	940002b7 	bl	3fb4 <utee_asymm_operate>
/home/zliu/ubuntu-optee-rpi3/RPi3_OPTEE_3.1/optee_os/lib/libutee/tee_api_operations.c:1685
    34dc:	7100001f 	cmp	w0, #0x0
/home/zliu/ubuntu-optee-rpi3/RPi3_OPTEE_3.1/optee_os/lib/libutee/tee_api_operations.c:1682
    34e0:	f94037a1 	ldr	x1, [x29, #104]
/home/zliu/ubuntu-optee-rpi3/RPi3_OPTEE_3.1/optee_os/lib/libutee/tee_api_operations.c:1680
    34e4:	2a0003f3 	mov	w19, w0
/home/zliu/ubuntu-optee-rpi3/RPi3_OPTEE_3.1/optee_os/lib/libutee/tee_api_operations.c:1682
    34e8:	b9000281 	str	w1, [x20]
/home/zliu/ubuntu-optee-rpi3/RPi3_OPTEE_3.1/optee_os/lib/libutee/tee_api_operations.c:1685
    34ec:	129ffde1 	mov	w1, #0xffff0010            	// #-65520
    34f0:	7a411004 	ccmp	w0, w1, #0x4, ne  // ne = any
    34f4:	129fff21 	mov	w1, #0xffff0006            	// #-65530
    34f8:	7a411004 	ccmp	w0, w1, #0x4, ne  // ne = any
    34fc:	54000040 	b.eq	3504 <TEE_AsymmetricDecrypt+0x124>  // b.none
/home/zliu/ubuntu-optee-rpi3/RPi3_OPTEE_3.1/optee_os/lib/libutee/tee_api_operations.c:1687
    3500:	94000185 	bl	3b14 <TEE_Panic>
/home/zliu/ubuntu-optee-rpi3/RPi3_OPTEE_3.1/optee_os/lib/libutee/tee_api_operations.c:1690
    3504:	910003bf 	mov	sp, x29
    3508:	2a1303e0 	mov	w0, w19
    350c:	f9402bfb 	ldr	x27, [sp, #80]
    3510:	a94153f3 	ldp	x19, x20, [sp, #16]
    3514:	a9425bf5 	ldp	x21, x22, [sp, #32]
    3518:	a94363f7 	ldp	x23, x24, [sp, #48]
    351c:	a9446bf9 	ldp	x25, x26, [sp, #64]
    3520:	a8c77bfd 	ldp	x29, x30, [sp], #112
    3524:	d65f03c0 	ret

0000000000003528 <TEE_AsymmetricSignDigest>:
TEE_AsymmetricSignDigest():
/home/zliu/ubuntu-optee-rpi3/RPi3_OPTEE_3.1/optee_os/lib/libutee/tee_api_operations.c:1697
    3528:	a9b97bfd 	stp	x29, x30, [sp, #-112]!
    352c:	910003fd 	mov	x29, sp
    3530:	a9046bf9 	stp	x25, x26, [sp, #64]
    3534:	2a0203fa 	mov	w26, w2
    3538:	a90153f3 	stp	x19, x20, [sp, #16]
    353c:	aa0003f3 	mov	x19, x0
/home/zliu/ubuntu-optee-rpi3/RPi3_OPTEE_3.1/optee_os/lib/libutee/tee_api_operations.c:1699
    3540:	52800300 	mov	w0, #0x18                  	// #24
/home/zliu/ubuntu-optee-rpi3/RPi3_OPTEE_3.1/optee_os/lib/libutee/tee_api_operations.c:1697
    3544:	a9025bf5 	stp	x21, x22, [sp, #32]
    3548:	a90363f7 	stp	x23, x24, [sp, #48]
    354c:	aa0103f9 	mov	x25, x1
/home/zliu/ubuntu-optee-rpi3/RPi3_OPTEE_3.1/optee_os/lib/libutee/tee_api_operations.c:1699
    3550:	9ba07f40 	umull	x0, w26, w0
/home/zliu/ubuntu-optee-rpi3/RPi3_OPTEE_3.1/optee_os/lib/libutee/tee_api_operations.c:1697
    3554:	f9002bfb 	str	x27, [sp, #80]
    3558:	aa1a03f4 	mov	x20, x26
    355c:	aa0303f6 	mov	x22, x3
/home/zliu/ubuntu-optee-rpi3/RPi3_OPTEE_3.1/optee_os/lib/libutee/tee_api_operations.c:1699
    3560:	91005800 	add	x0, x0, #0x16
/home/zliu/ubuntu-optee-rpi3/RPi3_OPTEE_3.1/optee_os/lib/libutee/tee_api_operations.c:1697
    3564:	2a0403f7 	mov	w23, w4
/home/zliu/ubuntu-optee-rpi3/RPi3_OPTEE_3.1/optee_os/lib/libutee/tee_api_operations.c:1699
    3568:	927c8400 	and	x0, x0, #0x3ffffffff0
/home/zliu/ubuntu-optee-rpi3/RPi3_OPTEE_3.1/optee_os/lib/libutee/tee_api_operations.c:1697
    356c:	aa0503f8 	mov	x24, x5
/home/zliu/ubuntu-optee-rpi3/RPi3_OPTEE_3.1/optee_os/lib/libutee/tee_api_operations.c:1699
    3570:	cb2063ff 	sub	sp, sp, x0
/home/zliu/ubuntu-optee-rpi3/RPi3_OPTEE_3.1/optee_os/lib/libutee/tee_api_operations.c:1697
    3574:	aa0603f5 	mov	x21, x6
/home/zliu/ubuntu-optee-rpi3/RPi3_OPTEE_3.1/optee_os/lib/libutee/tee_api_operations.c:1699
    3578:	910003fb 	mov	x27, sp
/home/zliu/ubuntu-optee-rpi3/RPi3_OPTEE_3.1/optee_os/lib/libutee/tee_api_operations.c:1702
    357c:	b40000f3 	cbz	x19, 3598 <TEE_AsymmetricSignDigest+0x70>
/home/zliu/ubuntu-optee-rpi3/RPi3_OPTEE_3.1/optee_os/lib/libutee/tee_api_operations.c:1703 (discriminator 1)
    3580:	f100007f 	cmp	x3, #0x0
/home/zliu/ubuntu-optee-rpi3/RPi3_OPTEE_3.1/optee_os/lib/libutee/tee_api_operations.c:1702 (discriminator 1)
    3584:	7a400884 	ccmp	w4, #0x0, #0x4, eq  // eq = none
    3588:	54000081 	b.ne	3598 <TEE_AsymmetricSignDigest+0x70>  // b.any
/home/zliu/ubuntu-optee-rpi3/RPi3_OPTEE_3.1/optee_os/lib/libutee/tee_api_operations.c:1704
    358c:	f10000bf 	cmp	x5, #0x0
    3590:	fa4018c4 	ccmp	x6, #0x0, #0x4, ne  // ne = any
    3594:	54000061 	b.ne	35a0 <TEE_AsymmetricSignDigest+0x78>  // b.any
/home/zliu/ubuntu-optee-rpi3/RPi3_OPTEE_3.1/optee_os/lib/libutee/tee_api_operations.c:1705
    3598:	52800000 	mov	w0, #0x0                   	// #0
    359c:	9400015e 	bl	3b14 <TEE_Panic>
/home/zliu/ubuntu-optee-rpi3/RPi3_OPTEE_3.1/optee_os/lib/libutee/tee_api_operations.c:1706
    35a0:	f100033f 	cmp	x25, #0x0
    35a4:	7a400a84 	ccmp	w20, #0x0, #0x4, eq  // eq = none
    35a8:	54000060 	b.eq	35b4 <TEE_AsymmetricSignDigest+0x8c>  // b.none
/home/zliu/ubuntu-optee-rpi3/RPi3_OPTEE_3.1/optee_os/lib/libutee/tee_api_operations.c:1707
    35ac:	52800000 	mov	w0, #0x0                   	// #0
    35b0:	94000159 	bl	3b14 <TEE_Panic>
/home/zliu/ubuntu-optee-rpi3/RPi3_OPTEE_3.1/optee_os/lib/libutee/tee_api_operations.c:1708
    35b4:	f9401260 	ldr	x0, [x19, #32]
    35b8:	b5000040 	cbnz	x0, 35c0 <TEE_AsymmetricSignDigest+0x98>
/home/zliu/ubuntu-optee-rpi3/RPi3_OPTEE_3.1/optee_os/lib/libutee/tee_api_operations.c:1709
    35bc:	94000156 	bl	3b14 <TEE_Panic>
/home/zliu/ubuntu-optee-rpi3/RPi3_OPTEE_3.1/optee_os/lib/libutee/tee_api_operations.c:1710
    35c0:	b9400660 	ldr	w0, [x19, #4]
    35c4:	71001c1f 	cmp	w0, #0x7
    35c8:	54000060 	b.eq	35d4 <TEE_AsymmetricSignDigest+0xac>  // b.none
/home/zliu/ubuntu-optee-rpi3/RPi3_OPTEE_3.1/optee_os/lib/libutee/tee_api_operations.c:1712
    35cc:	52800000 	mov	w0, #0x0                   	// #0
    35d0:	94000151 	bl	3b14 <TEE_Panic>
/home/zliu/ubuntu-optee-rpi3/RPi3_OPTEE_3.1/optee_os/lib/libutee/tee_api_operations.c:1713
    35d4:	b9400a60 	ldr	w0, [x19, #8]
    35d8:	7100081f 	cmp	w0, #0x2
    35dc:	54000060 	b.eq	35e8 <TEE_AsymmetricSignDigest+0xc0>  // b.none
/home/zliu/ubuntu-optee-rpi3/RPi3_OPTEE_3.1/optee_os/lib/libutee/tee_api_operations.c:1714
    35e0:	52800000 	mov	w0, #0x0                   	// #0
    35e4:	9400014c 	bl	3b14 <TEE_Panic>
/home/zliu/ubuntu-optee-rpi3/RPi3_OPTEE_3.1/optee_os/lib/libutee/tee_api_operations.c:1716
    35e8:	2a1403e2 	mov	w2, w20
    35ec:	aa1903e1 	mov	x1, x25
    35f0:	aa1b03e0 	mov	x0, x27
    35f4:	97fff518 	bl	a54 <__utee_from_attr>
/home/zliu/ubuntu-optee-rpi3/RPi3_OPTEE_3.1/optee_os/lib/libutee/tee_api_operations.c:1717
    35f8:	9101c3a6 	add	x6, x29, #0x70
    35fc:	b94002a0 	ldr	w0, [x21]
/home/zliu/ubuntu-optee-rpi3/RPi3_OPTEE_3.1/optee_os/lib/libutee/tee_api_operations.c:1718
    3600:	aa1b03e1 	mov	x1, x27
    3604:	aa1803e5 	mov	x5, x24
    3608:	2a1703e4 	mov	w4, w23
    360c:	aa1603e3 	mov	x3, x22
/home/zliu/ubuntu-optee-rpi3/RPi3_OPTEE_3.1/optee_os/lib/libutee/tee_api_operations.c:1717
    3610:	f81f8cc0 	str	x0, [x6, #-8]!
/home/zliu/ubuntu-optee-rpi3/RPi3_OPTEE_3.1/optee_os/lib/libutee/tee_api_operations.c:1718
    3614:	aa1a03e2 	mov	x2, x26
    3618:	b9405a60 	ldr	w0, [x19, #88]
    361c:	94000266 	bl	3fb4 <utee_asymm_operate>
/home/zliu/ubuntu-optee-rpi3/RPi3_OPTEE_3.1/optee_os/lib/libutee/tee_api_operations.c:1722
    3620:	7100001f 	cmp	w0, #0x0
/home/zliu/ubuntu-optee-rpi3/RPi3_OPTEE_3.1/optee_os/lib/libutee/tee_api_operations.c:1720
    3624:	f94037a1 	ldr	x1, [x29, #104]
/home/zliu/ubuntu-optee-rpi3/RPi3_OPTEE_3.1/optee_os/lib/libutee/tee_api_operations.c:1718
    3628:	2a0003f3 	mov	w19, w0
/home/zliu/ubuntu-optee-rpi3/RPi3_OPTEE_3.1/optee_os/lib/libutee/tee_api_operations.c:1720
    362c:	b90002a1 	str	w1, [x21]
/home/zliu/ubuntu-optee-rpi3/RPi3_OPTEE_3.1/optee_os/lib/libutee/tee_api_operations.c:1722
    3630:	129ffde1 	mov	w1, #0xffff0010            	// #-65520
    3634:	7a411004 	ccmp	w0, w1, #0x4, ne  // ne = any
    3638:	54000040 	b.eq	3640 <TEE_AsymmetricSignDigest+0x118>  // b.none
/home/zliu/ubuntu-optee-rpi3/RPi3_OPTEE_3.1/optee_os/lib/libutee/tee_api_operations.c:1723
    363c:	94000136 	bl	3b14 <TEE_Panic>
/home/zliu/ubuntu-optee-rpi3/RPi3_OPTEE_3.1/optee_os/lib/libutee/tee_api_operations.c:1726
    3640:	910003bf 	mov	sp, x29
    3644:	2a1303e0 	mov	w0, w19
    3648:	f9402bfb 	ldr	x27, [sp, #80]
    364c:	a94153f3 	ldp	x19, x20, [sp, #16]
    3650:	a9425bf5 	ldp	x21, x22, [sp, #32]
    3654:	a94363f7 	ldp	x23, x24, [sp, #48]
    3658:	a9446bf9 	ldp	x25, x26, [sp, #64]
    365c:	a8c77bfd 	ldp	x29, x30, [sp], #112
    3660:	d65f03c0 	ret

0000000000003664 <TEE_AsymmetricVerifyDigest>:
TEE_AsymmetricVerifyDigest():
/home/zliu/ubuntu-optee-rpi3/RPi3_OPTEE_3.1/optee_os/lib/libutee/tee_api_operations.c:1734
    3664:	a9ba7bfd 	stp	x29, x30, [sp, #-96]!
    3668:	910003fd 	mov	x29, sp
    366c:	a9046bf9 	stp	x25, x26, [sp, #64]
    3670:	2a0203fa 	mov	w26, w2
    3674:	a90153f3 	stp	x19, x20, [sp, #16]
    3678:	aa0003f3 	mov	x19, x0
/home/zliu/ubuntu-optee-rpi3/RPi3_OPTEE_3.1/optee_os/lib/libutee/tee_api_operations.c:1736
    367c:	52800300 	mov	w0, #0x18                  	// #24
/home/zliu/ubuntu-optee-rpi3/RPi3_OPTEE_3.1/optee_os/lib/libutee/tee_api_operations.c:1734
    3680:	a9025bf5 	stp	x21, x22, [sp, #32]
    3684:	a90363f7 	stp	x23, x24, [sp, #48]
    3688:	aa0103f9 	mov	x25, x1
/home/zliu/ubuntu-optee-rpi3/RPi3_OPTEE_3.1/optee_os/lib/libutee/tee_api_operations.c:1736
    368c:	9ba07f40 	umull	x0, w26, w0
/home/zliu/ubuntu-optee-rpi3/RPi3_OPTEE_3.1/optee_os/lib/libutee/tee_api_operations.c:1734
    3690:	f9002bfb 	str	x27, [sp, #80]
    3694:	aa1a03f4 	mov	x20, x26
    3698:	aa0303f5 	mov	x21, x3
/home/zliu/ubuntu-optee-rpi3/RPi3_OPTEE_3.1/optee_os/lib/libutee/tee_api_operations.c:1736
    369c:	91005800 	add	x0, x0, #0x16
/home/zliu/ubuntu-optee-rpi3/RPi3_OPTEE_3.1/optee_os/lib/libutee/tee_api_operations.c:1734
    36a0:	2a0403f6 	mov	w22, w4
/home/zliu/ubuntu-optee-rpi3/RPi3_OPTEE_3.1/optee_os/lib/libutee/tee_api_operations.c:1736
    36a4:	927c8400 	and	x0, x0, #0x3ffffffff0
/home/zliu/ubuntu-optee-rpi3/RPi3_OPTEE_3.1/optee_os/lib/libutee/tee_api_operations.c:1734
    36a8:	aa0503f7 	mov	x23, x5
/home/zliu/ubuntu-optee-rpi3/RPi3_OPTEE_3.1/optee_os/lib/libutee/tee_api_operations.c:1736
    36ac:	cb2063ff 	sub	sp, sp, x0
/home/zliu/ubuntu-optee-rpi3/RPi3_OPTEE_3.1/optee_os/lib/libutee/tee_api_operations.c:1734
    36b0:	2a0603f8 	mov	w24, w6
/home/zliu/ubuntu-optee-rpi3/RPi3_OPTEE_3.1/optee_os/lib/libutee/tee_api_operations.c:1736
    36b4:	910003fb 	mov	x27, sp
/home/zliu/ubuntu-optee-rpi3/RPi3_OPTEE_3.1/optee_os/lib/libutee/tee_api_operations.c:1738
    36b8:	b40000f3 	cbz	x19, 36d4 <TEE_AsymmetricVerifyDigest+0x70>
/home/zliu/ubuntu-optee-rpi3/RPi3_OPTEE_3.1/optee_os/lib/libutee/tee_api_operations.c:1739 (discriminator 1)
    36bc:	f100007f 	cmp	x3, #0x0
/home/zliu/ubuntu-optee-rpi3/RPi3_OPTEE_3.1/optee_os/lib/libutee/tee_api_operations.c:1738 (discriminator 1)
    36c0:	7a400884 	ccmp	w4, #0x0, #0x4, eq  // eq = none
    36c4:	54000081 	b.ne	36d4 <TEE_AsymmetricVerifyDigest+0x70>  // b.any
/home/zliu/ubuntu-optee-rpi3/RPi3_OPTEE_3.1/optee_os/lib/libutee/tee_api_operations.c:1740
    36c8:	f10000bf 	cmp	x5, #0x0
/home/zliu/ubuntu-optee-rpi3/RPi3_OPTEE_3.1/optee_os/lib/libutee/tee_api_operations.c:1739
    36cc:	7a4008c4 	ccmp	w6, #0x0, #0x4, eq  // eq = none
    36d0:	54000060 	b.eq	36dc <TEE_AsymmetricVerifyDigest+0x78>  // b.none
/home/zliu/ubuntu-optee-rpi3/RPi3_OPTEE_3.1/optee_os/lib/libutee/tee_api_operations.c:1741
    36d4:	52800000 	mov	w0, #0x0                   	// #0
    36d8:	9400010f 	bl	3b14 <TEE_Panic>
/home/zliu/ubuntu-optee-rpi3/RPi3_OPTEE_3.1/optee_os/lib/libutee/tee_api_operations.c:1742
    36dc:	f100033f 	cmp	x25, #0x0
    36e0:	7a400a84 	ccmp	w20, #0x0, #0x4, eq  // eq = none
    36e4:	54000060 	b.eq	36f0 <TEE_AsymmetricVerifyDigest+0x8c>  // b.none
/home/zliu/ubuntu-optee-rpi3/RPi3_OPTEE_3.1/optee_os/lib/libutee/tee_api_operations.c:1743
    36e8:	52800000 	mov	w0, #0x0                   	// #0
    36ec:	9400010a 	bl	3b14 <TEE_Panic>
/home/zliu/ubuntu-optee-rpi3/RPi3_OPTEE_3.1/optee_os/lib/libutee/tee_api_operations.c:1744
    36f0:	f9401260 	ldr	x0, [x19, #32]
    36f4:	b5000040 	cbnz	x0, 36fc <TEE_AsymmetricVerifyDigest+0x98>
/home/zliu/ubuntu-optee-rpi3/RPi3_OPTEE_3.1/optee_os/lib/libutee/tee_api_operations.c:1745
    36f8:	94000107 	bl	3b14 <TEE_Panic>
/home/zliu/ubuntu-optee-rpi3/RPi3_OPTEE_3.1/optee_os/lib/libutee/tee_api_operations.c:1746
    36fc:	b9400660 	ldr	w0, [x19, #4]
    3700:	71001c1f 	cmp	w0, #0x7
    3704:	54000060 	b.eq	3710 <TEE_AsymmetricVerifyDigest+0xac>  // b.none
/home/zliu/ubuntu-optee-rpi3/RPi3_OPTEE_3.1/optee_os/lib/libutee/tee_api_operations.c:1748
    3708:	52800000 	mov	w0, #0x0                   	// #0
    370c:	94000102 	bl	3b14 <TEE_Panic>
/home/zliu/ubuntu-optee-rpi3/RPi3_OPTEE_3.1/optee_os/lib/libutee/tee_api_operations.c:1749
    3710:	b9400a60 	ldr	w0, [x19, #8]
    3714:	71000c1f 	cmp	w0, #0x3
    3718:	54000060 	b.eq	3724 <TEE_AsymmetricVerifyDigest+0xc0>  // b.none
/home/zliu/ubuntu-optee-rpi3/RPi3_OPTEE_3.1/optee_os/lib/libutee/tee_api_operations.c:1750
    371c:	52800000 	mov	w0, #0x0                   	// #0
    3720:	940000fd 	bl	3b14 <TEE_Panic>
/home/zliu/ubuntu-optee-rpi3/RPi3_OPTEE_3.1/optee_os/lib/libutee/tee_api_operations.c:1752
    3724:	2a1403e2 	mov	w2, w20
    3728:	aa1903e1 	mov	x1, x25
    372c:	aa1b03e0 	mov	x0, x27
    3730:	97fff4c9 	bl	a54 <__utee_from_attr>
/home/zliu/ubuntu-optee-rpi3/RPi3_OPTEE_3.1/optee_os/lib/libutee/tee_api_operations.c:1753
    3734:	b9405a60 	ldr	w0, [x19, #88]
    3738:	aa1b03e1 	mov	x1, x27
    373c:	2a1803e6 	mov	w6, w24
    3740:	aa1703e5 	mov	x5, x23
    3744:	2a1603e4 	mov	w4, w22
    3748:	aa1503e3 	mov	x3, x21
    374c:	aa1a03e2 	mov	x2, x26
    3750:	9400021c 	bl	3fc0 <utee_asymm_verify>
/home/zliu/ubuntu-optee-rpi3/RPi3_OPTEE_3.1/optee_os/lib/libutee/tee_api_operations.c:1756
    3754:	7100001f 	cmp	w0, #0x0
    3758:	1299f1a1 	mov	w1, #0xffff3072            	// #-53134
/home/zliu/ubuntu-optee-rpi3/RPi3_OPTEE_3.1/optee_os/lib/libutee/tee_api_operations.c:1753
    375c:	2a0003f3 	mov	w19, w0
/home/zliu/ubuntu-optee-rpi3/RPi3_OPTEE_3.1/optee_os/lib/libutee/tee_api_operations.c:1756
    3760:	7a411004 	ccmp	w0, w1, #0x4, ne  // ne = any
    3764:	54000040 	b.eq	376c <TEE_AsymmetricVerifyDigest+0x108>  // b.none
/home/zliu/ubuntu-optee-rpi3/RPi3_OPTEE_3.1/optee_os/lib/libutee/tee_api_operations.c:1757
    3768:	940000eb 	bl	3b14 <TEE_Panic>
/home/zliu/ubuntu-optee-rpi3/RPi3_OPTEE_3.1/optee_os/lib/libutee/tee_api_operations.c:1760
    376c:	910003bf 	mov	sp, x29
    3770:	2a1303e0 	mov	w0, w19
    3774:	f9402bfb 	ldr	x27, [sp, #80]
    3778:	a94153f3 	ldp	x19, x20, [sp, #16]
    377c:	a9425bf5 	ldp	x21, x22, [sp, #32]
    3780:	a94363f7 	ldp	x23, x24, [sp, #48]
    3784:	a9446bf9 	ldp	x25, x26, [sp, #64]
    3788:	a8c67bfd 	ldp	x29, x30, [sp], #96
    378c:	d65f03c0 	ret

0000000000003790 <TEE_DeriveKey>:
TEE_DeriveKey():
/home/zliu/ubuntu-optee-rpi3/RPi3_OPTEE_3.1/optee_os/lib/libutee/tee_api_operations.c:1767
    3790:	a9ba7bfd 	stp	x29, x30, [sp, #-96]!
    3794:	910003fd 	mov	x29, sp
    3798:	a90363f7 	stp	x23, x24, [sp, #48]
    379c:	2a0203f7 	mov	w23, w2
    37a0:	a90153f3 	stp	x19, x20, [sp, #16]
    37a4:	aa0003f3 	mov	x19, x0
/home/zliu/ubuntu-optee-rpi3/RPi3_OPTEE_3.1/optee_os/lib/libutee/tee_api_operations.c:1770
    37a8:	52800300 	mov	w0, #0x18                  	// #24
/home/zliu/ubuntu-optee-rpi3/RPi3_OPTEE_3.1/optee_os/lib/libutee/tee_api_operations.c:1767
    37ac:	a9025bf5 	stp	x21, x22, [sp, #32]
/home/zliu/ubuntu-optee-rpi3/RPi3_OPTEE_3.1/optee_os/lib/libutee/tee_api_operations.c:1772
    37b0:	f100027f 	cmp	x19, #0x0
/home/zliu/ubuntu-optee-rpi3/RPi3_OPTEE_3.1/optee_os/lib/libutee/tee_api_operations.c:1767
    37b4:	aa0103f6 	mov	x22, x1
/home/zliu/ubuntu-optee-rpi3/RPi3_OPTEE_3.1/optee_os/lib/libutee/tee_api_operations.c:1770
    37b8:	9ba07ee0 	umull	x0, w23, w0
/home/zliu/ubuntu-optee-rpi3/RPi3_OPTEE_3.1/optee_os/lib/libutee/tee_api_operations.c:1767
    37bc:	aa1703f4 	mov	x20, x23
    37c0:	aa0303f5 	mov	x21, x3
/home/zliu/ubuntu-optee-rpi3/RPi3_OPTEE_3.1/optee_os/lib/libutee/tee_api_operations.c:1772
    37c4:	fa401864 	ccmp	x3, #0x0, #0x4, ne  // ne = any
/home/zliu/ubuntu-optee-rpi3/RPi3_OPTEE_3.1/optee_os/lib/libutee/tee_api_operations.c:1770
    37c8:	91005800 	add	x0, x0, #0x16
    37cc:	927c8400 	and	x0, x0, #0x3ffffffff0
    37d0:	cb2063ff 	sub	sp, sp, x0
    37d4:	910003f8 	mov	x24, sp
/home/zliu/ubuntu-optee-rpi3/RPi3_OPTEE_3.1/optee_os/lib/libutee/tee_api_operations.c:1772
    37d8:	54000061 	b.ne	37e4 <TEE_DeriveKey+0x54>  // b.any
/home/zliu/ubuntu-optee-rpi3/RPi3_OPTEE_3.1/optee_os/lib/libutee/tee_api_operations.c:1773
    37dc:	52800000 	mov	w0, #0x0                   	// #0
    37e0:	940000cd 	bl	3b14 <TEE_Panic>
/home/zliu/ubuntu-optee-rpi3/RPi3_OPTEE_3.1/optee_os/lib/libutee/tee_api_operations.c:1774
    37e4:	f10002df 	cmp	x22, #0x0
    37e8:	7a400a84 	ccmp	w20, #0x0, #0x4, eq  // eq = none
    37ec:	54000060 	b.eq	37f8 <TEE_DeriveKey+0x68>  // b.none
/home/zliu/ubuntu-optee-rpi3/RPi3_OPTEE_3.1/optee_os/lib/libutee/tee_api_operations.c:1775
    37f0:	52800000 	mov	w0, #0x0                   	// #0
    37f4:	940000c8 	bl	3b14 <TEE_Panic>
/home/zliu/ubuntu-optee-rpi3/RPi3_OPTEE_3.1/optee_os/lib/libutee/tee_api_operations.c:1776
    37f8:	b9400260 	ldr	w0, [x19]
    37fc:	531c7c00 	lsr	w0, w0, #28
    3800:	7100201f 	cmp	w0, #0x8
    3804:	54000060 	b.eq	3810 <TEE_DeriveKey+0x80>  // b.none
/home/zliu/ubuntu-optee-rpi3/RPi3_OPTEE_3.1/optee_os/lib/libutee/tee_api_operations.c:1778
    3808:	52800000 	mov	w0, #0x0                   	// #0
    380c:	940000c2 	bl	3b14 <TEE_Panic>
/home/zliu/ubuntu-optee-rpi3/RPi3_OPTEE_3.1/optee_os/lib/libutee/tee_api_operations.c:1780
    3810:	b9400660 	ldr	w0, [x19, #4]
    3814:	7100201f 	cmp	w0, #0x8
    3818:	54000060 	b.eq	3824 <TEE_DeriveKey+0x94>  // b.none
/home/zliu/ubuntu-optee-rpi3/RPi3_OPTEE_3.1/optee_os/lib/libutee/tee_api_operations.c:1781
    381c:	52800000 	mov	w0, #0x0                   	// #0
    3820:	940000bd 	bl	3b14 <TEE_Panic>
/home/zliu/ubuntu-optee-rpi3/RPi3_OPTEE_3.1/optee_os/lib/libutee/tee_api_operations.c:1782
    3824:	f9401260 	ldr	x0, [x19, #32]
    3828:	b5000040 	cbnz	x0, 3830 <TEE_DeriveKey+0xa0>
/home/zliu/ubuntu-optee-rpi3/RPi3_OPTEE_3.1/optee_os/lib/libutee/tee_api_operations.c:1783
    382c:	940000ba 	bl	3b14 <TEE_Panic>
/home/zliu/ubuntu-optee-rpi3/RPi3_OPTEE_3.1/optee_os/lib/libutee/tee_api_operations.c:1784
    3830:	b9400a60 	ldr	w0, [x19, #8]
    3834:	7100181f 	cmp	w0, #0x6
    3838:	54000060 	b.eq	3844 <TEE_DeriveKey+0xb4>  // b.none
/home/zliu/ubuntu-optee-rpi3/RPi3_OPTEE_3.1/optee_os/lib/libutee/tee_api_operations.c:1785
    383c:	52800000 	mov	w0, #0x0                   	// #0
    3840:	940000b5 	bl	3b14 <TEE_Panic>
/home/zliu/ubuntu-optee-rpi3/RPi3_OPTEE_3.1/optee_os/lib/libutee/tee_api_operations.c:1786
    3844:	b9401e60 	ldr	w0, [x19, #28]
    3848:	37900060 	tbnz	w0, #18, 3854 <TEE_DeriveKey+0xc4>
/home/zliu/ubuntu-optee-rpi3/RPi3_OPTEE_3.1/optee_os/lib/libutee/tee_api_operations.c:1787
    384c:	52800000 	mov	w0, #0x0                   	// #0
    3850:	940000b1 	bl	3b14 <TEE_Panic>
/home/zliu/ubuntu-optee-rpi3/RPi3_OPTEE_3.1/optee_os/lib/libutee/tee_api_operations.c:1789
    3854:	910103a1 	add	x1, x29, #0x40
    3858:	aa1503e0 	mov	x0, x21
    385c:	940001a9 	bl	3f00 <utee_cryp_obj_get_info>
/home/zliu/ubuntu-optee-rpi3/RPi3_OPTEE_3.1/optee_os/lib/libutee/tee_api_operations.c:1790
    3860:	34000040 	cbz	w0, 3868 <TEE_DeriveKey+0xd8>
/home/zliu/ubuntu-optee-rpi3/RPi3_OPTEE_3.1/optee_os/lib/libutee/tee_api_operations.c:1791
    3864:	940000ac 	bl	3b14 <TEE_Panic>
/home/zliu/ubuntu-optee-rpi3/RPi3_OPTEE_3.1/optee_os/lib/libutee/tee_api_operations.c:1793
    3868:	b94043a1 	ldr	w1, [x29, #64]
    386c:	52b40000 	mov	w0, #0xa0000000            	// #-1610612736
    3870:	6b00003f 	cmp	w1, w0
    3874:	54000060 	b.eq	3880 <TEE_DeriveKey+0xf0>  // b.none
/home/zliu/ubuntu-optee-rpi3/RPi3_OPTEE_3.1/optee_os/lib/libutee/tee_api_operations.c:1794
    3878:	52800000 	mov	w0, #0x0                   	// #0
    387c:	940000a6 	bl	3b14 <TEE_Panic>
/home/zliu/ubuntu-optee-rpi3/RPi3_OPTEE_3.1/optee_os/lib/libutee/tee_api_operations.c:1795
    3880:	b9405ba0 	ldr	w0, [x29, #88]
    3884:	36880060 	tbz	w0, #17, 3890 <TEE_DeriveKey+0x100>
/home/zliu/ubuntu-optee-rpi3/RPi3_OPTEE_3.1/optee_os/lib/libutee/tee_api_operations.c:1796
    3888:	52800000 	mov	w0, #0x0                   	// #0
    388c:	940000a2 	bl	3b14 <TEE_Panic>
/home/zliu/ubuntu-optee-rpi3/RPi3_OPTEE_3.1/optee_os/lib/libutee/tee_api_operations.c:1798
    3890:	2a1403e2 	mov	w2, w20
    3894:	aa1603e1 	mov	x1, x22
    3898:	aa1803e0 	mov	x0, x24
    389c:	97fff46e 	bl	a54 <__utee_from_attr>
/home/zliu/ubuntu-optee-rpi3/RPi3_OPTEE_3.1/optee_os/lib/libutee/tee_api_operations.c:1799
    38a0:	b9405a60 	ldr	w0, [x19, #88]
    38a4:	aa1503e3 	mov	x3, x21
    38a8:	aa1703e2 	mov	x2, x23
    38ac:	aa1803e1 	mov	x1, x24
    38b0:	940001ac 	bl	3f60 <utee_cryp_derive_key>
/home/zliu/ubuntu-optee-rpi3/RPi3_OPTEE_3.1/optee_os/lib/libutee/tee_api_operations.c:1801
    38b4:	34000040 	cbz	w0, 38bc <TEE_DeriveKey+0x12c>
/home/zliu/ubuntu-optee-rpi3/RPi3_OPTEE_3.1/optee_os/lib/libutee/tee_api_operations.c:1802
    38b8:	94000097 	bl	3b14 <TEE_Panic>
/home/zliu/ubuntu-optee-rpi3/RPi3_OPTEE_3.1/optee_os/lib/libutee/tee_api_operations.c:1803
    38bc:	910003bf 	mov	sp, x29
    38c0:	a94153f3 	ldp	x19, x20, [sp, #16]
    38c4:	a9425bf5 	ldp	x21, x22, [sp, #32]
    38c8:	a94363f7 	ldp	x23, x24, [sp, #48]
    38cc:	a8c67bfd 	ldp	x29, x30, [sp], #96
    38d0:	d65f03c0 	ret

00000000000038d4 <TEE_GenerateRandom>:
TEE_GenerateRandom():
/home/zliu/ubuntu-optee-rpi3/RPi3_OPTEE_3.1/optee_os/lib/libutee/tee_api_operations.c:1808
    38d4:	a9bf7bfd 	stp	x29, x30, [sp, #-16]!
/home/zliu/ubuntu-optee-rpi3/RPi3_OPTEE_3.1/optee_os/lib/libutee/tee_api_operations.c:1811
    38d8:	2a0103e1 	mov	w1, w1
/home/zliu/ubuntu-optee-rpi3/RPi3_OPTEE_3.1/optee_os/lib/libutee/tee_api_operations.c:1808
    38dc:	910003fd 	mov	x29, sp
/home/zliu/ubuntu-optee-rpi3/RPi3_OPTEE_3.1/optee_os/lib/libutee/tee_api_operations.c:1811
    38e0:	940001a3 	bl	3f6c <utee_cryp_random_number_generate>
/home/zliu/ubuntu-optee-rpi3/RPi3_OPTEE_3.1/optee_os/lib/libutee/tee_api_operations.c:1812
    38e4:	34000060 	cbz	w0, 38f0 <TEE_GenerateRandom+0x1c>
/home/zliu/ubuntu-optee-rpi3/RPi3_OPTEE_3.1/optee_os/lib/libutee/tee_api_operations.c:1814
    38e8:	a8c17bfd 	ldp	x29, x30, [sp], #16
/home/zliu/ubuntu-optee-rpi3/RPi3_OPTEE_3.1/optee_os/lib/libutee/tee_api_operations.c:1813
    38ec:	1400008a 	b	3b14 <TEE_Panic>
/home/zliu/ubuntu-optee-rpi3/RPi3_OPTEE_3.1/optee_os/lib/libutee/tee_api_operations.c:1814
    38f0:	a8c17bfd 	ldp	x29, x30, [sp], #16
    38f4:	d65f03c0 	ret

00000000000038f8 <tee_buffer_update>:
tee_buffer_update():
/home/zliu/ubuntu-optee-rpi3/RPi3_OPTEE_3.1/optee_os/lib/libutee/tee_api_operations.c:868
    38f8:	a9b87bfd 	stp	x29, x30, [sp, #-128]!
    38fc:	910003fd 	mov	x29, sp
    3900:	a90153f3 	stp	x19, x20, [sp, #16]
    3904:	aa0003f3 	mov	x19, x0
    3908:	a9025bf5 	stp	x21, x22, [sp, #32]
    390c:	a9046bf9 	stp	x25, x26, [sp, #64]
    3910:	aa0303f9 	mov	x25, x3
    3914:	a90363f7 	stp	x23, x24, [sp, #48]
    3918:	a90573fb 	stp	x27, x28, [sp, #80]
    391c:	f90037a5 	str	x5, [x29, #104]
/home/zliu/ubuntu-optee-rpi3/RPi3_OPTEE_3.1/optee_os/lib/libutee/tee_api_operations.c:873
    3920:	f94000b6 	ldr	x22, [x5]
/home/zliu/ubuntu-optee-rpi3/RPi3_OPTEE_3.1/optee_os/lib/libutee/tee_api_operations.c:880
    3924:	b5000202 	cbnz	x2, 3964 <tee_buffer_update+0x6c>
/home/zliu/ubuntu-optee-rpi3/RPi3_OPTEE_3.1/optee_os/lib/libutee/tee_api_operations.c:881
    3928:	b5000183 	cbnz	x3, 3958 <tee_buffer_update+0x60>
/home/zliu/ubuntu-optee-rpi3/RPi3_OPTEE_3.1/optee_os/lib/libutee/tee_api_operations.c:874
    392c:	d2800017 	mov	x23, #0x0                   	// #0
/home/zliu/ubuntu-optee-rpi3/RPi3_OPTEE_3.1/optee_os/lib/libutee/tee_api_operations.c:956
    3930:	f94037a0 	ldr	x0, [x29, #104]
/home/zliu/ubuntu-optee-rpi3/RPi3_OPTEE_3.1/optee_os/lib/libutee/tee_api_operations.c:958
    3934:	a94153f3 	ldp	x19, x20, [sp, #16]
    3938:	a9425bf5 	ldp	x21, x22, [sp, #32]
    393c:	a9446bf9 	ldp	x25, x26, [sp, #64]
    3940:	a94573fb 	ldp	x27, x28, [sp, #80]
/home/zliu/ubuntu-optee-rpi3/RPi3_OPTEE_3.1/optee_os/lib/libutee/tee_api_operations.c:956
    3944:	f9000017 	str	x23, [x0]
/home/zliu/ubuntu-optee-rpi3/RPi3_OPTEE_3.1/optee_os/lib/libutee/tee_api_operations.c:958
    3948:	a94363f7 	ldp	x23, x24, [sp, #48]
    394c:	52800000 	mov	w0, #0x0                   	// #0
    3950:	a8c87bfd 	ldp	x29, x30, [sp], #128
    3954:	d65f03c0 	ret
/home/zliu/ubuntu-optee-rpi3/RPi3_OPTEE_3.1/optee_os/lib/libutee/tee_api_operations.c:882
    3958:	52800000 	mov	w0, #0x0                   	// #0
    395c:	9400006e 	bl	3b14 <TEE_Panic>
    3960:	17fffff3 	b	392c <tee_buffer_update+0x34>
/home/zliu/ubuntu-optee-rpi3/RPi3_OPTEE_3.1/optee_os/lib/libutee/tee_api_operations.c:886
    3964:	39410000 	ldrb	w0, [x0, #64]
    3968:	aa0103f8 	mov	x24, x1
    396c:	aa0203f5 	mov	x21, x2
    3970:	aa0403fb 	mov	x27, x4
    3974:	f940267a 	ldr	x26, [x19, #72]
    3978:	34000860 	cbz	w0, 3a84 <tee_buffer_update+0x18c>
/home/zliu/ubuntu-optee-rpi3/RPi3_OPTEE_3.1/optee_os/lib/libutee/tee_api_operations.c:887
    397c:	d37ffb54 	lsl	x20, x26, #1
/home/zliu/ubuntu-optee-rpi3/RPi3_OPTEE_3.1/optee_os/lib/libutee/tee_api_operations.c:888
    3980:	d280003c 	mov	x28, #0x1                   	// #1
/home/zliu/ubuntu-optee-rpi3/RPi3_OPTEE_3.1/optee_os/lib/libutee/tee_api_operations.c:894
    3984:	f9402a60 	ldr	x0, [x19, #80]
    3988:	b4000260 	cbz	x0, 39d4 <tee_buffer_update+0xdc>
/home/zliu/ubuntu-optee-rpi3/RPi3_OPTEE_3.1/optee_os/lib/libutee/tee_api_operations.c:896
    398c:	eb1a001f 	cmp	x0, x26
    3990:	54000802 	b.cs	3a90 <tee_buffer_update+0x198>  // b.hs, b.nlast
/home/zliu/ubuntu-optee-rpi3/RPi3_OPTEE_3.1/optee_os/lib/libutee/tee_api_operations.c:897
    3994:	cb00035a 	sub	x26, x26, x0
/home/zliu/ubuntu-optee-rpi3/RPi3_OPTEE_3.1/optee_os/lib/libutee/tee_api_operations.c:900
    3998:	f9401e63 	ldr	x3, [x19, #56]
/home/zliu/ubuntu-optee-rpi3/RPi3_OPTEE_3.1/optee_os/lib/libutee/tee_api_operations.c:899
    399c:	eb19035f 	cmp	x26, x25
    39a0:	9a99935a 	csel	x26, x26, x25, ls  // ls = plast
/home/zliu/ubuntu-optee-rpi3/RPi3_OPTEE_3.1/optee_os/lib/libutee/tee_api_operations.c:900
    39a4:	aa1503e1 	mov	x1, x21
    39a8:	aa1a03e2 	mov	x2, x26
    39ac:	8b000060 	add	x0, x3, x0
    39b0:	940009d7 	bl	610c <memcpy>
/home/zliu/ubuntu-optee-rpi3/RPi3_OPTEE_3.1/optee_os/lib/libutee/tee_api_operations.c:901
    39b4:	a9448262 	ldp	x2, x0, [x19, #72]
    39b8:	8b000340 	add	x0, x26, x0
    39bc:	f9002a60 	str	x0, [x19, #80]
/home/zliu/ubuntu-optee-rpi3/RPi3_OPTEE_3.1/optee_os/lib/libutee/tee_api_operations.c:904
    39c0:	9ac20801 	udiv	x1, x0, x2
    39c4:	9b028020 	msub	x0, x1, x2, x0
    39c8:	b5fffb20 	cbnz	x0, 392c <tee_buffer_update+0x34>
/home/zliu/ubuntu-optee-rpi3/RPi3_OPTEE_3.1/optee_os/lib/libutee/tee_api_operations.c:902
    39cc:	8b1a02b5 	add	x21, x21, x26
/home/zliu/ubuntu-optee-rpi3/RPi3_OPTEE_3.1/optee_os/lib/libutee/tee_api_operations.c:903
    39d0:	cb1a0339 	sub	x25, x25, x26
/home/zliu/ubuntu-optee-rpi3/RPi3_OPTEE_3.1/optee_os/lib/libutee/tee_api_operations.c:909
    39d4:	f9402a77 	ldr	x23, [x19, #80]
    39d8:	8b1c029c 	add	x28, x20, x28
    39dc:	b4000617 	cbz	x23, 3a9c <tee_buffer_update+0x1a4>
/home/zliu/ubuntu-optee-rpi3/RPi3_OPTEE_3.1/optee_os/lib/libutee/tee_api_operations.c:910 (discriminator 1)
    39e0:	8b170320 	add	x0, x25, x23
/home/zliu/ubuntu-optee-rpi3/RPi3_OPTEE_3.1/optee_os/lib/libutee/tee_api_operations.c:909 (discriminator 1)
    39e4:	eb1c001f 	cmp	x0, x28
    39e8:	54000583 	b.cc	3a98 <tee_buffer_update+0x1a0>  // b.lo, b.ul, b.last
/home/zliu/ubuntu-optee-rpi3/RPi3_OPTEE_3.1/optee_os/lib/libutee/tee_api_operations.c:911
    39ec:	f9402661 	ldr	x1, [x19, #72]
    39f0:	cb14001a 	sub	x26, x0, x20
/home/zliu/ubuntu-optee-rpi3/RPi3_OPTEE_3.1/optee_os/lib/libutee/tee_api_operations.c:914
    39f4:	910203a4 	add	x4, x29, #0x80
/home/zliu/ubuntu-optee-rpi3/RPi3_OPTEE_3.1/optee_os/lib/libutee/tee_api_operations.c:915
    39f8:	aa1b03e3 	mov	x3, x27
/home/zliu/ubuntu-optee-rpi3/RPi3_OPTEE_3.1/optee_os/lib/libutee/tee_api_operations.c:911
    39fc:	d1000420 	sub	x0, x1, #0x1
    3a00:	cb0103e1 	neg	x1, x1
    3a04:	8b00035a 	add	x26, x26, x0
/home/zliu/ubuntu-optee-rpi3/RPi3_OPTEE_3.1/optee_os/lib/libutee/tee_api_operations.c:915
    3a08:	b9405a60 	ldr	w0, [x19, #88]
/home/zliu/ubuntu-optee-rpi3/RPi3_OPTEE_3.1/optee_os/lib/libutee/tee_api_operations.c:911
    3a0c:	8a01035a 	and	x26, x26, x1
/home/zliu/ubuntu-optee-rpi3/RPi3_OPTEE_3.1/optee_os/lib/libutee/tee_api_operations.c:915
    3a10:	f9401e61 	ldr	x1, [x19, #56]
/home/zliu/ubuntu-optee-rpi3/RPi3_OPTEE_3.1/optee_os/lib/libutee/tee_api_operations.c:913
    3a14:	eb17035f 	cmp	x26, x23
/home/zliu/ubuntu-optee-rpi3/RPi3_OPTEE_3.1/optee_os/lib/libutee/tee_api_operations.c:914
    3a18:	f81f8c96 	str	x22, [x4, #-8]!
/home/zliu/ubuntu-optee-rpi3/RPi3_OPTEE_3.1/optee_os/lib/libutee/tee_api_operations.c:913
    3a1c:	9a97935a 	csel	x26, x26, x23, ls  // ls = plast
/home/zliu/ubuntu-optee-rpi3/RPi3_OPTEE_3.1/optee_os/lib/libutee/tee_api_operations.c:915
    3a20:	aa1a03e2 	mov	x2, x26
    3a24:	d63f0300 	blr	x24
/home/zliu/ubuntu-optee-rpi3/RPi3_OPTEE_3.1/optee_os/lib/libutee/tee_api_operations.c:916
    3a28:	34000040 	cbz	w0, 3a30 <tee_buffer_update+0x138>
/home/zliu/ubuntu-optee-rpi3/RPi3_OPTEE_3.1/optee_os/lib/libutee/tee_api_operations.c:917
    3a2c:	9400003a 	bl	3b14 <TEE_Panic>
/home/zliu/ubuntu-optee-rpi3/RPi3_OPTEE_3.1/optee_os/lib/libutee/tee_api_operations.c:921
    3a30:	f9402a60 	ldr	x0, [x19, #80]
/home/zliu/ubuntu-optee-rpi3/RPi3_OPTEE_3.1/optee_os/lib/libutee/tee_api_operations.c:918
    3a34:	f9403fb7 	ldr	x23, [x29, #120]
/home/zliu/ubuntu-optee-rpi3/RPi3_OPTEE_3.1/optee_os/lib/libutee/tee_api_operations.c:921
    3a38:	cb1a0000 	sub	x0, x0, x26
    3a3c:	f9002a60 	str	x0, [x19, #80]
/home/zliu/ubuntu-optee-rpi3/RPi3_OPTEE_3.1/optee_os/lib/libutee/tee_api_operations.c:918
    3a40:	8b17037b 	add	x27, x27, x23
/home/zliu/ubuntu-optee-rpi3/RPi3_OPTEE_3.1/optee_os/lib/libutee/tee_api_operations.c:919
    3a44:	cb1702d6 	sub	x22, x22, x23
/home/zliu/ubuntu-optee-rpi3/RPi3_OPTEE_3.1/optee_os/lib/libutee/tee_api_operations.c:922
    3a48:	b40002a0 	cbz	x0, 3a9c <tee_buffer_update+0x1a4>
/home/zliu/ubuntu-optee-rpi3/RPi3_OPTEE_3.1/optee_os/lib/libutee/tee_api_operations.c:926
    3a4c:	f9401e60 	ldr	x0, [x19, #56]
    3a50:	cb1a0282 	sub	x2, x20, x26
    3a54:	8b1a0001 	add	x1, x0, x26
    3a58:	940009ad 	bl	610c <memcpy>
/home/zliu/ubuntu-optee-rpi3/RPi3_OPTEE_3.1/optee_os/lib/libutee/tee_api_operations.c:952
    3a5c:	f9401e63 	ldr	x3, [x19, #56]
    3a60:	aa1903e2 	mov	x2, x25
    3a64:	f9402a60 	ldr	x0, [x19, #80]
    3a68:	aa1503e1 	mov	x1, x21
    3a6c:	8b000060 	add	x0, x3, x0
    3a70:	940009a7 	bl	610c <memcpy>
/home/zliu/ubuntu-optee-rpi3/RPi3_OPTEE_3.1/optee_os/lib/libutee/tee_api_operations.c:953
    3a74:	f9402a60 	ldr	x0, [x19, #80]
    3a78:	8b190019 	add	x25, x0, x25
    3a7c:	f9002a79 	str	x25, [x19, #80]
    3a80:	17ffffac 	b	3930 <tee_buffer_update+0x38>
/home/zliu/ubuntu-optee-rpi3/RPi3_OPTEE_3.1/optee_os/lib/libutee/tee_api_operations.c:890
    3a84:	aa1a03f4 	mov	x20, x26
/home/zliu/ubuntu-optee-rpi3/RPi3_OPTEE_3.1/optee_os/lib/libutee/tee_api_operations.c:891
    3a88:	d280001c 	mov	x28, #0x0                   	// #0
    3a8c:	17ffffbe 	b	3984 <tee_buffer_update+0x8c>
/home/zliu/ubuntu-optee-rpi3/RPi3_OPTEE_3.1/optee_os/lib/libutee/tee_api_operations.c:899
    3a90:	cb00029a 	sub	x26, x20, x0
    3a94:	17ffffc1 	b	3998 <tee_buffer_update+0xa0>
/home/zliu/ubuntu-optee-rpi3/RPi3_OPTEE_3.1/optee_os/lib/libutee/tee_api_operations.c:874
    3a98:	d2800017 	mov	x23, #0x0                   	// #0
/home/zliu/ubuntu-optee-rpi3/RPi3_OPTEE_3.1/optee_os/lib/libutee/tee_api_operations.c:933
    3a9c:	eb1c033f 	cmp	x25, x28
    3aa0:	54fffde3 	b.cc	3a5c <tee_buffer_update+0x164>  // b.lo, b.ul, b.last
/home/zliu/ubuntu-optee-rpi3/RPi3_OPTEE_3.1/optee_os/lib/libutee/tee_api_operations.c:935
    3aa4:	52806200 	mov	w0, #0x310                 	// #784
    3aa8:	b9400261 	ldr	w1, [x19]
    3aac:	72a20000 	movk	w0, #0x1000, lsl #16
    3ab0:	6b00003f 	cmp	w1, w0
    3ab4:	f9402660 	ldr	x0, [x19, #72]
    3ab8:	54000281 	b.ne	3b08 <tee_buffer_update+0x210>  // b.any
/home/zliu/ubuntu-optee-rpi3/RPi3_OPTEE_3.1/optee_os/lib/libutee/tee_api_operations.c:936
    3abc:	cb140334 	sub	x20, x25, x20
    3ac0:	d1000401 	sub	x1, x0, #0x1
    3ac4:	8b010294 	add	x20, x20, x1
/home/zliu/ubuntu-optee-rpi3/RPi3_OPTEE_3.1/optee_os/lib/libutee/tee_api_operations.c:938
    3ac8:	cb0003e0 	neg	x0, x0
/home/zliu/ubuntu-optee-rpi3/RPi3_OPTEE_3.1/optee_os/lib/libutee/tee_api_operations.c:940
    3acc:	910203a4 	add	x4, x29, #0x80
/home/zliu/ubuntu-optee-rpi3/RPi3_OPTEE_3.1/optee_os/lib/libutee/tee_api_operations.c:938
    3ad0:	8a000294 	and	x20, x20, x0
/home/zliu/ubuntu-optee-rpi3/RPi3_OPTEE_3.1/optee_os/lib/libutee/tee_api_operations.c:941
    3ad4:	b9405a60 	ldr	w0, [x19, #88]
    3ad8:	aa1b03e3 	mov	x3, x27
    3adc:	aa1403e2 	mov	x2, x20
/home/zliu/ubuntu-optee-rpi3/RPi3_OPTEE_3.1/optee_os/lib/libutee/tee_api_operations.c:940
    3ae0:	f81f8c96 	str	x22, [x4, #-8]!
/home/zliu/ubuntu-optee-rpi3/RPi3_OPTEE_3.1/optee_os/lib/libutee/tee_api_operations.c:941
    3ae4:	aa1503e1 	mov	x1, x21
    3ae8:	d63f0300 	blr	x24
/home/zliu/ubuntu-optee-rpi3/RPi3_OPTEE_3.1/optee_os/lib/libutee/tee_api_operations.c:942
    3aec:	34000040 	cbz	w0, 3af4 <tee_buffer_update+0x1fc>
/home/zliu/ubuntu-optee-rpi3/RPi3_OPTEE_3.1/optee_os/lib/libutee/tee_api_operations.c:943
    3af0:	94000009 	bl	3b14 <TEE_Panic>
/home/zliu/ubuntu-optee-rpi3/RPi3_OPTEE_3.1/optee_os/lib/libutee/tee_api_operations.c:948
    3af4:	f9403fa0 	ldr	x0, [x29, #120]
/home/zliu/ubuntu-optee-rpi3/RPi3_OPTEE_3.1/optee_os/lib/libutee/tee_api_operations.c:944
    3af8:	8b1402b5 	add	x21, x21, x20
/home/zliu/ubuntu-optee-rpi3/RPi3_OPTEE_3.1/optee_os/lib/libutee/tee_api_operations.c:945
    3afc:	cb140339 	sub	x25, x25, x20
/home/zliu/ubuntu-optee-rpi3/RPi3_OPTEE_3.1/optee_os/lib/libutee/tee_api_operations.c:948
    3b00:	8b0002f7 	add	x23, x23, x0
    3b04:	17ffffd6 	b	3a5c <tee_buffer_update+0x164>
/home/zliu/ubuntu-optee-rpi3/RPi3_OPTEE_3.1/optee_os/lib/libutee/tee_api_operations.c:938
    3b08:	cb140014 	sub	x20, x0, x20
    3b0c:	8b190294 	add	x20, x20, x25
    3b10:	17ffffee 	b	3ac8 <tee_buffer_update+0x1d0>

0000000000003b14 <TEE_Panic>:
TEE_Panic():
/home/zliu/ubuntu-optee-rpi3/RPi3_OPTEE_3.1/optee_os/lib/libutee/tee_api_panic.c:35
    3b14:	2a0003e0 	mov	w0, w0
    3b18:	140000af 	b	3dd4 <utee_panic>

0000000000003b1c <ta_header_get_session>:
ta_header_get_session():
/home/zliu/ubuntu-optee-rpi3/RPi3_OPTEE_3.1/optee_os/lib/libutee/arch/arm/user_ta_entry.c:101
    3b1c:	2a0003e1 	mov	w1, w0
/home/zliu/ubuntu-optee-rpi3/RPi3_OPTEE_3.1/optee_os/lib/libutee/arch/arm/user_ta_entry.c:104
    3b20:	d0000040 	adrp	x0, d000 <ta_props>
    3b24:	f9407000 	ldr	x0, [x0, #224]
/home/zliu/ubuntu-optee-rpi3/RPi3_OPTEE_3.1/optee_os/lib/libutee/arch/arm/user_ta_entry.c:104 (discriminator 1)
    3b28:	b5000040 	cbnz	x0, 3b30 <ta_header_get_session+0x14>
/home/zliu/ubuntu-optee-rpi3/RPi3_OPTEE_3.1/optee_os/lib/libutee/arch/arm/user_ta_entry.c:109
    3b2c:	d65f03c0 	ret
/home/zliu/ubuntu-optee-rpi3/RPi3_OPTEE_3.1/optee_os/lib/libutee/arch/arm/user_ta_entry.c:105
    3b30:	b9400002 	ldr	w2, [x0]
    3b34:	6b01005f 	cmp	w2, w1
    3b38:	54ffffa0 	b.eq	3b2c <ta_header_get_session+0x10>  // b.none
/home/zliu/ubuntu-optee-rpi3/RPi3_OPTEE_3.1/optee_os/lib/libutee/arch/arm/user_ta_entry.c:104 (discriminator 2)
    3b3c:	f9400800 	ldr	x0, [x0, #16]
    3b40:	17fffffa 	b	3b28 <ta_header_get_session+0xc>

0000000000003b44 <ta_header_remove_session>:
ta_header_remove_session():
/home/zliu/ubuntu-optee-rpi3/RPi3_OPTEE_3.1/optee_os/lib/libutee/arch/arm/user_ta_entry.c:138
    3b44:	a9be7bfd 	stp	x29, x30, [sp, #-32]!
    3b48:	2a0003e2 	mov	w2, w0
    3b4c:	910003fd 	mov	x29, sp
    3b50:	f9000bf3 	str	x19, [sp, #16]
/home/zliu/ubuntu-optee-rpi3/RPi3_OPTEE_3.1/optee_os/lib/libutee/arch/arm/user_ta_entry.c:141
    3b54:	d0000053 	adrp	x19, d000 <ta_props>
    3b58:	f9407260 	ldr	x0, [x19, #224]
/home/zliu/ubuntu-optee-rpi3/RPi3_OPTEE_3.1/optee_os/lib/libutee/arch/arm/user_ta_entry.c:141 (discriminator 1)
    3b5c:	b5000080 	cbnz	x0, 3b6c <ta_header_remove_session+0x28>
/home/zliu/ubuntu-optee-rpi3/RPi3_OPTEE_3.1/optee_os/lib/libutee/arch/arm/user_ta_entry.c:153
    3b60:	f9400bf3 	ldr	x19, [sp, #16]
    3b64:	a8c27bfd 	ldp	x29, x30, [sp], #32
    3b68:	d65f03c0 	ret
/home/zliu/ubuntu-optee-rpi3/RPi3_OPTEE_3.1/optee_os/lib/libutee/arch/arm/user_ta_entry.c:142
    3b6c:	b9400001 	ldr	w1, [x0]
    3b70:	6b02003f 	cmp	w1, w2
    3b74:	f9400801 	ldr	x1, [x0, #16]
    3b78:	54000261 	b.ne	3bc4 <ta_header_remove_session+0x80>  // b.any
    3b7c:	f9400c02 	ldr	x2, [x0, #24]
/home/zliu/ubuntu-optee-rpi3/RPi3_OPTEE_3.1/optee_os/lib/libutee/arch/arm/user_ta_entry.c:143
    3b80:	b40001c1 	cbz	x1, 3bb8 <ta_header_remove_session+0x74>
/home/zliu/ubuntu-optee-rpi3/RPi3_OPTEE_3.1/optee_os/lib/libutee/arch/arm/user_ta_entry.c:143 (discriminator 1)
    3b84:	f9000c22 	str	x2, [x1, #24]
/home/zliu/ubuntu-optee-rpi3/RPi3_OPTEE_3.1/optee_os/lib/libutee/arch/arm/user_ta_entry.c:143 (discriminator 4)
    3b88:	f9400c02 	ldr	x2, [x0, #24]
    3b8c:	f9000041 	str	x1, [x2]
/home/zliu/ubuntu-optee-rpi3/RPi3_OPTEE_3.1/optee_os/lib/libutee/arch/arm/user_ta_entry.c:144 (discriminator 4)
    3b90:	97fff3aa 	bl	a38 <TEE_Free>
/home/zliu/ubuntu-optee-rpi3/RPi3_OPTEE_3.1/optee_os/lib/libutee/arch/arm/user_ta_entry.c:146 (discriminator 4)
    3b94:	f9407260 	ldr	x0, [x19, #224]
    3b98:	b5fffe40 	cbnz	x0, 3b60 <ta_header_remove_session+0x1c>
/home/zliu/ubuntu-optee-rpi3/RPi3_OPTEE_3.1/optee_os/lib/libutee/arch/arm/user_ta_entry.c:147
    3b9c:	b0000040 	adrp	x0, c000 <__func__.3927+0x294>
    3ba0:	f944a000 	ldr	x0, [x0, #2368]
    3ba4:	b9401400 	ldr	w0, [x0, #20]
/home/zliu/ubuntu-optee-rpi3/RPi3_OPTEE_3.1/optee_os/lib/libutee/arch/arm/user_ta_entry.c:146
    3ba8:	3727fdc0 	tbnz	w0, #4, 3b60 <ta_header_remove_session+0x1c>
/home/zliu/ubuntu-optee-rpi3/RPi3_OPTEE_3.1/optee_os/lib/libutee/arch/arm/user_ta_entry.c:153
    3bac:	f9400bf3 	ldr	x19, [sp, #16]
    3bb0:	a8c27bfd 	ldp	x29, x30, [sp], #32
uninit_instance():
/home/zliu/ubuntu-optee-rpi3/RPi3_OPTEE_3.1/optee_os/lib/libutee/arch/arm/user_ta_entry.c:86
    3bb4:	17fff11d 	b	28 <TA_DestroyEntryPoint>
ta_header_remove_session():
/home/zliu/ubuntu-optee-rpi3/RPi3_OPTEE_3.1/optee_os/lib/libutee/arch/arm/user_ta_entry.c:143 (discriminator 2)
    3bb8:	91038263 	add	x3, x19, #0xe0
    3bbc:	f9000462 	str	x2, [x3, #8]
    3bc0:	17fffff2 	b	3b88 <ta_header_remove_session+0x44>
/home/zliu/ubuntu-optee-rpi3/RPi3_OPTEE_3.1/optee_os/lib/libutee/arch/arm/user_ta_entry.c:141 (discriminator 2)
    3bc4:	aa0103e0 	mov	x0, x1
    3bc8:	17ffffe5 	b	3b5c <ta_header_remove_session+0x18>

0000000000003bcc <__utee_entry>:
__utee_entry():
/home/zliu/ubuntu-optee-rpi3/RPi3_OPTEE_3.1/optee_os/lib/libutee/arch/arm/user_ta_entry.c:220
    3bcc:	a9b77bfd 	stp	x29, x30, [sp, #-144]!
/home/zliu/ubuntu-optee-rpi3/RPi3_OPTEE_3.1/optee_os/lib/libutee/arch/arm/user_ta_entry.c:231
    3bd0:	f100041f 	cmp	x0, #0x1
/home/zliu/ubuntu-optee-rpi3/RPi3_OPTEE_3.1/optee_os/lib/libutee/arch/arm/user_ta_entry.c:220
    3bd4:	910003fd 	mov	x29, sp
    3bd8:	a90153f3 	stp	x19, x20, [sp, #16]
    3bdc:	aa0103f4 	mov	x20, x1
    3be0:	a9025bf5 	stp	x21, x22, [sp, #32]
    3be4:	f9001bf7 	str	x23, [sp, #48]
/home/zliu/ubuntu-optee-rpi3/RPi3_OPTEE_3.1/optee_os/lib/libutee/arch/arm/user_ta_entry.c:231
    3be8:	54000a60 	b.eq	3d34 <__utee_entry+0x168>  // b.none
    3bec:	aa0203f6 	mov	x22, x2
    3bf0:	b40000e0 	cbz	x0, 3c0c <__utee_entry+0x40>
    3bf4:	f100081f 	cmp	x0, #0x2
    3bf8:	54000b20 	b.eq	3d5c <__utee_entry+0x190>  // b.none
/home/zliu/ubuntu-optee-rpi3/RPi3_OPTEE_3.1/optee_os/lib/libutee/arch/arm/user_ta_entry.c:243
    3bfc:	52800000 	mov	w0, #0x0                   	// #0
/home/zliu/ubuntu-optee-rpi3/RPi3_OPTEE_3.1/optee_os/lib/libutee/arch/arm/user_ta_entry.c:242
    3c00:	12800013 	mov	w19, #0xffffffff            	// #-1
/home/zliu/ubuntu-optee-rpi3/RPi3_OPTEE_3.1/optee_os/lib/libutee/arch/arm/user_ta_entry.c:243
    3c04:	97ffffc4 	bl	3b14 <TEE_Panic>
/home/zliu/ubuntu-optee-rpi3/RPi3_OPTEE_3.1/optee_os/lib/libutee/arch/arm/user_ta_entry.c:244
    3c08:	1400000c 	b	3c38 <__utee_entry+0x6c>
ta_header_add_session():
/home/zliu/ubuntu-optee-rpi3/RPi3_OPTEE_3.1/optee_os/lib/libutee/arch/arm/user_ta_entry.c:113
    3c0c:	2a0103e0 	mov	w0, w1
    3c10:	97ffffc3 	bl	3b1c <ta_header_get_session>
/home/zliu/ubuntu-optee-rpi3/RPi3_OPTEE_3.1/optee_os/lib/libutee/arch/arm/user_ta_entry.c:116
    3c14:	b5000520 	cbnz	x0, 3cb8 <__utee_entry+0xec>
/home/zliu/ubuntu-optee-rpi3/RPi3_OPTEE_3.1/optee_os/lib/libutee/arch/arm/user_ta_entry.c:119
    3c18:	900000a0 	adrp	x0, 17000 <ta_heap+0x72be>
    3c1c:	39750801 	ldrb	w1, [x0, #3394]
    3c20:	340001e1 	cbz	w1, 3c5c <__utee_entry+0x90>
/home/zliu/ubuntu-optee-rpi3/RPi3_OPTEE_3.1/optee_os/lib/libutee/arch/arm/user_ta_entry.c:126
    3c24:	52b00001 	mov	w1, #0x80000000            	// #-2147483648
    3c28:	52800400 	mov	w0, #0x20                  	// #32
/home/zliu/ubuntu-optee-rpi3/RPi3_OPTEE_3.1/optee_os/lib/libutee/arch/arm/user_ta_entry.c:129
    3c2c:	129ffe73 	mov	w19, #0xffff000c            	// #-65524
/home/zliu/ubuntu-optee-rpi3/RPi3_OPTEE_3.1/optee_os/lib/libutee/arch/arm/user_ta_entry.c:126
    3c30:	97fff37e 	bl	a28 <TEE_Malloc>
/home/zliu/ubuntu-optee-rpi3/RPi3_OPTEE_3.1/optee_os/lib/libutee/arch/arm/user_ta_entry.c:128
    3c34:	b5000300 	cbnz	x0, 3c94 <__utee_entry+0xc8>
ta_header_save_params():
/home/zliu/ubuntu-optee-rpi3/RPi3_OPTEE_3.1/optee_os/lib/libutee/arch/arm/user_ta_entry.c:92
    3c38:	b0000040 	adrp	x0, c000 <__func__.3927+0x294>
/home/zliu/ubuntu-optee-rpi3/RPi3_OPTEE_3.1/optee_os/lib/libutee/arch/arm/user_ta_entry.c:97
    3c3c:	d2800802 	mov	x2, #0x40                  	// #64
/home/zliu/ubuntu-optee-rpi3/RPi3_OPTEE_3.1/optee_os/lib/libutee/arch/arm/user_ta_entry.c:92
    3c40:	f9449001 	ldr	x1, [x0, #2336]
/home/zliu/ubuntu-optee-rpi3/RPi3_OPTEE_3.1/optee_os/lib/libutee/arch/arm/user_ta_entry.c:97
    3c44:	f9449c00 	ldr	x0, [x0, #2360]
/home/zliu/ubuntu-optee-rpi3/RPi3_OPTEE_3.1/optee_os/lib/libutee/arch/arm/user_ta_entry.c:92
    3c48:	b900003f 	str	wzr, [x1]
/home/zliu/ubuntu-optee-rpi3/RPi3_OPTEE_3.1/optee_os/lib/libutee/arch/arm/user_ta_entry.c:97
    3c4c:	52800001 	mov	w1, #0x0                   	// #0
    3c50:	9400094a 	bl	6178 <memset>
__utee_entry():
/home/zliu/ubuntu-optee-rpi3/RPi3_OPTEE_3.1/optee_os/lib/libutee/arch/arm/user_ta_entry.c:247
    3c54:	2a1303e0 	mov	w0, w19
    3c58:	94000062 	bl	3de0 <utee_return>
ta_header_add_session():
/home/zliu/ubuntu-optee-rpi3/RPi3_OPTEE_3.1/optee_os/lib/libutee/arch/arm/user_ta_entry.c:120
    3c5c:	52800021 	mov	w1, #0x1                   	// #1
    3c60:	39350801 	strb	w1, [x0, #3394]
init_instance():
/home/zliu/ubuntu-optee-rpi3/RPi3_OPTEE_3.1/optee_os/lib/libutee/arch/arm/user_ta_entry.c:76
    3c64:	97fff256 	bl	5bc <tahead_get_trace_level>
    3c68:	94000c7e 	bl	6e60 <trace_set_level>
/home/zliu/ubuntu-optee-rpi3/RPi3_OPTEE_3.1/optee_os/lib/libutee/arch/arm/user_ta_entry.c:78
    3c6c:	b0000040 	adrp	x0, c000 <__func__.3927+0x294>
    3c70:	f9447401 	ldr	x1, [x0, #2280]
    3c74:	f9448c00 	ldr	x0, [x0, #2328]
    3c78:	f9400021 	ldr	x1, [x1]
    3c7c:	94000823 	bl	5d08 <malloc_add_pool>
/home/zliu/ubuntu-optee-rpi3/RPi3_OPTEE_3.1/optee_os/lib/libutee/arch/arm/user_ta_entry.c:79
    3c80:	940002b6 	bl	4758 <_TEE_MathAPI_Init>
/home/zliu/ubuntu-optee-rpi3/RPi3_OPTEE_3.1/optee_os/lib/libutee/arch/arm/user_ta_entry.c:80
    3c84:	97fff0e7 	bl	20 <TA_CreateEntryPoint>
    3c88:	2a0003f3 	mov	w19, w0
ta_header_add_session():
/home/zliu/ubuntu-optee-rpi3/RPi3_OPTEE_3.1/optee_os/lib/libutee/arch/arm/user_ta_entry.c:122
    3c8c:	34fffcc0 	cbz	w0, 3c24 <__utee_entry+0x58>
    3c90:	17ffffea 	b	3c38 <__utee_entry+0x6c>
/home/zliu/ubuntu-optee-rpi3/RPi3_OPTEE_3.1/optee_os/lib/libutee/arch/arm/user_ta_entry.c:132
    3c94:	d0000041 	adrp	x1, d000 <ta_props>
    3c98:	91038021 	add	x1, x1, #0xe0
    3c9c:	f9400422 	ldr	x2, [x1, #8]
    3ca0:	f9000c02 	str	x2, [x0, #24]
/home/zliu/ubuntu-optee-rpi3/RPi3_OPTEE_3.1/optee_os/lib/libutee/arch/arm/user_ta_entry.c:130
    3ca4:	b9000014 	str	w20, [x0]
/home/zliu/ubuntu-optee-rpi3/RPi3_OPTEE_3.1/optee_os/lib/libutee/arch/arm/user_ta_entry.c:132
    3ca8:	a900fc1f 	stp	xzr, xzr, [x0, #8]
    3cac:	f9000040 	str	x0, [x2]
    3cb0:	91004000 	add	x0, x0, #0x10
    3cb4:	f9000420 	str	x0, [x1, #8]
entry_open_session():
/home/zliu/ubuntu-optee-rpi3/RPi3_OPTEE_3.1/optee_os/lib/libutee/arch/arm/user_ta_entry.c:167
    3cb8:	2a1403e0 	mov	w0, w20
/home/zliu/ubuntu-optee-rpi3/RPi3_OPTEE_3.1/optee_os/lib/libutee/arch/arm/user_ta_entry.c:169
    3cbc:	129fff13 	mov	w19, #0xffff0007            	// #-65529
/home/zliu/ubuntu-optee-rpi3/RPi3_OPTEE_3.1/optee_os/lib/libutee/arch/arm/user_ta_entry.c:167
    3cc0:	97ffff97 	bl	3b1c <ta_header_get_session>
    3cc4:	aa0003f7 	mov	x23, x0
/home/zliu/ubuntu-optee-rpi3/RPi3_OPTEE_3.1/optee_os/lib/libutee/arch/arm/user_ta_entry.c:168
    3cc8:	b4fffb80 	cbz	x0, 3c38 <__utee_entry+0x6c>
/home/zliu/ubuntu-optee-rpi3/RPi3_OPTEE_3.1/optee_os/lib/libutee/arch/arm/user_ta_entry.c:171
    3ccc:	910143b5 	add	x21, x29, #0x50
    3cd0:	aa1603e2 	mov	x2, x22
    3cd4:	910133a1 	add	x1, x29, #0x4c
    3cd8:	aa1503e0 	mov	x0, x21
    3cdc:	97fff258 	bl	63c <__utee_to_param>
/home/zliu/ubuntu-optee-rpi3/RPi3_OPTEE_3.1/optee_os/lib/libutee/arch/arm/user_ta_entry.c:172
    3ce0:	b9404fb3 	ldr	w19, [x29, #76]
ta_header_save_params():
/home/zliu/ubuntu-optee-rpi3/RPi3_OPTEE_3.1/optee_os/lib/libutee/arch/arm/user_ta_entry.c:92
    3ce4:	b0000040 	adrp	x0, c000 <__func__.3927+0x294>
/home/zliu/ubuntu-optee-rpi3/RPi3_OPTEE_3.1/optee_os/lib/libutee/arch/arm/user_ta_entry.c:95
    3ce8:	d2800802 	mov	x2, #0x40                  	// #64
/home/zliu/ubuntu-optee-rpi3/RPi3_OPTEE_3.1/optee_os/lib/libutee/arch/arm/user_ta_entry.c:92
    3cec:	f9449001 	ldr	x1, [x0, #2336]
/home/zliu/ubuntu-optee-rpi3/RPi3_OPTEE_3.1/optee_os/lib/libutee/arch/arm/user_ta_entry.c:95
    3cf0:	f9449c00 	ldr	x0, [x0, #2360]
/home/zliu/ubuntu-optee-rpi3/RPi3_OPTEE_3.1/optee_os/lib/libutee/arch/arm/user_ta_entry.c:92
    3cf4:	b9000033 	str	w19, [x1]
/home/zliu/ubuntu-optee-rpi3/RPi3_OPTEE_3.1/optee_os/lib/libutee/arch/arm/user_ta_entry.c:95
    3cf8:	aa1503e1 	mov	x1, x21
    3cfc:	94000904 	bl	610c <memcpy>
entry_open_session():
/home/zliu/ubuntu-optee-rpi3/RPi3_OPTEE_3.1/optee_os/lib/libutee/arch/arm/user_ta_entry.c:174
    3d00:	910022e2 	add	x2, x23, #0x8
    3d04:	aa1503e1 	mov	x1, x21
    3d08:	2a1303e0 	mov	w0, w19
    3d0c:	97fff0c8 	bl	2c <TA_OpenSessionEntryPoint>
/home/zliu/ubuntu-optee-rpi3/RPi3_OPTEE_3.1/optee_os/lib/libutee/arch/arm/user_ta_entry.c:177
    3d10:	b9404fa1 	ldr	w1, [x29, #76]
/home/zliu/ubuntu-optee-rpi3/RPi3_OPTEE_3.1/optee_os/lib/libutee/arch/arm/user_ta_entry.c:174
    3d14:	2a0003f3 	mov	w19, w0
/home/zliu/ubuntu-optee-rpi3/RPi3_OPTEE_3.1/optee_os/lib/libutee/arch/arm/user_ta_entry.c:177
    3d18:	aa1503e2 	mov	x2, x21
    3d1c:	aa1603e0 	mov	x0, x22
    3d20:	97fff229 	bl	5c4 <__utee_from_param>
/home/zliu/ubuntu-optee-rpi3/RPi3_OPTEE_3.1/optee_os/lib/libutee/arch/arm/user_ta_entry.c:179
    3d24:	34fff8b3 	cbz	w19, 3c38 <__utee_entry+0x6c>
/home/zliu/ubuntu-optee-rpi3/RPi3_OPTEE_3.1/optee_os/lib/libutee/arch/arm/user_ta_entry.c:180
    3d28:	2a1403e0 	mov	w0, w20
    3d2c:	97ffff86 	bl	3b44 <ta_header_remove_session>
    3d30:	17ffffc2 	b	3c38 <__utee_entry+0x6c>
entry_close_session():
/home/zliu/ubuntu-optee-rpi3/RPi3_OPTEE_3.1/optee_os/lib/libutee/arch/arm/user_ta_entry.c:186
    3d34:	2a0103e0 	mov	w0, w1
/home/zliu/ubuntu-optee-rpi3/RPi3_OPTEE_3.1/optee_os/lib/libutee/arch/arm/user_ta_entry.c:189
    3d38:	129fff13 	mov	w19, #0xffff0007            	// #-65529
/home/zliu/ubuntu-optee-rpi3/RPi3_OPTEE_3.1/optee_os/lib/libutee/arch/arm/user_ta_entry.c:186
    3d3c:	97ffff78 	bl	3b1c <ta_header_get_session>
/home/zliu/ubuntu-optee-rpi3/RPi3_OPTEE_3.1/optee_os/lib/libutee/arch/arm/user_ta_entry.c:188
    3d40:	b4fff7c0 	cbz	x0, 3c38 <__utee_entry+0x6c>
/home/zliu/ubuntu-optee-rpi3/RPi3_OPTEE_3.1/optee_os/lib/libutee/arch/arm/user_ta_entry.c:191
    3d44:	f9400400 	ldr	x0, [x0, #8]
/home/zliu/ubuntu-optee-rpi3/RPi3_OPTEE_3.1/optee_os/lib/libutee/arch/arm/user_ta_entry.c:194
    3d48:	52800013 	mov	w19, #0x0                   	// #0
/home/zliu/ubuntu-optee-rpi3/RPi3_OPTEE_3.1/optee_os/lib/libutee/arch/arm/user_ta_entry.c:191
    3d4c:	97fff0d1 	bl	90 <TA_CloseSessionEntryPoint>
/home/zliu/ubuntu-optee-rpi3/RPi3_OPTEE_3.1/optee_os/lib/libutee/arch/arm/user_ta_entry.c:193
    3d50:	2a1403e0 	mov	w0, w20
    3d54:	97ffff7c 	bl	3b44 <ta_header_remove_session>
    3d58:	17ffffb8 	b	3c38 <__utee_entry+0x6c>
entry_invoke_command():
/home/zliu/ubuntu-optee-rpi3/RPi3_OPTEE_3.1/optee_os/lib/libutee/arch/arm/user_ta_entry.c:203
    3d5c:	2a0103e0 	mov	w0, w1
/home/zliu/ubuntu-optee-rpi3/RPi3_OPTEE_3.1/optee_os/lib/libutee/arch/arm/user_ta_entry.c:206
    3d60:	129fff13 	mov	w19, #0xffff0007            	// #-65529
/home/zliu/ubuntu-optee-rpi3/RPi3_OPTEE_3.1/optee_os/lib/libutee/arch/arm/user_ta_entry.c:203
    3d64:	97ffff6e 	bl	3b1c <ta_header_get_session>
    3d68:	aa0003f5 	mov	x21, x0
/home/zliu/ubuntu-optee-rpi3/RPi3_OPTEE_3.1/optee_os/lib/libutee/arch/arm/user_ta_entry.c:205
    3d6c:	b4fff660 	cbz	x0, 3c38 <__utee_entry+0x6c>
/home/zliu/ubuntu-optee-rpi3/RPi3_OPTEE_3.1/optee_os/lib/libutee/arch/arm/user_ta_entry.c:208
    3d70:	910143b4 	add	x20, x29, #0x50
    3d74:	aa0303f7 	mov	x23, x3
    3d78:	aa1603e2 	mov	x2, x22
    3d7c:	910133a1 	add	x1, x29, #0x4c
    3d80:	aa1403e0 	mov	x0, x20
    3d84:	97fff22e 	bl	63c <__utee_to_param>
ta_header_save_params():
/home/zliu/ubuntu-optee-rpi3/RPi3_OPTEE_3.1/optee_os/lib/libutee/arch/arm/user_ta_entry.c:92
    3d88:	b0000040 	adrp	x0, c000 <__func__.3927+0x294>
entry_invoke_command():
/home/zliu/ubuntu-optee-rpi3/RPi3_OPTEE_3.1/optee_os/lib/libutee/arch/arm/user_ta_entry.c:209
    3d8c:	b9404fb3 	ldr	w19, [x29, #76]
ta_header_save_params():
/home/zliu/ubuntu-optee-rpi3/RPi3_OPTEE_3.1/optee_os/lib/libutee/arch/arm/user_ta_entry.c:95
    3d90:	d2800802 	mov	x2, #0x40                  	// #64
/home/zliu/ubuntu-optee-rpi3/RPi3_OPTEE_3.1/optee_os/lib/libutee/arch/arm/user_ta_entry.c:92
    3d94:	f9449001 	ldr	x1, [x0, #2336]
/home/zliu/ubuntu-optee-rpi3/RPi3_OPTEE_3.1/optee_os/lib/libutee/arch/arm/user_ta_entry.c:95
    3d98:	f9449c00 	ldr	x0, [x0, #2360]
/home/zliu/ubuntu-optee-rpi3/RPi3_OPTEE_3.1/optee_os/lib/libutee/arch/arm/user_ta_entry.c:92
    3d9c:	b9000033 	str	w19, [x1]
/home/zliu/ubuntu-optee-rpi3/RPi3_OPTEE_3.1/optee_os/lib/libutee/arch/arm/user_ta_entry.c:95
    3da0:	aa1403e1 	mov	x1, x20
    3da4:	940008da 	bl	610c <memcpy>
entry_invoke_command():
/home/zliu/ubuntu-optee-rpi3/RPi3_OPTEE_3.1/optee_os/lib/libutee/arch/arm/user_ta_entry.c:211
    3da8:	f94006a0 	ldr	x0, [x21, #8]
    3dac:	2a1303e2 	mov	w2, w19
    3db0:	2a1703e1 	mov	w1, w23
    3db4:	aa1403e3 	mov	x3, x20
    3db8:	97fff0ce 	bl	f0 <TA_InvokeCommandEntryPoint>
    3dbc:	2a0003f3 	mov	w19, w0
/home/zliu/ubuntu-optee-rpi3/RPi3_OPTEE_3.1/optee_os/lib/libutee/arch/arm/user_ta_entry.c:214
    3dc0:	b9404fa1 	ldr	w1, [x29, #76]
    3dc4:	aa1403e2 	mov	x2, x20
    3dc8:	aa1603e0 	mov	x0, x22
    3dcc:	97fff1fe 	bl	5c4 <__utee_from_param>
    3dd0:	17ffff9a 	b	3c38 <__utee_entry+0x6c>

0000000000003dd4 <utee_panic>:
utee_panic():
/home/zliu/ubuntu-optee-rpi3/RPi3_OPTEE_3.1/optee_os/lib/libutee/arch/arm/utee_syscalls_a64.S:24
    3dd4:	a9bf7bfd 	stp	x29, x30, [sp, #-16]!
/home/zliu/ubuntu-optee-rpi3/RPi3_OPTEE_3.1/optee_os/lib/libutee/arch/arm/utee_syscalls_a64.S:25
    3dd8:	910003e1 	mov	x1, sp
/home/zliu/ubuntu-optee-rpi3/RPi3_OPTEE_3.1/optee_os/lib/libutee/arch/arm/utee_syscalls_a64.S:26
    3ddc:	94000007 	bl	3df8 <__utee_panic>

0000000000003de0 <utee_return>:
utee_return():
/home/zliu/ubuntu-optee-rpi3/RPi3_OPTEE_3.1/optee_os/lib/libutee/arch/arm/utee_syscalls_asm.S:31
    3de0:	d2800008 	mov	x8, #0x0                   	// #0
    3de4:	d4000001 	svc	#0x0
    3de8:	d65f03c0 	ret

0000000000003dec <utee_log>:
utee_log():
/home/zliu/ubuntu-optee-rpi3/RPi3_OPTEE_3.1/optee_os/lib/libutee/arch/arm/utee_syscalls_asm.S:33
    3dec:	d2800028 	mov	x8, #0x1                   	// #1
    3df0:	d4000001 	svc	#0x0
    3df4:	d65f03c0 	ret

0000000000003df8 <__utee_panic>:
__utee_panic():
/home/zliu/ubuntu-optee-rpi3/RPi3_OPTEE_3.1/optee_os/lib/libutee/arch/arm/utee_syscalls_asm.S:35
    3df8:	d2800048 	mov	x8, #0x2                   	// #2
    3dfc:	d4000001 	svc	#0x0
    3e00:	d65f03c0 	ret

0000000000003e04 <utee_get_property>:
utee_get_property():
/home/zliu/ubuntu-optee-rpi3/RPi3_OPTEE_3.1/optee_os/lib/libutee/arch/arm/utee_syscalls_asm.S:37
    3e04:	d2800068 	mov	x8, #0x3                   	// #3
    3e08:	d4000001 	svc	#0x0
    3e0c:	d65f03c0 	ret

0000000000003e10 <utee_get_property_name_to_index>:
utee_get_property_name_to_index():
/home/zliu/ubuntu-optee-rpi3/RPi3_OPTEE_3.1/optee_os/lib/libutee/arch/arm/utee_syscalls_asm.S:39
    3e10:	d2800088 	mov	x8, #0x4                   	// #4
    3e14:	d4000001 	svc	#0x0
    3e18:	d65f03c0 	ret

0000000000003e1c <utee_open_ta_session>:
utee_open_ta_session():
/home/zliu/ubuntu-optee-rpi3/RPi3_OPTEE_3.1/optee_os/lib/libutee/arch/arm/utee_syscalls_asm.S:42
    3e1c:	d28000a8 	mov	x8, #0x5                   	// #5
    3e20:	d4000001 	svc	#0x0
    3e24:	d65f03c0 	ret

0000000000003e28 <utee_close_ta_session>:
utee_close_ta_session():
/home/zliu/ubuntu-optee-rpi3/RPi3_OPTEE_3.1/optee_os/lib/libutee/arch/arm/utee_syscalls_asm.S:44
    3e28:	d28000c8 	mov	x8, #0x6                   	// #6
    3e2c:	d4000001 	svc	#0x0
    3e30:	d65f03c0 	ret

0000000000003e34 <utee_invoke_ta_command>:
utee_invoke_ta_command():
/home/zliu/ubuntu-optee-rpi3/RPi3_OPTEE_3.1/optee_os/lib/libutee/arch/arm/utee_syscalls_asm.S:46
    3e34:	d28000e8 	mov	x8, #0x7                   	// #7
    3e38:	d4000001 	svc	#0x0
    3e3c:	d65f03c0 	ret

0000000000003e40 <utee_get_cancellation_flag>:
utee_get_cancellation_flag():
/home/zliu/ubuntu-optee-rpi3/RPi3_OPTEE_3.1/optee_os/lib/libutee/arch/arm/utee_syscalls_asm.S:48
    3e40:	d2800128 	mov	x8, #0x9                   	// #9
    3e44:	d4000001 	svc	#0x0
    3e48:	d65f03c0 	ret

0000000000003e4c <utee_check_access_rights>:
utee_check_access_rights():
/home/zliu/ubuntu-optee-rpi3/RPi3_OPTEE_3.1/optee_os/lib/libutee/arch/arm/utee_syscalls_asm.S:51
    3e4c:	d2800108 	mov	x8, #0x8                   	// #8
    3e50:	d4000001 	svc	#0x0
    3e54:	d65f03c0 	ret

0000000000003e58 <utee_unmask_cancellation>:
utee_unmask_cancellation():
/home/zliu/ubuntu-optee-rpi3/RPi3_OPTEE_3.1/optee_os/lib/libutee/arch/arm/utee_syscalls_asm.S:53
    3e58:	d2800148 	mov	x8, #0xa                   	// #10
    3e5c:	d4000001 	svc	#0x0
    3e60:	d65f03c0 	ret

0000000000003e64 <utee_mask_cancellation>:
utee_mask_cancellation():
/home/zliu/ubuntu-optee-rpi3/RPi3_OPTEE_3.1/optee_os/lib/libutee/arch/arm/utee_syscalls_asm.S:55
    3e64:	d2800168 	mov	x8, #0xb                   	// #11
    3e68:	d4000001 	svc	#0x0
    3e6c:	d65f03c0 	ret

0000000000003e70 <utee_wait>:
utee_wait():
/home/zliu/ubuntu-optee-rpi3/RPi3_OPTEE_3.1/optee_os/lib/libutee/arch/arm/utee_syscalls_asm.S:57
    3e70:	d2800188 	mov	x8, #0xc                   	// #12
    3e74:	d4000001 	svc	#0x0
    3e78:	d65f03c0 	ret

0000000000003e7c <utee_get_time>:
utee_get_time():
/home/zliu/ubuntu-optee-rpi3/RPi3_OPTEE_3.1/optee_os/lib/libutee/arch/arm/utee_syscalls_asm.S:59
    3e7c:	d28001a8 	mov	x8, #0xd                   	// #13
    3e80:	d4000001 	svc	#0x0
    3e84:	d65f03c0 	ret

0000000000003e88 <utee_set_ta_time>:
utee_set_ta_time():
/home/zliu/ubuntu-optee-rpi3/RPi3_OPTEE_3.1/optee_os/lib/libutee/arch/arm/utee_syscalls_asm.S:61
    3e88:	d28001c8 	mov	x8, #0xe                   	// #14
    3e8c:	d4000001 	svc	#0x0
    3e90:	d65f03c0 	ret

0000000000003e94 <utee_cryp_state_alloc>:
utee_cryp_state_alloc():
/home/zliu/ubuntu-optee-rpi3/RPi3_OPTEE_3.1/optee_os/lib/libutee/arch/arm/utee_syscalls_asm.S:63
    3e94:	d28001e8 	mov	x8, #0xf                   	// #15
    3e98:	d4000001 	svc	#0x0
    3e9c:	d65f03c0 	ret

0000000000003ea0 <utee_cryp_state_copy>:
utee_cryp_state_copy():
/home/zliu/ubuntu-optee-rpi3/RPi3_OPTEE_3.1/optee_os/lib/libutee/arch/arm/utee_syscalls_asm.S:65
    3ea0:	d2800208 	mov	x8, #0x10                  	// #16
    3ea4:	d4000001 	svc	#0x0
    3ea8:	d65f03c0 	ret

0000000000003eac <utee_cryp_state_free>:
utee_cryp_state_free():
/home/zliu/ubuntu-optee-rpi3/RPi3_OPTEE_3.1/optee_os/lib/libutee/arch/arm/utee_syscalls_asm.S:67
    3eac:	d2800228 	mov	x8, #0x11                  	// #17
    3eb0:	d4000001 	svc	#0x0
    3eb4:	d65f03c0 	ret

0000000000003eb8 <utee_hash_init>:
utee_hash_init():
/home/zliu/ubuntu-optee-rpi3/RPi3_OPTEE_3.1/optee_os/lib/libutee/arch/arm/utee_syscalls_asm.S:69
    3eb8:	d2800248 	mov	x8, #0x12                  	// #18
    3ebc:	d4000001 	svc	#0x0
    3ec0:	d65f03c0 	ret

0000000000003ec4 <utee_hash_update>:
utee_hash_update():
/home/zliu/ubuntu-optee-rpi3/RPi3_OPTEE_3.1/optee_os/lib/libutee/arch/arm/utee_syscalls_asm.S:71
    3ec4:	d2800268 	mov	x8, #0x13                  	// #19
    3ec8:	d4000001 	svc	#0x0
    3ecc:	d65f03c0 	ret

0000000000003ed0 <utee_hash_final>:
utee_hash_final():
/home/zliu/ubuntu-optee-rpi3/RPi3_OPTEE_3.1/optee_os/lib/libutee/arch/arm/utee_syscalls_asm.S:73
    3ed0:	d2800288 	mov	x8, #0x14                  	// #20
    3ed4:	d4000001 	svc	#0x0
    3ed8:	d65f03c0 	ret

0000000000003edc <utee_cipher_init>:
utee_cipher_init():
/home/zliu/ubuntu-optee-rpi3/RPi3_OPTEE_3.1/optee_os/lib/libutee/arch/arm/utee_syscalls_asm.S:75
    3edc:	d28002a8 	mov	x8, #0x15                  	// #21
    3ee0:	d4000001 	svc	#0x0
    3ee4:	d65f03c0 	ret

0000000000003ee8 <utee_cipher_update>:
utee_cipher_update():
/home/zliu/ubuntu-optee-rpi3/RPi3_OPTEE_3.1/optee_os/lib/libutee/arch/arm/utee_syscalls_asm.S:77
    3ee8:	d28002c8 	mov	x8, #0x16                  	// #22
    3eec:	d4000001 	svc	#0x0
    3ef0:	d65f03c0 	ret

0000000000003ef4 <utee_cipher_final>:
utee_cipher_final():
/home/zliu/ubuntu-optee-rpi3/RPi3_OPTEE_3.1/optee_os/lib/libutee/arch/arm/utee_syscalls_asm.S:79
    3ef4:	d28002e8 	mov	x8, #0x17                  	// #23
    3ef8:	d4000001 	svc	#0x0
    3efc:	d65f03c0 	ret

0000000000003f00 <utee_cryp_obj_get_info>:
utee_cryp_obj_get_info():
/home/zliu/ubuntu-optee-rpi3/RPi3_OPTEE_3.1/optee_os/lib/libutee/arch/arm/utee_syscalls_asm.S:81
    3f00:	d2800308 	mov	x8, #0x18                  	// #24
    3f04:	d4000001 	svc	#0x0
    3f08:	d65f03c0 	ret

0000000000003f0c <utee_cryp_obj_restrict_usage>:
utee_cryp_obj_restrict_usage():
/home/zliu/ubuntu-optee-rpi3/RPi3_OPTEE_3.1/optee_os/lib/libutee/arch/arm/utee_syscalls_asm.S:83
    3f0c:	d2800328 	mov	x8, #0x19                  	// #25
    3f10:	d4000001 	svc	#0x0
    3f14:	d65f03c0 	ret

0000000000003f18 <utee_cryp_obj_get_attr>:
utee_cryp_obj_get_attr():
/home/zliu/ubuntu-optee-rpi3/RPi3_OPTEE_3.1/optee_os/lib/libutee/arch/arm/utee_syscalls_asm.S:86
    3f18:	d2800348 	mov	x8, #0x1a                  	// #26
    3f1c:	d4000001 	svc	#0x0
    3f20:	d65f03c0 	ret

0000000000003f24 <utee_cryp_obj_alloc>:
utee_cryp_obj_alloc():
/home/zliu/ubuntu-optee-rpi3/RPi3_OPTEE_3.1/optee_os/lib/libutee/arch/arm/utee_syscalls_asm.S:88
    3f24:	d2800368 	mov	x8, #0x1b                  	// #27
    3f28:	d4000001 	svc	#0x0
    3f2c:	d65f03c0 	ret

0000000000003f30 <utee_cryp_obj_close>:
utee_cryp_obj_close():
/home/zliu/ubuntu-optee-rpi3/RPi3_OPTEE_3.1/optee_os/lib/libutee/arch/arm/utee_syscalls_asm.S:90
    3f30:	d2800388 	mov	x8, #0x1c                  	// #28
    3f34:	d4000001 	svc	#0x0
    3f38:	d65f03c0 	ret

0000000000003f3c <utee_cryp_obj_reset>:
utee_cryp_obj_reset():
/home/zliu/ubuntu-optee-rpi3/RPi3_OPTEE_3.1/optee_os/lib/libutee/arch/arm/utee_syscalls_asm.S:92
    3f3c:	d28003a8 	mov	x8, #0x1d                  	// #29
    3f40:	d4000001 	svc	#0x0
    3f44:	d65f03c0 	ret

0000000000003f48 <utee_cryp_obj_populate>:
utee_cryp_obj_populate():
/home/zliu/ubuntu-optee-rpi3/RPi3_OPTEE_3.1/optee_os/lib/libutee/arch/arm/utee_syscalls_asm.S:94
    3f48:	d28003c8 	mov	x8, #0x1e                  	// #30
    3f4c:	d4000001 	svc	#0x0
    3f50:	d65f03c0 	ret

0000000000003f54 <utee_cryp_obj_copy>:
utee_cryp_obj_copy():
/home/zliu/ubuntu-optee-rpi3/RPi3_OPTEE_3.1/optee_os/lib/libutee/arch/arm/utee_syscalls_asm.S:96
    3f54:	d28003e8 	mov	x8, #0x1f                  	// #31
    3f58:	d4000001 	svc	#0x0
    3f5c:	d65f03c0 	ret

0000000000003f60 <utee_cryp_derive_key>:
utee_cryp_derive_key():
/home/zliu/ubuntu-optee-rpi3/RPi3_OPTEE_3.1/optee_os/lib/libutee/arch/arm/utee_syscalls_asm.S:98
    3f60:	d2800408 	mov	x8, #0x20                  	// #32
    3f64:	d4000001 	svc	#0x0
    3f68:	d65f03c0 	ret

0000000000003f6c <utee_cryp_random_number_generate>:
utee_cryp_random_number_generate():
/home/zliu/ubuntu-optee-rpi3/RPi3_OPTEE_3.1/optee_os/lib/libutee/arch/arm/utee_syscalls_asm.S:100
    3f6c:	d2800428 	mov	x8, #0x21                  	// #33
    3f70:	d4000001 	svc	#0x0
    3f74:	d65f03c0 	ret

0000000000003f78 <utee_authenc_init>:
utee_authenc_init():
/home/zliu/ubuntu-optee-rpi3/RPi3_OPTEE_3.1/optee_os/lib/libutee/arch/arm/utee_syscalls_asm.S:103
    3f78:	d2800448 	mov	x8, #0x22                  	// #34
    3f7c:	d4000001 	svc	#0x0
    3f80:	d65f03c0 	ret

0000000000003f84 <utee_authenc_update_aad>:
utee_authenc_update_aad():
/home/zliu/ubuntu-optee-rpi3/RPi3_OPTEE_3.1/optee_os/lib/libutee/arch/arm/utee_syscalls_asm.S:105
    3f84:	d2800468 	mov	x8, #0x23                  	// #35
    3f88:	d4000001 	svc	#0x0
    3f8c:	d65f03c0 	ret

0000000000003f90 <utee_authenc_update_payload>:
utee_authenc_update_payload():
/home/zliu/ubuntu-optee-rpi3/RPi3_OPTEE_3.1/optee_os/lib/libutee/arch/arm/utee_syscalls_asm.S:107
    3f90:	d2800488 	mov	x8, #0x24                  	// #36
    3f94:	d4000001 	svc	#0x0
    3f98:	d65f03c0 	ret

0000000000003f9c <utee_authenc_enc_final>:
utee_authenc_enc_final():
/home/zliu/ubuntu-optee-rpi3/RPi3_OPTEE_3.1/optee_os/lib/libutee/arch/arm/utee_syscalls_asm.S:110
    3f9c:	d28004a8 	mov	x8, #0x25                  	// #37
    3fa0:	d4000001 	svc	#0x0
    3fa4:	d65f03c0 	ret

0000000000003fa8 <utee_authenc_dec_final>:
utee_authenc_dec_final():
/home/zliu/ubuntu-optee-rpi3/RPi3_OPTEE_3.1/optee_os/lib/libutee/arch/arm/utee_syscalls_asm.S:112
    3fa8:	d28004c8 	mov	x8, #0x26                  	// #38
    3fac:	d4000001 	svc	#0x0
    3fb0:	d65f03c0 	ret

0000000000003fb4 <utee_asymm_operate>:
utee_asymm_operate():
/home/zliu/ubuntu-optee-rpi3/RPi3_OPTEE_3.1/optee_os/lib/libutee/arch/arm/utee_syscalls_asm.S:114
    3fb4:	d28004e8 	mov	x8, #0x27                  	// #39
    3fb8:	d4000001 	svc	#0x0
    3fbc:	d65f03c0 	ret

0000000000003fc0 <utee_asymm_verify>:
utee_asymm_verify():
/home/zliu/ubuntu-optee-rpi3/RPi3_OPTEE_3.1/optee_os/lib/libutee/arch/arm/utee_syscalls_asm.S:116
    3fc0:	d2800508 	mov	x8, #0x28                  	// #40
    3fc4:	d4000001 	svc	#0x0
    3fc8:	d65f03c0 	ret

0000000000003fcc <utee_storage_obj_open>:
utee_storage_obj_open():
/home/zliu/ubuntu-optee-rpi3/RPi3_OPTEE_3.1/optee_os/lib/libutee/arch/arm/utee_syscalls_asm.S:118
    3fcc:	d2800528 	mov	x8, #0x29                  	// #41
    3fd0:	d4000001 	svc	#0x0
    3fd4:	d65f03c0 	ret

0000000000003fd8 <utee_storage_obj_create>:
utee_storage_obj_create():
/home/zliu/ubuntu-optee-rpi3/RPi3_OPTEE_3.1/optee_os/lib/libutee/arch/arm/utee_syscalls_asm.S:120
    3fd8:	d2800548 	mov	x8, #0x2a                  	// #42
    3fdc:	d4000001 	svc	#0x0
    3fe0:	d65f03c0 	ret

0000000000003fe4 <utee_storage_obj_del>:
utee_storage_obj_del():
/home/zliu/ubuntu-optee-rpi3/RPi3_OPTEE_3.1/optee_os/lib/libutee/arch/arm/utee_syscalls_asm.S:122
    3fe4:	d2800568 	mov	x8, #0x2b                  	// #43
    3fe8:	d4000001 	svc	#0x0
    3fec:	d65f03c0 	ret

0000000000003ff0 <utee_storage_obj_rename>:
utee_storage_obj_rename():
/home/zliu/ubuntu-optee-rpi3/RPi3_OPTEE_3.1/optee_os/lib/libutee/arch/arm/utee_syscalls_asm.S:124
    3ff0:	d2800588 	mov	x8, #0x2c                  	// #44
    3ff4:	d4000001 	svc	#0x0
    3ff8:	d65f03c0 	ret

0000000000003ffc <utee_storage_alloc_enum>:
utee_storage_alloc_enum():
/home/zliu/ubuntu-optee-rpi3/RPi3_OPTEE_3.1/optee_os/lib/libutee/arch/arm/utee_syscalls_asm.S:126
    3ffc:	d28005a8 	mov	x8, #0x2d                  	// #45
    4000:	d4000001 	svc	#0x0
    4004:	d65f03c0 	ret

0000000000004008 <utee_storage_free_enum>:
utee_storage_free_enum():
/home/zliu/ubuntu-optee-rpi3/RPi3_OPTEE_3.1/optee_os/lib/libutee/arch/arm/utee_syscalls_asm.S:128
    4008:	d28005c8 	mov	x8, #0x2e                  	// #46
    400c:	d4000001 	svc	#0x0
    4010:	d65f03c0 	ret

0000000000004014 <utee_storage_reset_enum>:
utee_storage_reset_enum():
/home/zliu/ubuntu-optee-rpi3/RPi3_OPTEE_3.1/optee_os/lib/libutee/arch/arm/utee_syscalls_asm.S:130
    4014:	d28005e8 	mov	x8, #0x2f                  	// #47
    4018:	d4000001 	svc	#0x0
    401c:	d65f03c0 	ret

0000000000004020 <utee_storage_start_enum>:
utee_storage_start_enum():
/home/zliu/ubuntu-optee-rpi3/RPi3_OPTEE_3.1/optee_os/lib/libutee/arch/arm/utee_syscalls_asm.S:132
    4020:	d2800608 	mov	x8, #0x30                  	// #48
    4024:	d4000001 	svc	#0x0
    4028:	d65f03c0 	ret

000000000000402c <utee_storage_next_enum>:
utee_storage_next_enum():
/home/zliu/ubuntu-optee-rpi3/RPi3_OPTEE_3.1/optee_os/lib/libutee/arch/arm/utee_syscalls_asm.S:134
    402c:	d2800628 	mov	x8, #0x31                  	// #49
    4030:	d4000001 	svc	#0x0
    4034:	d65f03c0 	ret

0000000000004038 <utee_storage_obj_read>:
utee_storage_obj_read():
/home/zliu/ubuntu-optee-rpi3/RPi3_OPTEE_3.1/optee_os/lib/libutee/arch/arm/utee_syscalls_asm.S:136
    4038:	d2800648 	mov	x8, #0x32                  	// #50
    403c:	d4000001 	svc	#0x0
    4040:	d65f03c0 	ret

0000000000004044 <utee_storage_obj_write>:
utee_storage_obj_write():
/home/zliu/ubuntu-optee-rpi3/RPi3_OPTEE_3.1/optee_os/lib/libutee/arch/arm/utee_syscalls_asm.S:138
    4044:	d2800668 	mov	x8, #0x33                  	// #51
    4048:	d4000001 	svc	#0x0
    404c:	d65f03c0 	ret

0000000000004050 <utee_storage_obj_trunc>:
utee_storage_obj_trunc():
/home/zliu/ubuntu-optee-rpi3/RPi3_OPTEE_3.1/optee_os/lib/libutee/arch/arm/utee_syscalls_asm.S:140
    4050:	d2800688 	mov	x8, #0x34                  	// #52
    4054:	d4000001 	svc	#0x0
    4058:	d65f03c0 	ret

000000000000405c <utee_storage_obj_seek>:
utee_storage_obj_seek():
/home/zliu/ubuntu-optee-rpi3/RPi3_OPTEE_3.1/optee_os/lib/libutee/arch/arm/utee_syscalls_asm.S:142
    405c:	d28006a8 	mov	x8, #0x35                  	// #53
    4060:	d4000001 	svc	#0x0
    4064:	d65f03c0 	ret

0000000000004068 <utee_cryp_obj_generate_key>:
utee_cryp_obj_generate_key():
/home/zliu/ubuntu-optee-rpi3/RPi3_OPTEE_3.1/optee_os/lib/libutee/arch/arm/utee_syscalls_asm.S:144
    4068:	d28006c8 	mov	x8, #0x36                  	// #54
    406c:	d4000001 	svc	#0x0
    4070:	d65f03c0 	ret

0000000000004074 <utee_se_service_open>:
utee_se_service_open():
/home/zliu/ubuntu-optee-rpi3/RPi3_OPTEE_3.1/optee_os/lib/libutee/arch/arm/utee_syscalls_asm.S:147
    4074:	d28006e8 	mov	x8, #0x37                  	// #55
    4078:	d4000001 	svc	#0x0
    407c:	d65f03c0 	ret

0000000000004080 <utee_se_service_close>:
utee_se_service_close():
/home/zliu/ubuntu-optee-rpi3/RPi3_OPTEE_3.1/optee_os/lib/libutee/arch/arm/utee_syscalls_asm.S:149
    4080:	d2800708 	mov	x8, #0x38                  	// #56
    4084:	d4000001 	svc	#0x0
    4088:	d65f03c0 	ret

000000000000408c <utee_se_service_get_readers>:
utee_se_service_get_readers():
/home/zliu/ubuntu-optee-rpi3/RPi3_OPTEE_3.1/optee_os/lib/libutee/arch/arm/utee_syscalls_asm.S:151
    408c:	d2800728 	mov	x8, #0x39                  	// #57
    4090:	d4000001 	svc	#0x0
    4094:	d65f03c0 	ret

0000000000004098 <utee_se_reader_get_prop>:
utee_se_reader_get_prop():
/home/zliu/ubuntu-optee-rpi3/RPi3_OPTEE_3.1/optee_os/lib/libutee/arch/arm/utee_syscalls_asm.S:154
    4098:	d2800748 	mov	x8, #0x3a                  	// #58
    409c:	d4000001 	svc	#0x0
    40a0:	d65f03c0 	ret

00000000000040a4 <utee_se_reader_get_name>:
utee_se_reader_get_name():
/home/zliu/ubuntu-optee-rpi3/RPi3_OPTEE_3.1/optee_os/lib/libutee/arch/arm/utee_syscalls_asm.S:157
    40a4:	d2800768 	mov	x8, #0x3b                  	// #59
    40a8:	d4000001 	svc	#0x0
    40ac:	d65f03c0 	ret

00000000000040b0 <utee_se_reader_open_session>:
utee_se_reader_open_session():
/home/zliu/ubuntu-optee-rpi3/RPi3_OPTEE_3.1/optee_os/lib/libutee/arch/arm/utee_syscalls_asm.S:160
    40b0:	d2800788 	mov	x8, #0x3c                  	// #60
    40b4:	d4000001 	svc	#0x0
    40b8:	d65f03c0 	ret

00000000000040bc <utee_se_reader_close_sessions>:
utee_se_reader_close_sessions():
/home/zliu/ubuntu-optee-rpi3/RPi3_OPTEE_3.1/optee_os/lib/libutee/arch/arm/utee_syscalls_asm.S:163
    40bc:	d28007a8 	mov	x8, #0x3d                  	// #61
    40c0:	d4000001 	svc	#0x0
    40c4:	d65f03c0 	ret

00000000000040c8 <utee_se_session_is_closed>:
utee_se_session_is_closed():
/home/zliu/ubuntu-optee-rpi3/RPi3_OPTEE_3.1/optee_os/lib/libutee/arch/arm/utee_syscalls_asm.S:166
    40c8:	d28007c8 	mov	x8, #0x3e                  	// #62
    40cc:	d4000001 	svc	#0x0
    40d0:	d65f03c0 	ret

00000000000040d4 <utee_se_session_get_atr>:
utee_se_session_get_atr():
/home/zliu/ubuntu-optee-rpi3/RPi3_OPTEE_3.1/optee_os/lib/libutee/arch/arm/utee_syscalls_asm.S:169
    40d4:	d28007e8 	mov	x8, #0x3f                  	// #63
    40d8:	d4000001 	svc	#0x0
    40dc:	d65f03c0 	ret

00000000000040e0 <utee_se_session_open_channel>:
utee_se_session_open_channel():
/home/zliu/ubuntu-optee-rpi3/RPi3_OPTEE_3.1/optee_os/lib/libutee/arch/arm/utee_syscalls_asm.S:172
    40e0:	d2800808 	mov	x8, #0x40                  	// #64
    40e4:	d4000001 	svc	#0x0
    40e8:	d65f03c0 	ret

00000000000040ec <utee_se_session_close>:
utee_se_session_close():
/home/zliu/ubuntu-optee-rpi3/RPi3_OPTEE_3.1/optee_os/lib/libutee/arch/arm/utee_syscalls_asm.S:175
    40ec:	d2800828 	mov	x8, #0x41                  	// #65
    40f0:	d4000001 	svc	#0x0
    40f4:	d65f03c0 	ret

00000000000040f8 <utee_se_channel_select_next>:
utee_se_channel_select_next():
/home/zliu/ubuntu-optee-rpi3/RPi3_OPTEE_3.1/optee_os/lib/libutee/arch/arm/utee_syscalls_asm.S:178
    40f8:	d2800848 	mov	x8, #0x42                  	// #66
    40fc:	d4000001 	svc	#0x0
    4100:	d65f03c0 	ret

0000000000004104 <utee_se_channel_get_select_resp>:
utee_se_channel_get_select_resp():
/home/zliu/ubuntu-optee-rpi3/RPi3_OPTEE_3.1/optee_os/lib/libutee/arch/arm/utee_syscalls_asm.S:181
    4104:	d2800868 	mov	x8, #0x43                  	// #67
    4108:	d4000001 	svc	#0x0
    410c:	d65f03c0 	ret

0000000000004110 <utee_se_channel_transmit>:
utee_se_channel_transmit():
/home/zliu/ubuntu-optee-rpi3/RPi3_OPTEE_3.1/optee_os/lib/libutee/arch/arm/utee_syscalls_asm.S:184
    4110:	d2800888 	mov	x8, #0x44                  	// #68
    4114:	d4000001 	svc	#0x0
    4118:	d65f03c0 	ret

000000000000411c <utee_se_channel_close>:
utee_se_channel_close():
/home/zliu/ubuntu-optee-rpi3/RPi3_OPTEE_3.1/optee_os/lib/libutee/arch/arm/utee_syscalls_asm.S:187
    411c:	d28008a8 	mov	x8, #0x45                  	// #69
    4120:	d4000001 	svc	#0x0
    4124:	d65f03c0 	ret

0000000000004128 <utee_cache_operation>:
utee_cache_operation():
/home/zliu/ubuntu-optee-rpi3/RPi3_OPTEE_3.1/optee_os/lib/libutee/arch/arm/utee_syscalls_asm.S:190
    4128:	d28008c8 	mov	x8, #0x46                  	// #70
    412c:	d4000001 	svc	#0x0
    4130:	d65f03c0 	ret

0000000000004134 <__utee_mcount>:
__utee_mcount():
/home/zliu/ubuntu-optee-rpi3/RPi3_OPTEE_3.1/optee_os/lib/libutee/arch/arm/gprof/gprof_a64.S:52
    4134:	d65f03c0 	ret

0000000000004138 <print_buf>:
print_buf():
/home/zliu/ubuntu-optee-rpi3/RPi3_OPTEE_3.1/optee_os/lib/libutee/tee_user_mem.c:166
    4138:	d100c3ff 	sub	sp, sp, #0x30
/home/zliu/ubuntu-optee-rpi3/RPi3_OPTEE_3.1/optee_os/lib/libutee/tee_user_mem.c:167
    413c:	aa0303e7 	mov	x7, x3
    4140:	2a0203e6 	mov	w6, w2
    4144:	52800023 	mov	w3, #0x1                   	// #1
    4148:	2a0003e2 	mov	w2, w0
    414c:	d2800000 	mov	x0, #0x0                   	// #0
/home/zliu/ubuntu-optee-rpi3/RPi3_OPTEE_3.1/optee_os/lib/libutee/tee_user_mem.c:166
    4150:	a9027bfd 	stp	x29, x30, [sp, #32]
    4154:	910083fd 	add	x29, sp, #0x20
buf_size():
/home/zliu/ubuntu-optee-rpi3/RPi3_OPTEE_3.1/optee_os/lib/libutee/tee_user_mem.c:137
    4158:	f9400885 	ldr	x5, [x4, #16]
print_buf():
/home/zliu/ubuntu-optee-rpi3/RPi3_OPTEE_3.1/optee_os/lib/libutee/tee_user_mem.c:167
    415c:	f90003e4 	str	x4, [sp]
buf_size():
/home/zliu/ubuntu-optee-rpi3/RPi3_OPTEE_3.1/optee_os/lib/libutee/tee_user_mem.c:137
    4160:	d10084a5 	sub	x5, x5, #0x21
print_buf():
/home/zliu/ubuntu-optee-rpi3/RPi3_OPTEE_3.1/optee_os/lib/libutee/tee_user_mem.c:167
    4164:	f9000be5 	str	x5, [sp, #16]
buf_addr():
/home/zliu/ubuntu-optee-rpi3/RPi3_OPTEE_3.1/optee_os/lib/libutee/tee_user_mem.c:132
    4168:	91008085 	add	x5, x4, #0x20
print_buf():
/home/zliu/ubuntu-optee-rpi3/RPi3_OPTEE_3.1/optee_os/lib/libutee/tee_user_mem.c:167
    416c:	f90007e5 	str	x5, [sp, #8]
    4170:	90000044 	adrp	x4, c000 <__func__.3927+0x294>
    4174:	aa0103e5 	mov	x5, x1
    4178:	91015484 	add	x4, x4, #0x55
    417c:	52800001 	mov	w1, #0x0                   	// #0
    4180:	94000b45 	bl	6e94 <trace_printf>
/home/zliu/ubuntu-optee-rpi3/RPi3_OPTEE_3.1/optee_os/lib/libutee/tee_user_mem.c:170
    4184:	a9427bfd 	ldp	x29, x30, [sp, #32]
    4188:	9100c3ff 	add	sp, sp, #0x30
    418c:	d65f03c0 	ret

0000000000004190 <check_elem>:
check_elem():
/home/zliu/ubuntu-optee-rpi3/RPi3_OPTEE_3.1/optee_os/lib/libutee/tee_user_mem.c:241
    4190:	b40007e0 	cbz	x0, 428c <check_elem+0xfc>
/home/zliu/ubuntu-optee-rpi3/RPi3_OPTEE_3.1/optee_os/lib/libutee/tee_user_mem.c:237
    4194:	a9be7bfd 	stp	x29, x30, [sp, #-32]!
/home/zliu/ubuntu-optee-rpi3/RPi3_OPTEE_3.1/optee_os/lib/libutee/tee_user_mem.c:244
    4198:	f240041f 	tst	x0, #0x3
/home/zliu/ubuntu-optee-rpi3/RPi3_OPTEE_3.1/optee_os/lib/libutee/tee_user_mem.c:237
    419c:	910003fd 	mov	x29, sp
    41a0:	f9000bf3 	str	x19, [sp, #16]
    41a4:	aa0003f3 	mov	x19, x0
/home/zliu/ubuntu-optee-rpi3/RPi3_OPTEE_3.1/optee_os/lib/libutee/tee_user_mem.c:244
    41a8:	54000160 	b.eq	41d4 <check_elem+0x44>  // b.none
/home/zliu/ubuntu-optee-rpi3/RPi3_OPTEE_3.1/optee_os/lib/libutee/tee_user_mem.c:245
    41ac:	90000044 	adrp	x4, c000 <__func__.3927+0x294>
    41b0:	9101dc84 	add	x4, x4, #0x77
    41b4:	52800023 	mov	w3, #0x1                   	// #1
    41b8:	52800022 	mov	w2, #0x1                   	// #1
    41bc:	52801ea1 	mov	w1, #0xf5                  	// #245
    41c0:	d0000020 	adrp	x0, a000 <__mpa_abs_cmp+0x5c>
    41c4:	91374000 	add	x0, x0, #0xdd0
    41c8:	94000b33 	bl	6e94 <trace_printf>
/home/zliu/ubuntu-optee-rpi3/RPi3_OPTEE_3.1/optee_os/lib/libutee/tee_user_mem.c:246
    41cc:	52800000 	mov	w0, #0x0                   	// #0
    41d0:	97fffe51 	bl	3b14 <TEE_Panic>
/home/zliu/ubuntu-optee-rpi3/RPi3_OPTEE_3.1/optee_os/lib/libutee/tee_user_mem.c:249
    41d4:	f9400264 	ldr	x4, [x19]
/home/zliu/ubuntu-optee-rpi3/RPi3_OPTEE_3.1/optee_os/lib/libutee/tee_user_mem.c:250
    41d8:	b4000224 	cbz	x4, 421c <check_elem+0x8c>
/home/zliu/ubuntu-optee-rpi3/RPi3_OPTEE_3.1/optee_os/lib/libutee/tee_user_mem.c:250 (discriminator 1)
    41dc:	f9400480 	ldr	x0, [x4, #8]
    41e0:	f9400400 	ldr	x0, [x0, #8]
    41e4:	f9400000 	ldr	x0, [x0]
    41e8:	eb00027f 	cmp	x19, x0
    41ec:	54000180 	b.eq	421c <check_elem+0x8c>  // b.none
/home/zliu/ubuntu-optee-rpi3/RPi3_OPTEE_3.1/optee_os/lib/libutee/tee_user_mem.c:251
    41f0:	90000043 	adrp	x3, c000 <__func__.3927+0x294>
    41f4:	91023463 	add	x3, x3, #0x8d
    41f8:	52801f62 	mov	w2, #0xfb                  	// #251
/home/zliu/ubuntu-optee-rpi3/RPi3_OPTEE_3.1/optee_os/lib/libutee/tee_user_mem.c:257
    41fc:	d0000021 	adrp	x1, a000 <__mpa_abs_cmp+0x5c>
    4200:	91374021 	add	x1, x1, #0xdd0
    4204:	52800020 	mov	w0, #0x1                   	// #1
check_elem_end():
/home/zliu/ubuntu-optee-rpi3/RPi3_OPTEE_3.1/optee_os/lib/libutee/tee_user_mem.c:229
    4208:	97ffffcc 	bl	4138 <print_buf>
/home/zliu/ubuntu-optee-rpi3/RPi3_OPTEE_3.1/optee_os/lib/libutee/tee_user_mem.c:230
    420c:	52800000 	mov	w0, #0x0                   	// #0
check_elem():
/home/zliu/ubuntu-optee-rpi3/RPi3_OPTEE_3.1/optee_os/lib/libutee/tee_user_mem.c:262
    4210:	f9400bf3 	ldr	x19, [sp, #16]
    4214:	a8c27bfd 	ldp	x29, x30, [sp], #32
    4218:	d65f03c0 	ret
/home/zliu/ubuntu-optee-rpi3/RPi3_OPTEE_3.1/optee_os/lib/libutee/tee_user_mem.c:255
    421c:	f9400660 	ldr	x0, [x19, #8]
    4220:	f9400400 	ldr	x0, [x0, #8]
    4224:	f9400004 	ldr	x4, [x0]
/home/zliu/ubuntu-optee-rpi3/RPi3_OPTEE_3.1/optee_os/lib/libutee/tee_user_mem.c:256
    4228:	b4000104 	cbz	x4, 4248 <check_elem+0xb8>
    422c:	f9400080 	ldr	x0, [x4]
    4230:	eb00027f 	cmp	x19, x0
    4234:	540000a0 	b.eq	4248 <check_elem+0xb8>  // b.none
/home/zliu/ubuntu-optee-rpi3/RPi3_OPTEE_3.1/optee_os/lib/libutee/tee_user_mem.c:257
    4238:	90000043 	adrp	x3, c000 <__func__.3927+0x294>
    423c:	52802022 	mov	w2, #0x101                 	// #257
    4240:	91023463 	add	x3, x3, #0x8d
    4244:	17ffffee 	b	41fc <check_elem+0x6c>
check_elem_end():
/home/zliu/ubuntu-optee-rpi3/RPi3_OPTEE_3.1/optee_os/lib/libutee/tee_user_mem.c:227
    4248:	f9400a60 	ldr	x0, [x19, #16]
/home/zliu/ubuntu-optee-rpi3/RPi3_OPTEE_3.1/optee_os/lib/libutee/tee_user_mem.c:228
    424c:	92401e61 	and	x1, x19, #0xff
/home/zliu/ubuntu-optee-rpi3/RPi3_OPTEE_3.1/optee_os/lib/libutee/tee_user_mem.c:227
    4250:	8b000260 	add	x0, x19, x0
    4254:	385ff002 	ldurb	w2, [x0, #-1]
/home/zliu/ubuntu-optee-rpi3/RPi3_OPTEE_3.1/optee_os/lib/libutee/tee_user_mem.c:228
    4258:	d28018a0 	mov	x0, #0xc5                  	// #197
    425c:	ca000021 	eor	x1, x1, x0
/home/zliu/ubuntu-optee-rpi3/RPi3_OPTEE_3.1/optee_os/lib/libutee/tee_user_mem.c:233
    4260:	52800020 	mov	w0, #0x1                   	// #1
/home/zliu/ubuntu-optee-rpi3/RPi3_OPTEE_3.1/optee_os/lib/libutee/tee_user_mem.c:227
    4264:	eb01005f 	cmp	x2, x1
    4268:	54fffd40 	b.eq	4210 <check_elem+0x80>  // b.none
/home/zliu/ubuntu-optee-rpi3/RPi3_OPTEE_3.1/optee_os/lib/libutee/tee_user_mem.c:229
    426c:	d0000021 	adrp	x1, a000 <__mpa_abs_cmp+0x5c>
    4270:	91374021 	add	x1, x1, #0xdd0
    4274:	90000043 	adrp	x3, c000 <__func__.3927+0x294>
    4278:	aa1303e4 	mov	x4, x19
    427c:	91026063 	add	x3, x3, #0x98
    4280:	52801ca2 	mov	w2, #0xe5                  	// #229
    4284:	91004021 	add	x1, x1, #0x10
    4288:	17ffffe0 	b	4208 <check_elem+0x78>
check_elem():
/home/zliu/ubuntu-optee-rpi3/RPi3_OPTEE_3.1/optee_os/lib/libutee/tee_user_mem.c:242
    428c:	52800000 	mov	w0, #0x0                   	// #0
    4290:	d65f03c0 	ret

0000000000004294 <tee_user_mem_alloc>:
tee_user_mem_alloc():
/home/zliu/ubuntu-optee-rpi3/RPi3_OPTEE_3.1/optee_os/lib/libutee/tee_user_mem.c:298
    4294:	a9bd7bfd 	stp	x29, x30, [sp, #-48]!
    4298:	910003fd 	mov	x29, sp
    429c:	a90153f3 	stp	x19, x20, [sp, #16]
    42a0:	a9025bf5 	stp	x21, x22, [sp, #32]
/home/zliu/ubuntu-optee-rpi3/RPi3_OPTEE_3.1/optee_os/lib/libutee/tee_user_mem.c:307
    42a4:	36f800e0 	tbz	w0, #31, 42c0 <tee_user_mem_alloc+0x2c>
/home/zliu/ubuntu-optee-rpi3/RPi3_OPTEE_3.1/optee_os/lib/libutee/tee_user_mem.c:325
    42a8:	d2800013 	mov	x19, #0x0                   	// #0
/home/zliu/ubuntu-optee-rpi3/RPi3_OPTEE_3.1/optee_os/lib/libutee/tee_user_mem.c:359
    42ac:	aa1303e0 	mov	x0, x19
    42b0:	a94153f3 	ldp	x19, x20, [sp, #16]
    42b4:	a9425bf5 	ldp	x21, x22, [sp, #32]
    42b8:	a8c37bfd 	ldp	x29, x30, [sp], #48
    42bc:	d65f03c0 	ret
/home/zliu/ubuntu-optee-rpi3/RPi3_OPTEE_3.1/optee_os/lib/libutee/tee_user_mem.c:314
    42c0:	d2800213 	mov	x19, #0x10                  	// #16
/home/zliu/ubuntu-optee-rpi3/RPi3_OPTEE_3.1/optee_os/lib/libutee/tee_user_mem.c:312
    42c4:	b4ffff40 	cbz	x0, 42ac <tee_user_mem_alloc+0x18>
    42c8:	2a0103f6 	mov	w22, w1
    42cc:	aa0003f4 	mov	x20, x0
/home/zliu/ubuntu-optee-rpi3/RPi3_OPTEE_3.1/optee_os/lib/libutee/tee_user_mem.c:318
    42d0:	340001e1 	cbz	w1, 430c <tee_user_mem_alloc+0x78>
    42d4:	52b00000 	mov	w0, #0x80000000            	// #-2147483648
    42d8:	6b00003f 	cmp	w1, w0
    42dc:	54000180 	b.eq	430c <tee_user_mem_alloc+0x78>  // b.none
/home/zliu/ubuntu-optee-rpi3/RPi3_OPTEE_3.1/optee_os/lib/libutee/tee_user_mem.c:323
    42e0:	d0000020 	adrp	x0, a000 <__mpa_abs_cmp+0x5c>
    42e4:	91374000 	add	x0, x0, #0xdd0
    42e8:	2a0103e5 	mov	w5, w1
    42ec:	90000044 	adrp	x4, c000 <__func__.3927+0x294>
    42f0:	52800023 	mov	w3, #0x1                   	// #1
    42f4:	91029084 	add	x4, x4, #0xa4
    42f8:	52800022 	mov	w2, #0x1                   	// #1
    42fc:	52802861 	mov	w1, #0x143                 	// #323
    4300:	91008000 	add	x0, x0, #0x20
    4304:	94000ae4 	bl	6e94 <trace_printf>
    4308:	17ffffe8 	b	42a8 <tee_user_mem_alloc+0x14>
/home/zliu/ubuntu-optee-rpi3/RPi3_OPTEE_3.1/optee_os/lib/libutee/tee_user_mem.c:301
    430c:	91008695 	add	x21, x20, #0x21
/home/zliu/ubuntu-optee-rpi3/RPi3_OPTEE_3.1/optee_os/lib/libutee/tee_user_mem.c:328
    4310:	aa1503e0 	mov	x0, x21
    4314:	940002c2 	bl	4e1c <utee_malloc>
    4318:	aa0003f3 	mov	x19, x0
/home/zliu/ubuntu-optee-rpi3/RPi3_OPTEE_3.1/optee_os/lib/libutee/tee_user_mem.c:329
    431c:	b4fffc60 	cbz	x0, 42a8 <tee_user_mem_alloc+0x14>
heap_inc():
/home/zliu/ubuntu-optee-rpi3/RPi3_OPTEE_3.1/optee_os/lib/libutee/tee_user_mem.c:198
    4320:	b0000042 	adrp	x2, d000 <ta_props>
    4324:	91066040 	add	x0, x2, #0x198
/home/zliu/ubuntu-optee-rpi3/RPi3_OPTEE_3.1/optee_os/lib/libutee/tee_user_mem.c:200
    4328:	91002001 	add	x1, x0, #0x8
tee_user_mem_alloc():
/home/zliu/ubuntu-optee-rpi3/RPi3_OPTEE_3.1/optee_os/lib/libutee/tee_user_mem.c:331
    432c:	f9000a75 	str	x21, [x19, #16]
heap_inc():
/home/zliu/ubuntu-optee-rpi3/RPi3_OPTEE_3.1/optee_os/lib/libutee/tee_user_mem.c:198
    4330:	f940cc43 	ldr	x3, [x2, #408]
tee_user_mem_alloc():
/home/zliu/ubuntu-optee-rpi3/RPi3_OPTEE_3.1/optee_os/lib/libutee/tee_user_mem.c:344
    4334:	aa1303e4 	mov	x4, x19
/home/zliu/ubuntu-optee-rpi3/RPi3_OPTEE_3.1/optee_os/lib/libutee/tee_user_mem.c:332
    4338:	b9001a76 	str	w22, [x19, #24]
heap_inc():
/home/zliu/ubuntu-optee-rpi3/RPi3_OPTEE_3.1/optee_os/lib/libutee/tee_user_mem.c:198
    433c:	8b150063 	add	x3, x3, x21
    4340:	f900cc43 	str	x3, [x2, #408]
/home/zliu/ubuntu-optee-rpi3/RPi3_OPTEE_3.1/optee_os/lib/libutee/tee_user_mem.c:200
    4344:	b9400802 	ldr	w2, [x0, #8]
tee_user_mem_alloc():
/home/zliu/ubuntu-optee-rpi3/RPi3_OPTEE_3.1/optee_os/lib/libutee/tee_user_mem.c:344
    4348:	90000043 	adrp	x3, c000 <__func__.3927+0x294>
    434c:	9102f863 	add	x3, x3, #0xbe
heap_inc():
/home/zliu/ubuntu-optee-rpi3/RPi3_OPTEE_3.1/optee_os/lib/libutee/tee_user_mem.c:200
    4350:	11000442 	add	w2, w2, #0x1
    4354:	b9000802 	str	w2, [x0, #8]
/home/zliu/ubuntu-optee-rpi3/RPi3_OPTEE_3.1/optee_os/lib/libutee/tee_user_mem.c:201
    4358:	f9400800 	ldr	x0, [x0, #16]
tee_user_mem_alloc():
/home/zliu/ubuntu-optee-rpi3/RPi3_OPTEE_3.1/optee_os/lib/libutee/tee_user_mem.c:344
    435c:	52802b02 	mov	w2, #0x158                 	// #344
heap_inc():
/home/zliu/ubuntu-optee-rpi3/RPi3_OPTEE_3.1/optee_os/lib/libutee/tee_user_mem.c:201
    4360:	8b150015 	add	x21, x0, x21
tee_user_mem_alloc():
/home/zliu/ubuntu-optee-rpi3/RPi3_OPTEE_3.1/optee_os/lib/libutee/tee_user_mem.c:336
    4364:	b0000040 	adrp	x0, d000 <ta_props>
    4368:	9103c000 	add	x0, x0, #0xf0
heap_inc():
/home/zliu/ubuntu-optee-rpi3/RPi3_OPTEE_3.1/optee_os/lib/libutee/tee_user_mem.c:201
    436c:	f9000435 	str	x21, [x1, #8]
tee_user_mem_alloc():
/home/zliu/ubuntu-optee-rpi3/RPi3_OPTEE_3.1/optee_os/lib/libutee/tee_user_mem.c:336
    4370:	f9400401 	ldr	x1, [x0, #8]
    4374:	a900067f 	stp	xzr, x1, [x19]
    4378:	f9000033 	str	x19, [x1]
/home/zliu/ubuntu-optee-rpi3/RPi3_OPTEE_3.1/optee_os/lib/libutee/tee_user_mem.c:340
    437c:	8b140261 	add	x1, x19, x20
/home/zliu/ubuntu-optee-rpi3/RPi3_OPTEE_3.1/optee_os/lib/libutee/tee_user_mem.c:336
    4380:	f9000413 	str	x19, [x0, #8]
/home/zliu/ubuntu-optee-rpi3/RPi3_OPTEE_3.1/optee_os/lib/libutee/tee_user_mem.c:341
    4384:	12800740 	mov	w0, #0xffffffc5            	// #-59
    4388:	4a130000 	eor	w0, w0, w19
buf_addr():
/home/zliu/ubuntu-optee-rpi3/RPi3_OPTEE_3.1/optee_os/lib/libutee/tee_user_mem.c:132
    438c:	91008273 	add	x19, x19, #0x20
tee_user_mem_alloc():
/home/zliu/ubuntu-optee-rpi3/RPi3_OPTEE_3.1/optee_os/lib/libutee/tee_user_mem.c:340
    4390:	39008020 	strb	w0, [x1, #32]
/home/zliu/ubuntu-optee-rpi3/RPi3_OPTEE_3.1/optee_os/lib/libutee/tee_user_mem.c:344
    4394:	d0000020 	adrp	x0, a000 <__mpa_abs_cmp+0x5c>
    4398:	91374000 	add	x0, x0, #0xdd0
    439c:	91008001 	add	x1, x0, #0x20
    43a0:	52800080 	mov	w0, #0x4                   	// #4
    43a4:	97ffff65 	bl	4138 <print_buf>
/home/zliu/ubuntu-optee-rpi3/RPi3_OPTEE_3.1/optee_os/lib/libutee/tee_user_mem.c:348
    43a8:	350000d6 	cbnz	w22, 43c0 <tee_user_mem_alloc+0x12c>
/home/zliu/ubuntu-optee-rpi3/RPi3_OPTEE_3.1/optee_os/lib/libutee/tee_user_mem.c:349
    43ac:	aa1403e2 	mov	x2, x20
    43b0:	52800001 	mov	w1, #0x0                   	// #0
    43b4:	aa1303e0 	mov	x0, x19
    43b8:	94000770 	bl	6178 <memset>
    43bc:	17ffffbc 	b	42ac <tee_user_mem_alloc+0x18>
/home/zliu/ubuntu-optee-rpi3/RPi3_OPTEE_3.1/optee_os/lib/libutee/tee_user_mem.c:351
    43c0:	52b00000 	mov	w0, #0x80000000            	// #-2147483648
    43c4:	6b0002df 	cmp	w22, w0
    43c8:	54fff721 	b.ne	42ac <tee_user_mem_alloc+0x18>  // b.any
/home/zliu/ubuntu-optee-rpi3/RPi3_OPTEE_3.1/optee_os/lib/libutee/tee_user_mem.c:353
    43cc:	aa1403e2 	mov	x2, x20
    43d0:	52801761 	mov	w1, #0xbb                  	// #187
    43d4:	aa1303e0 	mov	x0, x19
    43d8:	94000768 	bl	6178 <memset>
    43dc:	17ffffb4 	b	42ac <tee_user_mem_alloc+0x18>

00000000000043e0 <tee_user_mem_free>:
tee_user_mem_free():
/home/zliu/ubuntu-optee-rpi3/RPi3_OPTEE_3.1/optee_os/lib/libutee/tee_user_mem.c:431
    43e0:	f100001f 	cmp	x0, #0x0
    43e4:	fa501804 	ccmp	x0, #0x10, #0x4, ne  // ne = any
    43e8:	540009c0 	b.eq	4520 <tee_user_mem_free+0x140>  // b.none
/home/zliu/ubuntu-optee-rpi3/RPi3_OPTEE_3.1/optee_os/lib/libutee/tee_user_mem.c:424
    43ec:	a9bd7bfd 	stp	x29, x30, [sp, #-48]!
is_buffer_valid():
/home/zliu/ubuntu-optee-rpi3/RPi3_OPTEE_3.1/optee_os/lib/libutee/tee_user_mem.c:152
    43f0:	b0000041 	adrp	x1, d000 <ta_props>
tee_user_mem_free():
/home/zliu/ubuntu-optee-rpi3/RPi3_OPTEE_3.1/optee_os/lib/libutee/tee_user_mem.c:424
    43f4:	910003fd 	mov	x29, sp
    43f8:	a90153f3 	stp	x19, x20, [sp, #16]
is_buffer_valid():
/home/zliu/ubuntu-optee-rpi3/RPi3_OPTEE_3.1/optee_os/lib/libutee/tee_user_mem.c:152
    43fc:	f9407834 	ldr	x20, [x1, #240]
tee_user_mem_free():
/home/zliu/ubuntu-optee-rpi3/RPi3_OPTEE_3.1/optee_os/lib/libutee/tee_user_mem.c:424
    4400:	a9025bf5 	stp	x21, x22, [sp, #32]
    4404:	aa0103f6 	mov	x22, x1
is_buffer_valid():
/home/zliu/ubuntu-optee-rpi3/RPi3_OPTEE_3.1/optee_os/lib/libutee/tee_user_mem.c:152
    4408:	b50001d4 	cbnz	x20, 4440 <tee_user_mem_free+0x60>
tee_user_mem_free():
/home/zliu/ubuntu-optee-rpi3/RPi3_OPTEE_3.1/optee_os/lib/libutee/tee_user_mem.c:469
    440c:	a94153f3 	ldp	x19, x20, [sp, #16]
/home/zliu/ubuntu-optee-rpi3/RPi3_OPTEE_3.1/optee_os/lib/libutee/tee_user_mem.c:436
    4410:	aa0003e5 	mov	x5, x0
/home/zliu/ubuntu-optee-rpi3/RPi3_OPTEE_3.1/optee_os/lib/libutee/tee_user_mem.c:469
    4414:	a9425bf5 	ldp	x21, x22, [sp, #32]
/home/zliu/ubuntu-optee-rpi3/RPi3_OPTEE_3.1/optee_os/lib/libutee/tee_user_mem.c:436
    4418:	d0000020 	adrp	x0, a000 <__mpa_abs_cmp+0x5c>
/home/zliu/ubuntu-optee-rpi3/RPi3_OPTEE_3.1/optee_os/lib/libutee/tee_user_mem.c:469
    441c:	a8c37bfd 	ldp	x29, x30, [sp], #48
/home/zliu/ubuntu-optee-rpi3/RPi3_OPTEE_3.1/optee_os/lib/libutee/tee_user_mem.c:436
    4420:	91374000 	add	x0, x0, #0xdd0
    4424:	90000044 	adrp	x4, c000 <__func__.3927+0x294>
    4428:	52800023 	mov	w3, #0x1                   	// #1
    442c:	91037884 	add	x4, x4, #0xde
    4430:	52800022 	mov	w2, #0x1                   	// #1
    4434:	52803681 	mov	w1, #0x1b4                 	// #436
    4438:	9100e000 	add	x0, x0, #0x38
    443c:	14000a96 	b	6e94 <trace_printf>
buf_addr():
/home/zliu/ubuntu-optee-rpi3/RPi3_OPTEE_3.1/optee_os/lib/libutee/tee_user_mem.c:132
    4440:	91008281 	add	x1, x20, #0x20
is_buffer_valid():
/home/zliu/ubuntu-optee-rpi3/RPi3_OPTEE_3.1/optee_os/lib/libutee/tee_user_mem.c:153
    4444:	eb01001f 	cmp	x0, x1
    4448:	540000c0 	b.eq	4460 <tee_user_mem_free+0x80>  // b.none
/home/zliu/ubuntu-optee-rpi3/RPi3_OPTEE_3.1/optee_os/lib/libutee/tee_user_mem.c:152
    444c:	f9400294 	ldr	x20, [x20]
    4450:	17ffffee 	b	4408 <tee_user_mem_free+0x28>
tee_user_mem_free():
/home/zliu/ubuntu-optee-rpi3/RPi3_OPTEE_3.1/optee_os/lib/libutee/tee_user_mem.c:452
    4454:	9103c2d6 	add	x22, x22, #0xf0
    4458:	f90006c1 	str	x1, [x22, #8]
    445c:	1400001b 	b	44c8 <tee_user_mem_free+0xe8>
/home/zliu/ubuntu-optee-rpi3/RPi3_OPTEE_3.1/optee_os/lib/libutee/tee_user_mem.c:443
    4460:	d0000035 	adrp	x21, a000 <__mpa_abs_cmp+0x5c>
    4464:	913742b5 	add	x21, x21, #0xdd0
    4468:	9100e2b5 	add	x21, x21, #0x38
    446c:	aa1403e4 	mov	x4, x20
    4470:	90000043 	adrp	x3, c000 <__func__.3927+0x294>
    4474:	aa1503e1 	mov	x1, x21
    4478:	9103e063 	add	x3, x3, #0xf8
    447c:	52803762 	mov	w2, #0x1bb                 	// #443
    4480:	aa0003f3 	mov	x19, x0
    4484:	52800080 	mov	w0, #0x4                   	// #4
    4488:	97ffff2c 	bl	4138 <print_buf>
/home/zliu/ubuntu-optee-rpi3/RPi3_OPTEE_3.1/optee_os/lib/libutee/tee_user_mem.c:446
    448c:	aa1403e0 	mov	x0, x20
    4490:	97ffff40 	bl	4190 <check_elem>
    4494:	35000140 	cbnz	w0, 44bc <tee_user_mem_free+0xdc>
/home/zliu/ubuntu-optee-rpi3/RPi3_OPTEE_3.1/optee_os/lib/libutee/tee_user_mem.c:447
    4498:	90000044 	adrp	x4, c000 <__func__.3927+0x294>
    449c:	91032484 	add	x4, x4, #0xc9
    44a0:	52800023 	mov	w3, #0x1                   	// #1
    44a4:	52800022 	mov	w2, #0x1                   	// #1
    44a8:	528037e1 	mov	w1, #0x1bf                 	// #447
    44ac:	aa1503e0 	mov	x0, x21
    44b0:	94000a79 	bl	6e94 <trace_printf>
/home/zliu/ubuntu-optee-rpi3/RPi3_OPTEE_3.1/optee_os/lib/libutee/tee_user_mem.c:448
    44b4:	52800000 	mov	w0, #0x0                   	// #0
    44b8:	97fffd97 	bl	3b14 <TEE_Panic>
    44bc:	a97e0660 	ldp	x0, x1, [x19, #-32]
/home/zliu/ubuntu-optee-rpi3/RPi3_OPTEE_3.1/optee_os/lib/libutee/tee_user_mem.c:452
    44c0:	b4fffca0 	cbz	x0, 4454 <tee_user_mem_free+0x74>
    44c4:	f9000401 	str	x1, [x0, #8]
/home/zliu/ubuntu-optee-rpi3/RPi3_OPTEE_3.1/optee_os/lib/libutee/tee_user_mem.c:454
    44c8:	a97e8a61 	ldp	x1, x2, [x19, #-24]
/home/zliu/ubuntu-optee-rpi3/RPi3_OPTEE_3.1/optee_os/lib/libutee/tee_user_mem.c:452
    44cc:	f9000020 	str	x0, [x1]
heap_dec():
/home/zliu/ubuntu-optee-rpi3/RPi3_OPTEE_3.1/optee_os/lib/libutee/tee_user_mem.c:208
    44d0:	b0000041 	adrp	x1, d000 <ta_props>
    44d4:	91066020 	add	x0, x1, #0x198
    44d8:	f940cc23 	ldr	x3, [x1, #408]
    44dc:	cb020063 	sub	x3, x3, x2
    44e0:	f900cc23 	str	x3, [x1, #408]
/home/zliu/ubuntu-optee-rpi3/RPi3_OPTEE_3.1/optee_os/lib/libutee/tee_user_mem.c:210
    44e4:	b9400801 	ldr	w1, [x0, #8]
    44e8:	91002003 	add	x3, x0, #0x8
    44ec:	51000421 	sub	w1, w1, #0x1
    44f0:	b9000801 	str	w1, [x0, #8]
/home/zliu/ubuntu-optee-rpi3/RPi3_OPTEE_3.1/optee_os/lib/libutee/tee_user_mem.c:211
    44f4:	f9400800 	ldr	x0, [x0, #16]
tee_user_mem_free():
/home/zliu/ubuntu-optee-rpi3/RPi3_OPTEE_3.1/optee_os/lib/libutee/tee_user_mem.c:463
    44f8:	52801541 	mov	w1, #0xaa                  	// #170
heap_dec():
/home/zliu/ubuntu-optee-rpi3/RPi3_OPTEE_3.1/optee_os/lib/libutee/tee_user_mem.c:211
    44fc:	cb020000 	sub	x0, x0, x2
    4500:	f9000460 	str	x0, [x3, #8]
tee_user_mem_free():
/home/zliu/ubuntu-optee-rpi3/RPi3_OPTEE_3.1/optee_os/lib/libutee/tee_user_mem.c:463
    4504:	aa1403e0 	mov	x0, x20
    4508:	9400071c 	bl	6178 <memset>
/home/zliu/ubuntu-optee-rpi3/RPi3_OPTEE_3.1/optee_os/lib/libutee/tee_user_mem.c:466
    450c:	aa1403e0 	mov	x0, x20
/home/zliu/ubuntu-optee-rpi3/RPi3_OPTEE_3.1/optee_os/lib/libutee/tee_user_mem.c:469
    4510:	a9425bf5 	ldp	x21, x22, [sp, #32]
    4514:	a94153f3 	ldp	x19, x20, [sp, #16]
    4518:	a8c37bfd 	ldp	x29, x30, [sp], #48
/home/zliu/ubuntu-optee-rpi3/RPi3_OPTEE_3.1/optee_os/lib/libutee/tee_user_mem.c:466
    451c:	14000243 	b	4e28 <utee_free>
    4520:	d65f03c0 	ret

0000000000004524 <tee_user_mem_realloc>:
tee_user_mem_realloc():
/home/zliu/ubuntu-optee-rpi3/RPi3_OPTEE_3.1/optee_os/lib/libutee/tee_user_mem.c:368
    4524:	a9bd7bfd 	stp	x29, x30, [sp, #-48]!
    4528:	910003fd 	mov	x29, sp
    452c:	a90153f3 	stp	x19, x20, [sp, #16]
    4530:	a9025bf5 	stp	x21, x22, [sp, #32]
/home/zliu/ubuntu-optee-rpi3/RPi3_OPTEE_3.1/optee_os/lib/libutee/tee_user_mem.c:375
    4534:	37f80261 	tbnz	w1, #31, 4580 <tee_user_mem_realloc+0x5c>
/home/zliu/ubuntu-optee-rpi3/RPi3_OPTEE_3.1/optee_os/lib/libutee/tee_user_mem.c:385 (discriminator 1)
    4538:	f100001f 	cmp	x0, #0x0
    453c:	aa0103f4 	mov	x20, x1
    4540:	fa501804 	ccmp	x0, #0x10, #0x4, ne  // ne = any
    4544:	54000080 	b.eq	4554 <tee_user_mem_realloc+0x30>  // b.none
is_buffer_valid():
/home/zliu/ubuntu-optee-rpi3/RPi3_OPTEE_3.1/optee_os/lib/libutee/tee_user_mem.c:152
    4548:	b0000041 	adrp	x1, d000 <ta_props>
    454c:	f9407821 	ldr	x1, [x1, #240]
    4550:	b50000e1 	cbnz	x1, 456c <tee_user_mem_realloc+0x48>
tee_user_mem_realloc():
/home/zliu/ubuntu-optee-rpi3/RPi3_OPTEE_3.1/optee_os/lib/libutee/tee_user_mem.c:386
    4554:	aa1403e0 	mov	x0, x20
    4558:	52800001 	mov	w1, #0x0                   	// #0
/home/zliu/ubuntu-optee-rpi3/RPi3_OPTEE_3.1/optee_os/lib/libutee/tee_user_mem.c:417
    455c:	a94153f3 	ldp	x19, x20, [sp, #16]
    4560:	a9425bf5 	ldp	x21, x22, [sp, #32]
    4564:	a8c37bfd 	ldp	x29, x30, [sp], #48
/home/zliu/ubuntu-optee-rpi3/RPi3_OPTEE_3.1/optee_os/lib/libutee/tee_user_mem.c:386
    4568:	17ffff4b 	b	4294 <tee_user_mem_alloc>
buf_addr():
/home/zliu/ubuntu-optee-rpi3/RPi3_OPTEE_3.1/optee_os/lib/libutee/tee_user_mem.c:132
    456c:	91008023 	add	x3, x1, #0x20
is_buffer_valid():
/home/zliu/ubuntu-optee-rpi3/RPi3_OPTEE_3.1/optee_os/lib/libutee/tee_user_mem.c:153
    4570:	eb03001f 	cmp	x0, x3
    4574:	540000a0 	b.eq	4588 <tee_user_mem_realloc+0x64>  // b.none
/home/zliu/ubuntu-optee-rpi3/RPi3_OPTEE_3.1/optee_os/lib/libutee/tee_user_mem.c:152
    4578:	f9400021 	ldr	x1, [x1]
    457c:	17fffff5 	b	4550 <tee_user_mem_realloc+0x2c>
tee_user_mem_realloc():
/home/zliu/ubuntu-optee-rpi3/RPi3_OPTEE_3.1/optee_os/lib/libutee/tee_user_mem.c:377
    4580:	d2800016 	mov	x22, #0x0                   	// #0
    4584:	14000012 	b	45cc <tee_user_mem_realloc+0xa8>
buf_size():
/home/zliu/ubuntu-optee-rpi3/RPi3_OPTEE_3.1/optee_os/lib/libutee/tee_user_mem.c:137
    4588:	f85f0015 	ldur	x21, [x0, #-16]
tee_user_mem_realloc():
/home/zliu/ubuntu-optee-rpi3/RPi3_OPTEE_3.1/optee_os/lib/libutee/tee_user_mem.c:137
    458c:	aa0003f6 	mov	x22, x0
buf_size():
/home/zliu/ubuntu-optee-rpi3/RPi3_OPTEE_3.1/optee_os/lib/libutee/tee_user_mem.c:137
    4590:	d10086b5 	sub	x21, x21, #0x21
tee_user_mem_realloc():
/home/zliu/ubuntu-optee-rpi3/RPi3_OPTEE_3.1/optee_os/lib/libutee/tee_user_mem.c:397
    4594:	eb15029f 	cmp	x20, x21
    4598:	540001a0 	b.eq	45cc <tee_user_mem_realloc+0xa8>  // b.none
/home/zliu/ubuntu-optee-rpi3/RPi3_OPTEE_3.1/optee_os/lib/libutee/tee_user_mem.c:407
    459c:	b9401821 	ldr	w1, [x1, #24]
    45a0:	aa0003f3 	mov	x19, x0
    45a4:	aa1403e0 	mov	x0, x20
    45a8:	97ffff3b 	bl	4294 <tee_user_mem_alloc>
    45ac:	aa0003f6 	mov	x22, x0
/home/zliu/ubuntu-optee-rpi3/RPi3_OPTEE_3.1/optee_os/lib/libutee/tee_user_mem.c:408
    45b0:	b40000e0 	cbz	x0, 45cc <tee_user_mem_realloc+0xa8>
/home/zliu/ubuntu-optee-rpi3/RPi3_OPTEE_3.1/optee_os/lib/libutee/tee_user_mem.c:409
    45b4:	eb15029f 	cmp	x20, x21
    45b8:	aa1303e1 	mov	x1, x19
    45bc:	9a959282 	csel	x2, x20, x21, ls  // ls = plast
    45c0:	940006d3 	bl	610c <memcpy>
/home/zliu/ubuntu-optee-rpi3/RPi3_OPTEE_3.1/optee_os/lib/libutee/tee_user_mem.c:412
    45c4:	aa1303e0 	mov	x0, x19
    45c8:	97ffff86 	bl	43e0 <tee_user_mem_free>
/home/zliu/ubuntu-optee-rpi3/RPi3_OPTEE_3.1/optee_os/lib/libutee/tee_user_mem.c:417
    45cc:	aa1603e0 	mov	x0, x22
    45d0:	a94153f3 	ldp	x19, x20, [sp, #16]
    45d4:	a9425bf5 	ldp	x21, x22, [sp, #32]
    45d8:	a8c37bfd 	ldp	x29, x30, [sp], #48
    45dc:	d65f03c0 	ret

00000000000045e0 <tee_user_mem_mark_heap>:
tee_user_mem_mark_heap():
/home/zliu/ubuntu-optee-rpi3/RPi3_OPTEE_3.1/optee_os/lib/libutee/tee_user_mem.c:479
    45e0:	b0000040 	adrp	x0, d000 <ta_props>
    45e4:	f900cc1f 	str	xzr, [x0, #408]
    45e8:	d65f03c0 	ret

00000000000045ec <tee_user_mem_check_heap>:
tee_user_mem_check_heap():
/home/zliu/ubuntu-optee-rpi3/RPi3_OPTEE_3.1/optee_os/lib/libutee/tee_user_mem.c:489
    45ec:	a9be7bfd 	stp	x29, x30, [sp, #-32]!
    45f0:	910003fd 	mov	x29, sp
    45f4:	a90153f3 	stp	x19, x20, [sp, #16]
/home/zliu/ubuntu-optee-rpi3/RPi3_OPTEE_3.1/optee_os/lib/libutee/tee_user_mem.c:493
    45f8:	b0000054 	adrp	x20, d000 <ta_props>
    45fc:	f940ce93 	ldr	x19, [x20, #408]
    4600:	b4000213 	cbz	x19, 4640 <tee_user_mem_check_heap+0x54>
/home/zliu/ubuntu-optee-rpi3/RPi3_OPTEE_3.1/optee_os/lib/libutee/tee_user_mem.c:494
    4604:	d0000020 	adrp	x0, a000 <__mpa_abs_cmp+0x5c>
    4608:	91374000 	add	x0, x0, #0xdd0
    460c:	aa1303e5 	mov	x5, x19
    4610:	90000044 	adrp	x4, c000 <__func__.3927+0x294>
    4614:	52800023 	mov	w3, #0x1                   	// #1
    4618:	9103fc84 	add	x4, x4, #0xff
    461c:	52800022 	mov	w2, #0x1                   	// #1
    4620:	52803dc1 	mov	w1, #0x1ee                 	// #494
    4624:	91014000 	add	x0, x0, #0x50
    4628:	94000a1b 	bl	6e94 <trace_printf>
/home/zliu/ubuntu-optee-rpi3/RPi3_OPTEE_3.1/optee_os/lib/libutee/tee_user_mem.c:496
    462c:	f940ce93 	ldr	x19, [x20, #408]
/home/zliu/ubuntu-optee-rpi3/RPi3_OPTEE_3.1/optee_os/lib/libutee/tee_user_mem.c:503
    4630:	aa1303e0 	mov	x0, x19
    4634:	a94153f3 	ldp	x19, x20, [sp, #16]
    4638:	a8c27bfd 	ldp	x29, x30, [sp], #32
    463c:	d65f03c0 	ret
is_mem_coherent():
/home/zliu/ubuntu-optee-rpi3/RPi3_OPTEE_3.1/optee_os/lib/libutee/tee_user_mem.c:269
    4640:	b0000040 	adrp	x0, d000 <ta_props>
    4644:	f9407814 	ldr	x20, [x0, #240]
    4648:	b4ffff54 	cbz	x20, 4630 <tee_user_mem_check_heap+0x44>
/home/zliu/ubuntu-optee-rpi3/RPi3_OPTEE_3.1/optee_os/lib/libutee/tee_user_mem.c:270
    464c:	aa1403e0 	mov	x0, x20
    4650:	97fffed0 	bl	4190 <check_elem>
    4654:	35000160 	cbnz	w0, 4680 <tee_user_mem_check_heap+0x94>
/home/zliu/ubuntu-optee-rpi3/RPi3_OPTEE_3.1/optee_os/lib/libutee/tee_user_mem.c:271
    4658:	d0000023 	adrp	x3, a000 <__mpa_abs_cmp+0x5c>
    465c:	91374063 	add	x3, x3, #0xdd0
    4660:	9101a063 	add	x3, x3, #0x68
    4664:	90000041 	adrp	x1, c000 <__func__.3927+0x294>
    4668:	90000040 	adrp	x0, c000 <__func__.3927+0x294>
    466c:	91047021 	add	x1, x1, #0x11c
    4670:	910ce800 	add	x0, x0, #0x33a
    4674:	528021e2 	mov	w2, #0x10f                 	// #271
    4678:	94000022 	bl	4700 <_assert_log>
    467c:	94000032 	bl	4744 <_assert_break>
/home/zliu/ubuntu-optee-rpi3/RPi3_OPTEE_3.1/optee_os/lib/libutee/tee_user_mem.c:269
    4680:	f9400294 	ldr	x20, [x20]
    4684:	17fffff1 	b	4648 <tee_user_mem_check_heap+0x5c>

0000000000004688 <tee_user_mem_garbage>:
tee_user_mem_garbage():
/home/zliu/ubuntu-optee-rpi3/RPi3_OPTEE_3.1/optee_os/lib/libutee/tee_user_mem.c:538
    4688:	a9bd7bfd 	stp	x29, x30, [sp, #-48]!
tee_user_mem_status():
/home/zliu/ubuntu-optee-rpi3/RPi3_OPTEE_3.1/optee_os/lib/libutee/tee_user_mem.c:519
    468c:	b0000040 	adrp	x0, d000 <ta_props>
tee_user_mem_garbage():
/home/zliu/ubuntu-optee-rpi3/RPi3_OPTEE_3.1/optee_os/lib/libutee/tee_user_mem.c:538
    4690:	910003fd 	mov	x29, sp
    4694:	a90153f3 	stp	x19, x20, [sp, #16]
tee_user_mem_status():
/home/zliu/ubuntu-optee-rpi3/RPi3_OPTEE_3.1/optee_os/lib/libutee/tee_user_mem.c:520
    4698:	d0000033 	adrp	x19, a000 <__mpa_abs_cmp+0x5c>
tee_user_mem_garbage():
/home/zliu/ubuntu-optee-rpi3/RPi3_OPTEE_3.1/optee_os/lib/libutee/tee_user_mem.c:538
    469c:	a9025bf5 	stp	x21, x22, [sp, #32]
tee_user_mem_status():
/home/zliu/ubuntu-optee-rpi3/RPi3_OPTEE_3.1/optee_os/lib/libutee/tee_user_mem.c:520
    46a0:	91374273 	add	x19, x19, #0xdd0
/home/zliu/ubuntu-optee-rpi3/RPi3_OPTEE_3.1/optee_os/lib/libutee/tee_user_mem.c:519
    46a4:	f9407815 	ldr	x21, [x0, #240]
/home/zliu/ubuntu-optee-rpi3/RPi3_OPTEE_3.1/optee_os/lib/libutee/tee_user_mem.c:520
    46a8:	90000056 	adrp	x22, c000 <__func__.3927+0x294>
    46ac:	aa0003f4 	mov	x20, x0
    46b0:	9101dad6 	add	x22, x22, #0x76
    46b4:	9101e273 	add	x19, x19, #0x78
/home/zliu/ubuntu-optee-rpi3/RPi3_OPTEE_3.1/optee_os/lib/libutee/tee_user_mem.c:519
    46b8:	b50000f5 	cbnz	x21, 46d4 <tee_user_mem_garbage+0x4c>
tee_user_mem_garbage():
/home/zliu/ubuntu-optee-rpi3/RPi3_OPTEE_3.1/optee_os/lib/libutee/tee_user_mem.c:543
    46bc:	f9407a80 	ldr	x0, [x20, #240]
    46c0:	b50001a0 	cbnz	x0, 46f4 <tee_user_mem_garbage+0x6c>
/home/zliu/ubuntu-optee-rpi3/RPi3_OPTEE_3.1/optee_os/lib/libutee/tee_user_mem.c:545
    46c4:	a94153f3 	ldp	x19, x20, [sp, #16]
    46c8:	a9425bf5 	ldp	x21, x22, [sp, #32]
    46cc:	a8c37bfd 	ldp	x29, x30, [sp], #48
    46d0:	d65f03c0 	ret
tee_user_mem_status():
/home/zliu/ubuntu-optee-rpi3/RPi3_OPTEE_3.1/optee_os/lib/libutee/tee_user_mem.c:520
    46d4:	aa1503e4 	mov	x4, x21
    46d8:	aa1603e3 	mov	x3, x22
    46dc:	52804102 	mov	w2, #0x208                 	// #520
    46e0:	aa1303e1 	mov	x1, x19
    46e4:	52800020 	mov	w0, #0x1                   	// #1
    46e8:	97fffe94 	bl	4138 <print_buf>
/home/zliu/ubuntu-optee-rpi3/RPi3_OPTEE_3.1/optee_os/lib/libutee/tee_user_mem.c:519
    46ec:	f94002b5 	ldr	x21, [x21]
    46f0:	17fffff2 	b	46b8 <tee_user_mem_garbage+0x30>
tee_user_mem_garbage():
/home/zliu/ubuntu-optee-rpi3/RPi3_OPTEE_3.1/optee_os/lib/libutee/tee_user_mem.c:544
    46f4:	91008000 	add	x0, x0, #0x20
    46f8:	97ffff3a 	bl	43e0 <tee_user_mem_free>
    46fc:	17fffff0 	b	46bc <tee_user_mem_garbage+0x34>

0000000000004700 <_assert_log>:
_assert_log():
/home/zliu/ubuntu-optee-rpi3/RPi3_OPTEE_3.1/optee_os/lib/libutee/assert.c:40
    4700:	d10083ff 	sub	sp, sp, #0x20
/home/zliu/ubuntu-optee-rpi3/RPi3_OPTEE_3.1/optee_os/lib/libutee/assert.c:41
    4704:	2a0203e7 	mov	w7, w2
    4708:	aa0103e6 	mov	x6, x1
    470c:	aa0003e5 	mov	x5, x0
    4710:	52800022 	mov	w2, #0x1                   	// #1
    4714:	52800001 	mov	w1, #0x0                   	// #0
/home/zliu/ubuntu-optee-rpi3/RPi3_OPTEE_3.1/optee_os/lib/libutee/assert.c:40
    4718:	a9017bfd 	stp	x29, x30, [sp, #16]
    471c:	910043fd 	add	x29, sp, #0x10
/home/zliu/ubuntu-optee-rpi3/RPi3_OPTEE_3.1/optee_os/lib/libutee/assert.c:41
    4720:	d2800000 	mov	x0, #0x0                   	// #0
    4724:	90000044 	adrp	x4, c000 <__func__.3927+0x294>
    4728:	9104dc84 	add	x4, x4, #0x137
    472c:	f90003e3 	str	x3, [sp]
    4730:	52800023 	mov	w3, #0x1                   	// #1
    4734:	940009d8 	bl	6e94 <trace_printf>
/home/zliu/ubuntu-optee-rpi3/RPi3_OPTEE_3.1/optee_os/lib/libutee/assert.c:43
    4738:	a9417bfd 	ldp	x29, x30, [sp, #16]
    473c:	910083ff 	add	sp, sp, #0x20
    4740:	d65f03c0 	ret

0000000000004744 <_assert_break>:
_assert_break():
/home/zliu/ubuntu-optee-rpi3/RPi3_OPTEE_3.1/optee_os/lib/libutee/assert.c:46
    4744:	a9bf7bfd 	stp	x29, x30, [sp, #-16]!
/home/zliu/ubuntu-optee-rpi3/RPi3_OPTEE_3.1/optee_os/lib/libutee/assert.c:47
    4748:	d2bfffe0 	mov	x0, #0xffff0000            	// #4294901760
/home/zliu/ubuntu-optee-rpi3/RPi3_OPTEE_3.1/optee_os/lib/libutee/assert.c:46
    474c:	910003fd 	mov	x29, sp
/home/zliu/ubuntu-optee-rpi3/RPi3_OPTEE_3.1/optee_os/lib/libutee/assert.c:47
    4750:	97fffda1 	bl	3dd4 <utee_panic>
    4754:	14000000 	b	4754 <_assert_break+0x10>

0000000000004758 <_TEE_MathAPI_Init>:
_TEE_MathAPI_Init():
/home/zliu/ubuntu-optee-rpi3/RPi3_OPTEE_3.1/optee_os/lib/libutee/tee_api_arith.c:72
    4758:	a9bf7bfd 	stp	x29, x30, [sp, #-16]!
/home/zliu/ubuntu-optee-rpi3/RPi3_OPTEE_3.1/optee_os/lib/libutee/tee_api_arith.c:73
    475c:	52810002 	mov	w2, #0x800                 	// #2048
    4760:	d2836801 	mov	x1, #0x1b40                	// #6976
    4764:	b0000040 	adrp	x0, d000 <ta_props>
/home/zliu/ubuntu-optee-rpi3/RPi3_OPTEE_3.1/optee_os/lib/libutee/tee_api_arith.c:72
    4768:	910003fd 	mov	x29, sp
/home/zliu/ubuntu-optee-rpi3/RPi3_OPTEE_3.1/optee_os/lib/libutee/tee_api_arith.c:73
    476c:	9106c000 	add	x0, x0, #0x1b0
    4770:	94001147 	bl	8c8c <mpa_init_scratch_mem>
/home/zliu/ubuntu-optee-rpi3/RPi3_OPTEE_3.1/optee_os/lib/libutee/tee_api_arith.c:75
    4774:	90000040 	adrp	x0, c000 <__func__.3927+0x294>
/home/zliu/ubuntu-optee-rpi3/RPi3_OPTEE_3.1/optee_os/lib/libutee/tee_api_arith.c:76
    4778:	a8c17bfd 	ldp	x29, x30, [sp], #16
/home/zliu/ubuntu-optee-rpi3/RPi3_OPTEE_3.1/optee_os/lib/libutee/tee_api_arith.c:75
    477c:	f9447c00 	ldr	x0, [x0, #2296]
    4780:	14001275 	b	9154 <mpa_set_random_generator>

0000000000004784 <TEE_BigIntInit>:
TEE_BigIntInit():
/home/zliu/ubuntu-optee-rpi3/RPi3_OPTEE_3.1/optee_os/lib/libutee/tee_api_arith.c:83
    4784:	140016eb 	b	a330 <mpa_init_static>

0000000000004788 <TEE_BigIntInitFMM>:
TEE_BigIntInitFMM():
/home/zliu/ubuntu-optee-rpi3/RPi3_OPTEE_3.1/optee_os/lib/libutee/tee_api_arith.c:93
    4788:	531e7421 	lsl	w1, w1, #2
    478c:	51002021 	sub	w1, w1, #0x8
    4790:	d3427c21 	ubfx	x1, x1, #2, #30
/home/zliu/ubuntu-optee-rpi3/RPi3_OPTEE_3.1/optee_os/lib/libutee/tee_api_arith.c:94
    4794:	29007c01 	stp	w1, wzr, [x0]
    4798:	d65f03c0 	ret

000000000000479c <TEE_BigIntInitFMMContext>:
TEE_BigIntInitFMMContext():
/home/zliu/ubuntu-optee-rpi3/RPi3_OPTEE_3.1/optee_os/lib/libutee/tee_api_arith.c:102
    479c:	a9be7bfd 	stp	x29, x30, [sp, #-32]!
    47a0:	910003fd 	mov	x29, sp
    47a4:	a90153f3 	stp	x19, x20, [sp, #16]
    47a8:	aa0003f3 	mov	x19, x0
    47ac:	aa0203f4 	mov	x20, x2
/home/zliu/ubuntu-optee-rpi3/RPi3_OPTEE_3.1/optee_os/lib/libutee/tee_api_arith.c:106
    47b0:	940016e7 	bl	a34c <mpa_init_static_fmm_context>
/home/zliu/ubuntu-optee-rpi3/RPi3_OPTEE_3.1/optee_os/lib/libutee/tee_api_arith.c:107
    47b4:	91004263 	add	x3, x19, #0x10
    47b8:	aa1403e0 	mov	x0, x20
    47bc:	a9400a61 	ldp	x1, x2, [x19]
    47c0:	b0000044 	adrp	x4, d000 <ta_props>
/home/zliu/ubuntu-optee-rpi3/RPi3_OPTEE_3.1/optee_os/lib/libutee/tee_api_arith.c:110
    47c4:	a94153f3 	ldp	x19, x20, [sp, #16]
/home/zliu/ubuntu-optee-rpi3/RPi3_OPTEE_3.1/optee_os/lib/libutee/tee_api_arith.c:107
    47c8:	9106c084 	add	x4, x4, #0x1b0
/home/zliu/ubuntu-optee-rpi3/RPi3_OPTEE_3.1/optee_os/lib/libutee/tee_api_arith.c:110
    47cc:	a8c27bfd 	ldp	x29, x30, [sp], #32
/home/zliu/ubuntu-optee-rpi3/RPi3_OPTEE_3.1/optee_os/lib/libutee/tee_api_arith.c:107
    47d0:	14000b38 	b	74b0 <mpa_compute_fmm_context>

00000000000047d4 <TEE_BigIntFMMSizeInU32>:
TEE_BigIntFMMSizeInU32():
/home/zliu/ubuntu-optee-rpi3/RPi3_OPTEE_3.1/optee_os/lib/libutee/tee_api_arith.c:121
    47d4:	11007c00 	add	w0, w0, #0x1f
    47d8:	53057c00 	lsr	w0, w0, #5
/home/zliu/ubuntu-optee-rpi3/RPi3_OPTEE_3.1/optee_os/lib/libutee/tee_api_arith.c:122
    47dc:	11000c00 	add	w0, w0, #0x3
    47e0:	d65f03c0 	ret

00000000000047e4 <TEE_BigIntFMMContextSizeInU32>:
TEE_BigIntFMMContextSizeInU32():
/home/zliu/ubuntu-optee-rpi3/RPi3_OPTEE_3.1/optee_os/lib/libutee/tee_api_arith.c:129
    47e4:	11007c00 	add	w0, w0, #0x1f
    47e8:	53057c00 	lsr	w0, w0, #5
    47ec:	11001c00 	add	w0, w0, #0x7
/home/zliu/ubuntu-optee-rpi3/RPi3_OPTEE_3.1/optee_os/lib/libutee/tee_api_arith.c:130
    47f0:	531f7800 	lsl	w0, w0, #1
    47f4:	d65f03c0 	ret

00000000000047f8 <TEE_BigIntConvertFromOctetString>:
TEE_BigIntConvertFromOctetString():
/home/zliu/ubuntu-optee-rpi3/RPi3_OPTEE_3.1/optee_os/lib/libutee/tee_api_arith.c:143
    47f8:	a9bf7bfd 	stp	x29, x30, [sp, #-16]!
/home/zliu/ubuntu-optee-rpi3/RPi3_OPTEE_3.1/optee_os/lib/libutee/tee_api_arith.c:148
    47fc:	531f7c63 	lsr	w3, w3, #31
    4800:	2a0203e2 	mov	w2, w2
/home/zliu/ubuntu-optee-rpi3/RPi3_OPTEE_3.1/optee_os/lib/libutee/tee_api_arith.c:143
    4804:	910003fd 	mov	x29, sp
/home/zliu/ubuntu-optee-rpi3/RPi3_OPTEE_3.1/optee_os/lib/libutee/tee_api_arith.c:148
    4808:	94001819 	bl	a86c <mpa_set_oct_str>
/home/zliu/ubuntu-optee-rpi3/RPi3_OPTEE_3.1/optee_os/lib/libutee/tee_api_arith.c:149
    480c:	7100001f 	cmp	w0, #0x0
/home/zliu/ubuntu-optee-rpi3/RPi3_OPTEE_3.1/optee_os/lib/libutee/tee_api_arith.c:158
    4810:	a8c17bfd 	ldp	x29, x30, [sp], #16
    4814:	1299fe00 	mov	w0, #0xffff300f            	// #-53233
    4818:	1a9f1000 	csel	w0, w0, wzr, ne  // ne = any
    481c:	d65f03c0 	ret

0000000000004820 <TEE_BigIntConvertToOctetString>:
TEE_BigIntConvertToOctetString():
/home/zliu/ubuntu-optee-rpi3/RPi3_OPTEE_3.1/optee_os/lib/libutee/tee_api_arith.c:166
    4820:	a9bd7bfd 	stp	x29, x30, [sp, #-48]!
    4824:	910003fd 	mov	x29, sp
    4828:	f9000bf3 	str	x19, [sp, #16]
    482c:	aa0103f3 	mov	x19, x1
/home/zliu/ubuntu-optee-rpi3/RPi3_OPTEE_3.1/optee_os/lib/libutee/tee_api_arith.c:168
    4830:	9100c3a1 	add	x1, x29, #0x30
    4834:	b9400263 	ldr	w3, [x19]
    4838:	f81f8c23 	str	x3, [x1, #-8]!
/home/zliu/ubuntu-optee-rpi3/RPi3_OPTEE_3.1/optee_os/lib/libutee/tee_api_arith.c:171
    483c:	94001850 	bl	a97c <mpa_get_oct_str>
/home/zliu/ubuntu-optee-rpi3/RPi3_OPTEE_3.1/optee_os/lib/libutee/tee_api_arith.c:172
    4840:	7100001f 	cmp	w0, #0x0
/home/zliu/ubuntu-optee-rpi3/RPi3_OPTEE_3.1/optee_os/lib/libutee/tee_api_arith.c:176
    4844:	f94017a0 	ldr	x0, [x29, #40]
    4848:	b9000260 	str	w0, [x19]
/home/zliu/ubuntu-optee-rpi3/RPi3_OPTEE_3.1/optee_os/lib/libutee/tee_api_arith.c:183
    484c:	f9400bf3 	ldr	x19, [sp, #16]
    4850:	129ffde0 	mov	w0, #0xffff0010            	// #-65520
    4854:	1a9f1000 	csel	w0, w0, wzr, ne  // ne = any
    4858:	a8c37bfd 	ldp	x29, x30, [sp], #48
    485c:	d65f03c0 	ret

0000000000004860 <TEE_BigIntConvertFromS32>:
TEE_BigIntConvertFromS32():
/home/zliu/ubuntu-optee-rpi3/RPi3_OPTEE_3.1/optee_os/lib/libutee/tee_api_arith.c:193
    4860:	14000c70 	b	7a20 <mpa_set_S32>

0000000000004864 <TEE_BigIntConvertToS32>:
TEE_BigIntConvertToS32():
/home/zliu/ubuntu-optee-rpi3/RPi3_OPTEE_3.1/optee_os/lib/libutee/tee_api_arith.c:203
    4864:	a9bf7bfd 	stp	x29, x30, [sp, #-16]!
    4868:	910003fd 	mov	x29, sp
/home/zliu/ubuntu-optee-rpi3/RPi3_OPTEE_3.1/optee_os/lib/libutee/tee_api_arith.c:207
    486c:	94000c78 	bl	7a4c <mpa_get_S32>
/home/zliu/ubuntu-optee-rpi3/RPi3_OPTEE_3.1/optee_os/lib/libutee/tee_api_arith.c:208
    4870:	7100001f 	cmp	w0, #0x0
/home/zliu/ubuntu-optee-rpi3/RPi3_OPTEE_3.1/optee_os/lib/libutee/tee_api_arith.c:217
    4874:	a8c17bfd 	ldp	x29, x30, [sp], #16
    4878:	1299fe00 	mov	w0, #0xffff300f            	// #-53233
    487c:	1a9f1000 	csel	w0, w0, wzr, ne  // ne = any
    4880:	d65f03c0 	ret

0000000000004884 <TEE_BigIntCmp>:
TEE_BigIntCmp():
/home/zliu/ubuntu-optee-rpi3/RPi3_OPTEE_3.1/optee_os/lib/libutee/tee_api_arith.c:231
    4884:	14001601 	b	a088 <mpa_cmp>

0000000000004888 <TEE_BigIntCmpS32>:
TEE_BigIntCmpS32():
/home/zliu/ubuntu-optee-rpi3/RPi3_OPTEE_3.1/optee_os/lib/libutee/tee_api_arith.c:241
    4888:	1400161a 	b	a0f0 <mpa_cmp_short>

000000000000488c <TEE_BigIntShiftRight>:
TEE_BigIntShiftRight():
/home/zliu/ubuntu-optee-rpi3/RPi3_OPTEE_3.1/optee_os/lib/libutee/tee_api_arith.c:253
    488c:	14001338 	b	956c <mpa_shift_right>

0000000000004890 <TEE_BigIntGetBit>:
TEE_BigIntGetBit():
/home/zliu/ubuntu-optee-rpi3/RPi3_OPTEE_3.1/optee_os/lib/libutee/tee_api_arith.c:260
    4890:	a9bf7bfd 	stp	x29, x30, [sp, #-16]!
    4894:	910003fd 	mov	x29, sp
/home/zliu/ubuntu-optee-rpi3/RPi3_OPTEE_3.1/optee_os/lib/libutee/tee_api_arith.c:263
    4898:	94000a5d 	bl	720c <mpa_get_bit>
    489c:	7100001f 	cmp	w0, #0x0
/home/zliu/ubuntu-optee-rpi3/RPi3_OPTEE_3.1/optee_os/lib/libutee/tee_api_arith.c:264
    48a0:	1a9f07e0 	cset	w0, ne  // ne = any
    48a4:	a8c17bfd 	ldp	x29, x30, [sp], #16
    48a8:	d65f03c0 	ret

00000000000048ac <TEE_BigIntGetBitCount>:
TEE_BigIntGetBitCount():
/home/zliu/ubuntu-optee-rpi3/RPi3_OPTEE_3.1/optee_os/lib/libutee/tee_api_arith.c:270
    48ac:	a9bf7bfd 	stp	x29, x30, [sp, #-16]!
    48b0:	910003fd 	mov	x29, sp
/home/zliu/ubuntu-optee-rpi3/RPi3_OPTEE_3.1/optee_os/lib/libutee/tee_api_arith.c:273
    48b4:	94000a45 	bl	71c8 <mpa_highest_bit_index>
/home/zliu/ubuntu-optee-rpi3/RPi3_OPTEE_3.1/optee_os/lib/libutee/tee_api_arith.c:274
    48b8:	11000400 	add	w0, w0, #0x1
    48bc:	a8c17bfd 	ldp	x29, x30, [sp], #16
    48c0:	d65f03c0 	ret

00000000000048c4 <TEE_BigIntAdd>:
TEE_BigIntAdd():
/home/zliu/ubuntu-optee-rpi3/RPi3_OPTEE_3.1/optee_os/lib/libutee/tee_api_arith.c:290
    48c4:	b0000043 	adrp	x3, d000 <ta_props>
    48c8:	9106c063 	add	x3, x3, #0x1b0
    48cc:	14001442 	b	99d4 <mpa_add>

00000000000048d0 <TEE_BigIntSub>:
TEE_BigIntSub():
/home/zliu/ubuntu-optee-rpi3/RPi3_OPTEE_3.1/optee_os/lib/libutee/tee_api_arith.c:303
    48d0:	b0000043 	adrp	x3, d000 <ta_props>
    48d4:	9106c063 	add	x3, x3, #0x1b0
    48d8:	140014a4 	b	9b68 <mpa_sub>

00000000000048dc <TEE_BigIntNeg>:
TEE_BigIntNeg():
/home/zliu/ubuntu-optee-rpi3/RPi3_OPTEE_3.1/optee_os/lib/libutee/tee_api_arith.c:314
    48dc:	1400150a 	b	9d04 <mpa_neg>

00000000000048e0 <TEE_BigIntMul>:
TEE_BigIntMul():
/home/zliu/ubuntu-optee-rpi3/RPi3_OPTEE_3.1/optee_os/lib/libutee/tee_api_arith.c:327
    48e0:	b0000043 	adrp	x3, d000 <ta_props>
    48e4:	9106c063 	add	x3, x3, #0x1b0
    48e8:	140011b1 	b	8fac <mpa_mul>

00000000000048ec <TEE_BigIntSquare>:
TEE_BigIntSquare():
/home/zliu/ubuntu-optee-rpi3/RPi3_OPTEE_3.1/optee_os/lib/libutee/tee_api_arith.c:338
    48ec:	b0000043 	adrp	x3, d000 <ta_props>
    48f0:	aa0103e2 	mov	x2, x1
    48f4:	9106c063 	add	x3, x3, #0x1b0
    48f8:	140011ad 	b	8fac <mpa_mul>

00000000000048fc <TEE_BigIntDiv>:
TEE_BigIntDiv():
/home/zliu/ubuntu-optee-rpi3/RPi3_OPTEE_3.1/optee_os/lib/libutee/tee_api_arith.c:346
    48fc:	a9bd7bfd 	stp	x29, x30, [sp, #-48]!
    4900:	910003fd 	mov	x29, sp
    4904:	a90153f3 	stp	x19, x20, [sp, #16]
    4908:	aa0003f4 	mov	x20, x0
    490c:	a9025bf5 	stp	x21, x22, [sp, #32]
    4910:	aa0303f3 	mov	x19, x3
    4914:	aa0103f5 	mov	x21, x1
    4918:	aa0203f6 	mov	x22, x2
TEE_BigIntCmpS32():
/home/zliu/ubuntu-optee-rpi3/RPi3_OPTEE_3.1/optee_os/lib/libutee/tee_api_arith.c:241
    491c:	52800001 	mov	w1, #0x0                   	// #0
    4920:	aa0303e0 	mov	x0, x3
    4924:	940015f3 	bl	a0f0 <mpa_cmp_short>
TEE_BigIntDiv():
/home/zliu/ubuntu-optee-rpi3/RPi3_OPTEE_3.1/optee_os/lib/libutee/tee_api_arith.c:352
    4928:	35000080 	cbnz	w0, 4938 <TEE_BigIntDiv+0x3c>
/home/zliu/ubuntu-optee-rpi3/RPi3_OPTEE_3.1/optee_os/lib/libutee/tee_api_arith.c:353
    492c:	90000040 	adrp	x0, c000 <__func__.3927+0x294>
    4930:	9105a400 	add	x0, x0, #0x169
    4934:	9400012e 	bl	4dec <TEE_BigInt_Panic>
/home/zliu/ubuntu-optee-rpi3/RPi3_OPTEE_3.1/optee_os/lib/libutee/tee_api_arith.c:355
    4938:	aa1303e3 	mov	x3, x19
    493c:	aa1603e2 	mov	x2, x22
    4940:	aa1503e1 	mov	x1, x21
    4944:	aa1403e0 	mov	x0, x20
/home/zliu/ubuntu-optee-rpi3/RPi3_OPTEE_3.1/optee_os/lib/libutee/tee_api_arith.c:356
    4948:	a9425bf5 	ldp	x21, x22, [sp, #32]
/home/zliu/ubuntu-optee-rpi3/RPi3_OPTEE_3.1/optee_os/lib/libutee/tee_api_arith.c:355
    494c:	b0000044 	adrp	x4, d000 <ta_props>
/home/zliu/ubuntu-optee-rpi3/RPi3_OPTEE_3.1/optee_os/lib/libutee/tee_api_arith.c:356
    4950:	a94153f3 	ldp	x19, x20, [sp, #16]
/home/zliu/ubuntu-optee-rpi3/RPi3_OPTEE_3.1/optee_os/lib/libutee/tee_api_arith.c:355
    4954:	9106c084 	add	x4, x4, #0x1b0
/home/zliu/ubuntu-optee-rpi3/RPi3_OPTEE_3.1/optee_os/lib/libutee/tee_api_arith.c:356
    4958:	a8c37bfd 	ldp	x29, x30, [sp], #48
/home/zliu/ubuntu-optee-rpi3/RPi3_OPTEE_3.1/optee_os/lib/libutee/tee_api_arith.c:355
    495c:	14000e6c 	b	830c <mpa_div>

0000000000004960 <TEE_BigIntMod>:
TEE_BigIntMod():
/home/zliu/ubuntu-optee-rpi3/RPi3_OPTEE_3.1/optee_os/lib/libutee/tee_api_arith.c:367
    4960:	a9bd7bfd 	stp	x29, x30, [sp, #-48]!
    4964:	910003fd 	mov	x29, sp
    4968:	a9025bf5 	stp	x21, x22, [sp, #32]
    496c:	aa0103f6 	mov	x22, x1
    4970:	a90153f3 	stp	x19, x20, [sp, #16]
    4974:	aa0203f5 	mov	x21, x2
    4978:	aa0003f4 	mov	x20, x0
TEE_BigIntCmpS32():
/home/zliu/ubuntu-optee-rpi3/RPi3_OPTEE_3.1/optee_os/lib/libutee/tee_api_arith.c:241
    497c:	52800041 	mov	w1, #0x2                   	// #2
    4980:	aa0203e0 	mov	x0, x2
    4984:	940015db 	bl	a0f0 <mpa_cmp_short>
TEE_BigIntMod():
/home/zliu/ubuntu-optee-rpi3/RPi3_OPTEE_3.1/optee_os/lib/libutee/tee_api_arith.c:372
    4988:	36f80080 	tbz	w0, #31, 4998 <TEE_BigIntMod+0x38>
/home/zliu/ubuntu-optee-rpi3/RPi3_OPTEE_3.1/optee_os/lib/libutee/tee_api_arith.c:373
    498c:	90000040 	adrp	x0, c000 <__func__.3927+0x294>
    4990:	9105e400 	add	x0, x0, #0x179
    4994:	94000116 	bl	4dec <TEE_BigInt_Panic>
/home/zliu/ubuntu-optee-rpi3/RPi3_OPTEE_3.1/optee_os/lib/libutee/tee_api_arith.c:375
    4998:	b0000053 	adrp	x19, d000 <ta_props>
    499c:	9106c273 	add	x19, x19, #0x1b0
    49a0:	aa1303e3 	mov	x3, x19
    49a4:	aa1503e2 	mov	x2, x21
    49a8:	aa1603e1 	mov	x1, x22
    49ac:	aa1403e0 	mov	x0, x20
    49b0:	94001850 	bl	aaf0 <mpa_mod>
/home/zliu/ubuntu-optee-rpi3/RPi3_OPTEE_3.1/optee_os/lib/libutee/tee_api_arith.c:377
    49b4:	52800001 	mov	w1, #0x0                   	// #0
    49b8:	aa1403e0 	mov	x0, x20
    49bc:	940015cd 	bl	a0f0 <mpa_cmp_short>
    49c0:	36f80120 	tbz	w0, #31, 49e4 <TEE_BigIntMod+0x84>
/home/zliu/ubuntu-optee-rpi3/RPi3_OPTEE_3.1/optee_os/lib/libutee/tee_api_arith.c:378
    49c4:	aa1303e3 	mov	x3, x19
    49c8:	aa1503e2 	mov	x2, x21
    49cc:	aa1403e1 	mov	x1, x20
    49d0:	aa1403e0 	mov	x0, x20
/home/zliu/ubuntu-optee-rpi3/RPi3_OPTEE_3.1/optee_os/lib/libutee/tee_api_arith.c:379
    49d4:	a9425bf5 	ldp	x21, x22, [sp, #32]
    49d8:	a94153f3 	ldp	x19, x20, [sp, #16]
    49dc:	a8c37bfd 	ldp	x29, x30, [sp], #48
/home/zliu/ubuntu-optee-rpi3/RPi3_OPTEE_3.1/optee_os/lib/libutee/tee_api_arith.c:378
    49e0:	140013fd 	b	99d4 <mpa_add>
/home/zliu/ubuntu-optee-rpi3/RPi3_OPTEE_3.1/optee_os/lib/libutee/tee_api_arith.c:379
    49e4:	a94153f3 	ldp	x19, x20, [sp, #16]
    49e8:	a9425bf5 	ldp	x21, x22, [sp, #32]
    49ec:	a8c37bfd 	ldp	x29, x30, [sp], #48
    49f0:	d65f03c0 	ret

00000000000049f4 <TEE_BigIntAddMod>:
TEE_BigIntAddMod():
/home/zliu/ubuntu-optee-rpi3/RPi3_OPTEE_3.1/optee_os/lib/libutee/tee_api_arith.c:386
    49f4:	a9bc7bfd 	stp	x29, x30, [sp, #-64]!
    49f8:	910003fd 	mov	x29, sp
    49fc:	a9025bf5 	stp	x21, x22, [sp, #32]
    4a00:	aa0103f6 	mov	x22, x1
    4a04:	a90153f3 	stp	x19, x20, [sp, #16]
    4a08:	aa0303f5 	mov	x21, x3
    4a0c:	f9001bf7 	str	x23, [sp, #48]
    4a10:	aa0003f4 	mov	x20, x0
TEE_BigIntCmpS32():
/home/zliu/ubuntu-optee-rpi3/RPi3_OPTEE_3.1/optee_os/lib/libutee/tee_api_arith.c:241
    4a14:	52800041 	mov	w1, #0x2                   	// #2
    4a18:	aa0303e0 	mov	x0, x3
TEE_BigIntAddMod():
/home/zliu/ubuntu-optee-rpi3/RPi3_OPTEE_3.1/optee_os/lib/libutee/tee_api_arith.c:386
    4a1c:	aa0203f7 	mov	x23, x2
TEE_BigIntCmpS32():
/home/zliu/ubuntu-optee-rpi3/RPi3_OPTEE_3.1/optee_os/lib/libutee/tee_api_arith.c:241
    4a20:	940015b4 	bl	a0f0 <mpa_cmp_short>
TEE_BigIntAddMod():
/home/zliu/ubuntu-optee-rpi3/RPi3_OPTEE_3.1/optee_os/lib/libutee/tee_api_arith.c:392
    4a24:	36f80080 	tbz	w0, #31, 4a34 <TEE_BigIntAddMod+0x40>
/home/zliu/ubuntu-optee-rpi3/RPi3_OPTEE_3.1/optee_os/lib/libutee/tee_api_arith.c:393
    4a28:	90000040 	adrp	x0, c000 <__func__.3927+0x294>
    4a2c:	9105e400 	add	x0, x0, #0x179
    4a30:	940000ef 	bl	4dec <TEE_BigInt_Panic>
/home/zliu/ubuntu-optee-rpi3/RPi3_OPTEE_3.1/optee_os/lib/libutee/tee_api_arith.c:395
    4a34:	b0000053 	adrp	x19, d000 <ta_props>
    4a38:	9106c273 	add	x19, x19, #0x1b0
    4a3c:	aa1303e4 	mov	x4, x19
    4a40:	aa1503e3 	mov	x3, x21
    4a44:	aa1703e2 	mov	x2, x23
    4a48:	aa1603e1 	mov	x1, x22
    4a4c:	aa1403e0 	mov	x0, x20
    4a50:	9400182e 	bl	ab08 <mpa_add_mod>
/home/zliu/ubuntu-optee-rpi3/RPi3_OPTEE_3.1/optee_os/lib/libutee/tee_api_arith.c:396
    4a54:	52800001 	mov	w1, #0x0                   	// #0
    4a58:	aa1403e0 	mov	x0, x20
    4a5c:	940015a5 	bl	a0f0 <mpa_cmp_short>
    4a60:	36f80140 	tbz	w0, #31, 4a88 <TEE_BigIntAddMod+0x94>
/home/zliu/ubuntu-optee-rpi3/RPi3_OPTEE_3.1/optee_os/lib/libutee/tee_api_arith.c:397
    4a64:	aa1303e3 	mov	x3, x19
    4a68:	aa1503e2 	mov	x2, x21
    4a6c:	aa1403e1 	mov	x1, x20
    4a70:	aa1403e0 	mov	x0, x20
/home/zliu/ubuntu-optee-rpi3/RPi3_OPTEE_3.1/optee_os/lib/libutee/tee_api_arith.c:398
    4a74:	a9425bf5 	ldp	x21, x22, [sp, #32]
    4a78:	a94153f3 	ldp	x19, x20, [sp, #16]
    4a7c:	f9401bf7 	ldr	x23, [sp, #48]
    4a80:	a8c47bfd 	ldp	x29, x30, [sp], #64
/home/zliu/ubuntu-optee-rpi3/RPi3_OPTEE_3.1/optee_os/lib/libutee/tee_api_arith.c:397
    4a84:	140013d4 	b	99d4 <mpa_add>
/home/zliu/ubuntu-optee-rpi3/RPi3_OPTEE_3.1/optee_os/lib/libutee/tee_api_arith.c:398
    4a88:	a94153f3 	ldp	x19, x20, [sp, #16]
    4a8c:	a9425bf5 	ldp	x21, x22, [sp, #32]
    4a90:	f9401bf7 	ldr	x23, [sp, #48]
    4a94:	a8c47bfd 	ldp	x29, x30, [sp], #64
    4a98:	d65f03c0 	ret

0000000000004a9c <TEE_BigIntSubMod>:
TEE_BigIntSubMod():
/home/zliu/ubuntu-optee-rpi3/RPi3_OPTEE_3.1/optee_os/lib/libutee/tee_api_arith.c:405
    4a9c:	a9bc7bfd 	stp	x29, x30, [sp, #-64]!
    4aa0:	910003fd 	mov	x29, sp
    4aa4:	a9025bf5 	stp	x21, x22, [sp, #32]
    4aa8:	aa0103f6 	mov	x22, x1
    4aac:	a90153f3 	stp	x19, x20, [sp, #16]
    4ab0:	aa0303f5 	mov	x21, x3
    4ab4:	f9001bf7 	str	x23, [sp, #48]
    4ab8:	aa0003f4 	mov	x20, x0
TEE_BigIntCmpS32():
/home/zliu/ubuntu-optee-rpi3/RPi3_OPTEE_3.1/optee_os/lib/libutee/tee_api_arith.c:241
    4abc:	52800041 	mov	w1, #0x2                   	// #2
    4ac0:	aa0303e0 	mov	x0, x3
TEE_BigIntSubMod():
/home/zliu/ubuntu-optee-rpi3/RPi3_OPTEE_3.1/optee_os/lib/libutee/tee_api_arith.c:405
    4ac4:	aa0203f7 	mov	x23, x2
TEE_BigIntCmpS32():
/home/zliu/ubuntu-optee-rpi3/RPi3_OPTEE_3.1/optee_os/lib/libutee/tee_api_arith.c:241
    4ac8:	9400158a 	bl	a0f0 <mpa_cmp_short>
TEE_BigIntSubMod():
/home/zliu/ubuntu-optee-rpi3/RPi3_OPTEE_3.1/optee_os/lib/libutee/tee_api_arith.c:411
    4acc:	36f80080 	tbz	w0, #31, 4adc <TEE_BigIntSubMod+0x40>
/home/zliu/ubuntu-optee-rpi3/RPi3_OPTEE_3.1/optee_os/lib/libutee/tee_api_arith.c:412
    4ad0:	90000040 	adrp	x0, c000 <__func__.3927+0x294>
    4ad4:	9105e400 	add	x0, x0, #0x179
    4ad8:	940000c5 	bl	4dec <TEE_BigInt_Panic>
/home/zliu/ubuntu-optee-rpi3/RPi3_OPTEE_3.1/optee_os/lib/libutee/tee_api_arith.c:414
    4adc:	b0000053 	adrp	x19, d000 <ta_props>
    4ae0:	9106c273 	add	x19, x19, #0x1b0
    4ae4:	aa1303e4 	mov	x4, x19
    4ae8:	aa1503e3 	mov	x3, x21
    4aec:	aa1703e2 	mov	x2, x23
    4af0:	aa1603e1 	mov	x1, x22
    4af4:	aa1403e0 	mov	x0, x20
    4af8:	94001825 	bl	ab8c <mpa_sub_mod>
/home/zliu/ubuntu-optee-rpi3/RPi3_OPTEE_3.1/optee_os/lib/libutee/tee_api_arith.c:415
    4afc:	52800001 	mov	w1, #0x0                   	// #0
    4b00:	aa1403e0 	mov	x0, x20
    4b04:	9400157b 	bl	a0f0 <mpa_cmp_short>
    4b08:	36f80140 	tbz	w0, #31, 4b30 <TEE_BigIntSubMod+0x94>
/home/zliu/ubuntu-optee-rpi3/RPi3_OPTEE_3.1/optee_os/lib/libutee/tee_api_arith.c:416
    4b0c:	aa1303e3 	mov	x3, x19
    4b10:	aa1503e2 	mov	x2, x21
    4b14:	aa1403e1 	mov	x1, x20
    4b18:	aa1403e0 	mov	x0, x20
/home/zliu/ubuntu-optee-rpi3/RPi3_OPTEE_3.1/optee_os/lib/libutee/tee_api_arith.c:417
    4b1c:	a9425bf5 	ldp	x21, x22, [sp, #32]
    4b20:	a94153f3 	ldp	x19, x20, [sp, #16]
    4b24:	f9401bf7 	ldr	x23, [sp, #48]
    4b28:	a8c47bfd 	ldp	x29, x30, [sp], #64
/home/zliu/ubuntu-optee-rpi3/RPi3_OPTEE_3.1/optee_os/lib/libutee/tee_api_arith.c:416
    4b2c:	140013aa 	b	99d4 <mpa_add>
/home/zliu/ubuntu-optee-rpi3/RPi3_OPTEE_3.1/optee_os/lib/libutee/tee_api_arith.c:417
    4b30:	a94153f3 	ldp	x19, x20, [sp, #16]
    4b34:	a9425bf5 	ldp	x21, x22, [sp, #32]
    4b38:	f9401bf7 	ldr	x23, [sp, #48]
    4b3c:	a8c47bfd 	ldp	x29, x30, [sp], #64
    4b40:	d65f03c0 	ret

0000000000004b44 <TEE_BigIntMulMod>:
TEE_BigIntMulMod():
/home/zliu/ubuntu-optee-rpi3/RPi3_OPTEE_3.1/optee_os/lib/libutee/tee_api_arith.c:424
    4b44:	a9ba7bfd 	stp	x29, x30, [sp, #-96]!
    4b48:	910003fd 	mov	x29, sp
    4b4c:	a90363f7 	stp	x23, x24, [sp, #48]
    4b50:	aa0003f7 	mov	x23, x0
    4b54:	a90153f3 	stp	x19, x20, [sp, #16]
    4b58:	aa0103f8 	mov	x24, x1
    4b5c:	f90023f9 	str	x25, [sp, #64]
    4b60:	aa0303f4 	mov	x20, x3
    4b64:	a9025bf5 	stp	x21, x22, [sp, #32]
TEE_BigIntCmpS32():
/home/zliu/ubuntu-optee-rpi3/RPi3_OPTEE_3.1/optee_os/lib/libutee/tee_api_arith.c:241
    4b68:	52800041 	mov	w1, #0x2                   	// #2
    4b6c:	aa0303e0 	mov	x0, x3
TEE_BigIntMulMod():
/home/zliu/ubuntu-optee-rpi3/RPi3_OPTEE_3.1/optee_os/lib/libutee/tee_api_arith.c:424
    4b70:	aa0203f9 	mov	x25, x2
TEE_BigIntCmpS32():
/home/zliu/ubuntu-optee-rpi3/RPi3_OPTEE_3.1/optee_os/lib/libutee/tee_api_arith.c:241
    4b74:	9400155f 	bl	a0f0 <mpa_cmp_short>
TEE_BigIntMulMod():
/home/zliu/ubuntu-optee-rpi3/RPi3_OPTEE_3.1/optee_os/lib/libutee/tee_api_arith.c:431
    4b78:	36f80080 	tbz	w0, #31, 4b88 <TEE_BigIntMulMod+0x44>
/home/zliu/ubuntu-optee-rpi3/RPi3_OPTEE_3.1/optee_os/lib/libutee/tee_api_arith.c:432
    4b7c:	90000040 	adrp	x0, c000 <__func__.3927+0x294>
    4b80:	9105e400 	add	x0, x0, #0x179
    4b84:	9400009a 	bl	4dec <TEE_BigInt_Panic>
/home/zliu/ubuntu-optee-rpi3/RPi3_OPTEE_3.1/optee_os/lib/libutee/tee_api_arith.c:442
    4b88:	b0000053 	adrp	x19, d000 <ta_props>
    4b8c:	910163b6 	add	x22, x29, #0x58
    4b90:	9106c275 	add	x21, x19, #0x1b0
    4b94:	aa1603e0 	mov	x0, x22
    4b98:	aa1503e1 	mov	x1, x21
    4b9c:	9400107c 	bl	8d8c <mpa_alloc_static_temp_var>
/home/zliu/ubuntu-optee-rpi3/RPi3_OPTEE_3.1/optee_os/lib/libutee/tee_api_arith.c:443
    4ba0:	f9402fa0 	ldr	x0, [x29, #88]
    4ba4:	aa1803e1 	mov	x1, x24
    4ba8:	aa1503e4 	mov	x4, x21
    4bac:	aa1403e3 	mov	x3, x20
    4bb0:	aa1903e2 	mov	x2, x25
    4bb4:	94001817 	bl	ac10 <mpa_mul_mod>
/home/zliu/ubuntu-optee-rpi3/RPi3_OPTEE_3.1/optee_os/lib/libutee/tee_api_arith.c:444
    4bb8:	f9402fa0 	ldr	x0, [x29, #88]
    4bbc:	52800001 	mov	w1, #0x0                   	// #0
    4bc0:	9400154c 	bl	a0f0 <mpa_cmp_short>
    4bc4:	36f800c0 	tbz	w0, #31, 4bdc <TEE_BigIntMulMod+0x98>
/home/zliu/ubuntu-optee-rpi3/RPi3_OPTEE_3.1/optee_os/lib/libutee/tee_api_arith.c:445
    4bc8:	f9402fa1 	ldr	x1, [x29, #88]
    4bcc:	aa1503e3 	mov	x3, x21
    4bd0:	aa1403e2 	mov	x2, x20
    4bd4:	aa0103e0 	mov	x0, x1
    4bd8:	9400137f 	bl	99d4 <mpa_add>
/home/zliu/ubuntu-optee-rpi3/RPi3_OPTEE_3.1/optee_os/lib/libutee/tee_api_arith.c:446
    4bdc:	f9402fa1 	ldr	x1, [x29, #88]
    4be0:	aa1703e0 	mov	x0, x23
    4be4:	94000958 	bl	7144 <mpa_copy>
/home/zliu/ubuntu-optee-rpi3/RPi3_OPTEE_3.1/optee_os/lib/libutee/tee_api_arith.c:447
    4be8:	9106c261 	add	x1, x19, #0x1b0
    4bec:	aa1603e0 	mov	x0, x22
    4bf0:	9400106b 	bl	8d9c <mpa_free_static_temp_var>
/home/zliu/ubuntu-optee-rpi3/RPi3_OPTEE_3.1/optee_os/lib/libutee/tee_api_arith.c:448
    4bf4:	f94023f9 	ldr	x25, [sp, #64]
    4bf8:	a94153f3 	ldp	x19, x20, [sp, #16]
    4bfc:	a9425bf5 	ldp	x21, x22, [sp, #32]
    4c00:	a94363f7 	ldp	x23, x24, [sp, #48]
    4c04:	a8c67bfd 	ldp	x29, x30, [sp], #96
    4c08:	d65f03c0 	ret

0000000000004c0c <TEE_BigIntSquareMod>:
TEE_BigIntSquareMod():
/home/zliu/ubuntu-optee-rpi3/RPi3_OPTEE_3.1/optee_os/lib/libutee/tee_api_arith.c:456
    4c0c:	aa0203e3 	mov	x3, x2
    4c10:	aa0103e2 	mov	x2, x1
    4c14:	17ffffcc 	b	4b44 <TEE_BigIntMulMod>

0000000000004c18 <TEE_BigIntInvMod>:
TEE_BigIntInvMod():
/home/zliu/ubuntu-optee-rpi3/RPi3_OPTEE_3.1/optee_os/lib/libutee/tee_api_arith.c:464
    4c18:	a9bd7bfd 	stp	x29, x30, [sp, #-48]!
    4c1c:	910003fd 	mov	x29, sp
    4c20:	a90153f3 	stp	x19, x20, [sp, #16]
    4c24:	aa0103f3 	mov	x19, x1
    4c28:	f90013f5 	str	x21, [sp, #32]
    4c2c:	aa0203f4 	mov	x20, x2
    4c30:	aa0003f5 	mov	x21, x0
TEE_BigIntCmpS32():
/home/zliu/ubuntu-optee-rpi3/RPi3_OPTEE_3.1/optee_os/lib/libutee/tee_api_arith.c:241
    4c34:	52800041 	mov	w1, #0x2                   	// #2
    4c38:	aa0203e0 	mov	x0, x2
    4c3c:	9400152d 	bl	a0f0 <mpa_cmp_short>
TEE_BigIntInvMod():
/home/zliu/ubuntu-optee-rpi3/RPi3_OPTEE_3.1/optee_os/lib/libutee/tee_api_arith.c:469
    4c40:	36f80080 	tbz	w0, #31, 4c50 <TEE_BigIntInvMod+0x38>
/home/zliu/ubuntu-optee-rpi3/RPi3_OPTEE_3.1/optee_os/lib/libutee/tee_api_arith.c:470
    4c44:	90000040 	adrp	x0, c000 <__func__.3927+0x294>
    4c48:	91063800 	add	x0, x0, #0x18e
    4c4c:	94000068 	bl	4dec <TEE_BigInt_Panic>
TEE_BigIntCmpS32():
/home/zliu/ubuntu-optee-rpi3/RPi3_OPTEE_3.1/optee_os/lib/libutee/tee_api_arith.c:241
    4c50:	52800001 	mov	w1, #0x0                   	// #0
    4c54:	aa1303e0 	mov	x0, x19
    4c58:	94001526 	bl	a0f0 <mpa_cmp_short>
TEE_BigIntInvMod():
/home/zliu/ubuntu-optee-rpi3/RPi3_OPTEE_3.1/optee_os/lib/libutee/tee_api_arith.c:469
    4c5c:	34ffff40 	cbz	w0, 4c44 <TEE_BigIntInvMod+0x2c>
/home/zliu/ubuntu-optee-rpi3/RPi3_OPTEE_3.1/optee_os/lib/libutee/tee_api_arith.c:472
    4c60:	aa1403e2 	mov	x2, x20
    4c64:	aa1303e1 	mov	x1, x19
    4c68:	aa1503e0 	mov	x0, x21
/home/zliu/ubuntu-optee-rpi3/RPi3_OPTEE_3.1/optee_os/lib/libutee/tee_api_arith.c:473
    4c6c:	f94013f5 	ldr	x21, [sp, #32]
    4c70:	a94153f3 	ldp	x19, x20, [sp, #16]
/home/zliu/ubuntu-optee-rpi3/RPi3_OPTEE_3.1/optee_os/lib/libutee/tee_api_arith.c:472
    4c74:	b0000043 	adrp	x3, d000 <ta_props>
/home/zliu/ubuntu-optee-rpi3/RPi3_OPTEE_3.1/optee_os/lib/libutee/tee_api_arith.c:473
    4c78:	a8c37bfd 	ldp	x29, x30, [sp], #48
/home/zliu/ubuntu-optee-rpi3/RPi3_OPTEE_3.1/optee_os/lib/libutee/tee_api_arith.c:472
    4c7c:	9106c063 	add	x3, x3, #0x1b0
    4c80:	14001805 	b	ac94 <mpa_inv_mod>

0000000000004c84 <TEE_BigIntRelativePrime>:
TEE_BigIntRelativePrime():
/home/zliu/ubuntu-optee-rpi3/RPi3_OPTEE_3.1/optee_os/lib/libutee/tee_api_arith.c:483
    4c84:	a9bc7bfd 	stp	x29, x30, [sp, #-64]!
    4c88:	910003fd 	mov	x29, sp
    4c8c:	a90153f3 	stp	x19, x20, [sp, #16]
/home/zliu/ubuntu-optee-rpi3/RPi3_OPTEE_3.1/optee_os/lib/libutee/tee_api_arith.c:489
    4c90:	9100e3b4 	add	x20, x29, #0x38
    4c94:	b0000053 	adrp	x19, d000 <ta_props>
    4c98:	9106c273 	add	x19, x19, #0x1b0
/home/zliu/ubuntu-optee-rpi3/RPi3_OPTEE_3.1/optee_os/lib/libutee/tee_api_arith.c:483
    4c9c:	a9025bf5 	stp	x21, x22, [sp, #32]
    4ca0:	aa0003f5 	mov	x21, x0
    4ca4:	aa0103f6 	mov	x22, x1
/home/zliu/ubuntu-optee-rpi3/RPi3_OPTEE_3.1/optee_os/lib/libutee/tee_api_arith.c:489
    4ca8:	aa1403e0 	mov	x0, x20
    4cac:	aa1303e1 	mov	x1, x19
    4cb0:	94001037 	bl	8d8c <mpa_alloc_static_temp_var>
/home/zliu/ubuntu-optee-rpi3/RPi3_OPTEE_3.1/optee_os/lib/libutee/tee_api_arith.c:491
    4cb4:	f9401fa0 	ldr	x0, [x29, #56]
    4cb8:	aa1303e3 	mov	x3, x19
    4cbc:	aa1603e2 	mov	x2, x22
    4cc0:	aa1503e1 	mov	x1, x21
    4cc4:	94000f29 	bl	8968 <mpa_gcd>
/home/zliu/ubuntu-optee-rpi3/RPi3_OPTEE_3.1/optee_os/lib/libutee/tee_api_arith.c:492
    4cc8:	f9401fa0 	ldr	x0, [x29, #56]
    4ccc:	52800021 	mov	w1, #0x1                   	// #1
    4cd0:	94001508 	bl	a0f0 <mpa_cmp_short>
    4cd4:	2a0003f5 	mov	w21, w0
/home/zliu/ubuntu-optee-rpi3/RPi3_OPTEE_3.1/optee_os/lib/libutee/tee_api_arith.c:494
    4cd8:	aa1303e1 	mov	x1, x19
    4cdc:	aa1403e0 	mov	x0, x20
    4ce0:	9400102f 	bl	8d9c <mpa_free_static_temp_var>
/home/zliu/ubuntu-optee-rpi3/RPi3_OPTEE_3.1/optee_os/lib/libutee/tee_api_arith.c:496
    4ce4:	710002bf 	cmp	w21, #0x0
/home/zliu/ubuntu-optee-rpi3/RPi3_OPTEE_3.1/optee_os/lib/libutee/tee_api_arith.c:497
    4ce8:	a94153f3 	ldp	x19, x20, [sp, #16]
    4cec:	1a9f17e0 	cset	w0, eq  // eq = none
    4cf0:	a9425bf5 	ldp	x21, x22, [sp, #32]
    4cf4:	a8c47bfd 	ldp	x29, x30, [sp], #64
    4cf8:	d65f03c0 	ret

0000000000004cfc <TEE_BigIntComputeExtendedGcd>:
TEE_BigIntComputeExtendedGcd():
/home/zliu/ubuntu-optee-rpi3/RPi3_OPTEE_3.1/optee_os/lib/libutee/tee_api_arith.c:512
    4cfc:	b0000045 	adrp	x5, d000 <ta_props>
    4d00:	9106c0a5 	add	x5, x5, #0x1b0
    4d04:	14000f61 	b	8a88 <mpa_extended_gcd>

0000000000004d08 <TEE_BigIntIsProbablePrime>:
TEE_BigIntIsProbablePrime():
/home/zliu/ubuntu-optee-rpi3/RPi3_OPTEE_3.1/optee_os/lib/libutee/tee_api_arith.c:520
    4d08:	7104003f 	cmp	w1, #0x100
    4d0c:	52802002 	mov	w2, #0x100                 	// #256
    4d10:	1a829021 	csel	w1, w1, w2, ls  // ls = plast
/home/zliu/ubuntu-optee-rpi3/RPi3_OPTEE_3.1/optee_os/lib/libutee/tee_api_arith.c:529
    4d14:	52800a03 	mov	w3, #0x50                  	// #80
    4d18:	7101403f 	cmp	w1, #0x50
    4d1c:	b0000042 	adrp	x2, d000 <ta_props>
    4d20:	1a832021 	csel	w1, w1, w3, cs  // cs = hs, nlast
    4d24:	9106c042 	add	x2, x2, #0x1b0
    4d28:	14000a53 	b	7674 <mpa_is_prob_prime>

0000000000004d2c <TEE_BigIntConvertToFMM>:
TEE_BigIntConvertToFMM():
/home/zliu/ubuntu-optee-rpi3/RPi3_OPTEE_3.1/optee_os/lib/libutee/tee_api_arith.c:543
    4d2c:	aa0303e6 	mov	x6, x3
/home/zliu/ubuntu-optee-rpi3/RPi3_OPTEE_3.1/optee_os/lib/libutee/tee_api_arith.c:550
    4d30:	aa0203e3 	mov	x3, x2
    4d34:	b0000045 	adrp	x5, d000 <ta_props>
    4d38:	9106c0a5 	add	x5, x5, #0x1b0
    4d3c:	b94010c4 	ldr	w4, [x6, #16]
    4d40:	f94004c2 	ldr	x2, [x6, #8]
    4d44:	14000a2a 	b	75ec <mpa_montgomery_mul>

0000000000004d48 <TEE_BigIntConvertFromFMM>:
TEE_BigIntConvertFromFMM():
/home/zliu/ubuntu-optee-rpi3/RPi3_OPTEE_3.1/optee_os/lib/libutee/tee_api_arith.c:561
    4d48:	a9ba7bfd 	stp	x29, x30, [sp, #-96]!
    4d4c:	910003fd 	mov	x29, sp
    4d50:	a90153f3 	stp	x19, x20, [sp, #16]
/home/zliu/ubuntu-optee-rpi3/RPi3_OPTEE_3.1/optee_os/lib/libutee/tee_api_arith.c:573
    4d54:	b0000053 	adrp	x19, d000 <ta_props>
    4d58:	9106c273 	add	x19, x19, #0x1b0
/home/zliu/ubuntu-optee-rpi3/RPi3_OPTEE_3.1/optee_os/lib/libutee/tee_api_arith.c:561
    4d5c:	a90363f7 	stp	x23, x24, [sp, #48]
    4d60:	aa0103f7 	mov	x23, x1
/home/zliu/ubuntu-optee-rpi3/RPi3_OPTEE_3.1/optee_os/lib/libutee/tee_api_arith.c:573
    4d64:	aa1303e1 	mov	x1, x19
    4d68:	910163b4 	add	x20, x29, #0x58
/home/zliu/ubuntu-optee-rpi3/RPi3_OPTEE_3.1/optee_os/lib/libutee/tee_api_arith.c:561
    4d6c:	f90023f9 	str	x25, [sp, #64]
    4d70:	aa0303f9 	mov	x25, x3
    4d74:	a9025bf5 	stp	x21, x22, [sp, #32]
    4d78:	aa0203f8 	mov	x24, x2
    4d7c:	aa0003f5 	mov	x21, x0
/home/zliu/ubuntu-optee-rpi3/RPi3_OPTEE_3.1/optee_os/lib/libutee/tee_api_arith.c:573
    4d80:	aa1403e0 	mov	x0, x20
    4d84:	94001002 	bl	8d8c <mpa_alloc_static_temp_var>
/home/zliu/ubuntu-optee-rpi3/RPi3_OPTEE_3.1/optee_os/lib/libutee/tee_api_arith.c:576
    4d88:	f9402fb6 	ldr	x22, [x29, #88]
    4d8c:	9400093b 	bl	7278 <mpa_constant_one>
    4d90:	b9401324 	ldr	w4, [x25, #16]
    4d94:	aa1303e5 	mov	x5, x19
    4d98:	aa1803e3 	mov	x3, x24
    4d9c:	aa1703e2 	mov	x2, x23
    4da0:	aa0003e1 	mov	x1, x0
    4da4:	aa1603e0 	mov	x0, x22
    4da8:	94000a11 	bl	75ec <mpa_montgomery_mul>
/home/zliu/ubuntu-optee-rpi3/RPi3_OPTEE_3.1/optee_os/lib/libutee/tee_api_arith.c:579
    4dac:	f9402fa1 	ldr	x1, [x29, #88]
    4db0:	aa1503e0 	mov	x0, x21
    4db4:	940008e4 	bl	7144 <mpa_copy>
/home/zliu/ubuntu-optee-rpi3/RPi3_OPTEE_3.1/optee_os/lib/libutee/tee_api_arith.c:580
    4db8:	aa1303e1 	mov	x1, x19
    4dbc:	aa1403e0 	mov	x0, x20
    4dc0:	94000ff7 	bl	8d9c <mpa_free_static_temp_var>
/home/zliu/ubuntu-optee-rpi3/RPi3_OPTEE_3.1/optee_os/lib/libutee/tee_api_arith.c:581
    4dc4:	f94023f9 	ldr	x25, [sp, #64]
    4dc8:	a94153f3 	ldp	x19, x20, [sp, #16]
    4dcc:	a9425bf5 	ldp	x21, x22, [sp, #32]
    4dd0:	a94363f7 	ldp	x23, x24, [sp, #48]
    4dd4:	a8c67bfd 	ldp	x29, x30, [sp], #96
    4dd8:	d65f03c0 	ret

0000000000004ddc <TEE_BigIntComputeFMM>:
TEE_BigIntComputeFMM():
/home/zliu/ubuntu-optee-rpi3/RPi3_OPTEE_3.1/optee_os/lib/libutee/tee_api_arith.c:598
    4ddc:	b9401084 	ldr	w4, [x4, #16]
    4de0:	b0000045 	adrp	x5, d000 <ta_props>
    4de4:	9106c0a5 	add	x5, x5, #0x1b0
    4de8:	14000a01 	b	75ec <mpa_montgomery_mul>

0000000000004dec <TEE_BigInt_Panic>:
TEE_BigInt_Panic():
/home/zliu/ubuntu-optee-rpi3/RPi3_OPTEE_3.1/optee_os/lib/libutee/tee_api_arith.c:57
    4dec:	a9bf7bfd 	stp	x29, x30, [sp, #-16]!
/home/zliu/ubuntu-optee-rpi3/RPi3_OPTEE_3.1/optee_os/lib/libutee/tee_api_arith.c:58
    4df0:	aa0003e1 	mov	x1, x0
    4df4:	90000040 	adrp	x0, c000 <__func__.3927+0x294>
    4df8:	91057800 	add	x0, x0, #0x15e
/home/zliu/ubuntu-optee-rpi3/RPi3_OPTEE_3.1/optee_os/lib/libutee/tee_api_arith.c:57
    4dfc:	910003fd 	mov	x29, sp
/home/zliu/ubuntu-optee-rpi3/RPi3_OPTEE_3.1/optee_os/lib/libutee/tee_api_arith.c:58
    4e00:	94000018 	bl	4e60 <printf>
/home/zliu/ubuntu-optee-rpi3/RPi3_OPTEE_3.1/optee_os/lib/libutee/tee_api_arith.c:59
    4e04:	528c24e0 	mov	w0, #0x6127                	// #24871
    4e08:	72a01620 	movk	w0, #0xb1, lsl #16
    4e0c:	97fffb42 	bl	3b14 <TEE_Panic>
    4e10:	14000000 	b	4e10 <TEE_BigInt_Panic+0x24>

0000000000004e14 <utee_get_ta_exec_id>:
utee_get_ta_exec_id():
/home/zliu/ubuntu-optee-rpi3/RPi3_OPTEE_3.1/optee_os/lib/libutee/arch/arm/utee_misc.c:40
    4e14:	52800000 	mov	w0, #0x0                   	// #0
    4e18:	d65f03c0 	ret

0000000000004e1c <utee_malloc>:
utee_malloc():
/home/zliu/ubuntu-optee-rpi3/RPi3_OPTEE_3.1/optee_os/lib/libutee/arch/arm/utee_misc.c:45
    4e1c:	14000287 	b	5838 <malloc>

0000000000004e20 <utee_realloc>:
utee_realloc():
/home/zliu/ubuntu-optee-rpi3/RPi3_OPTEE_3.1/optee_os/lib/libutee/arch/arm/utee_misc.c:50
    4e20:	140002b8 	b	5900 <realloc>

0000000000004e24 <utee_calloc>:
utee_calloc():
/home/zliu/ubuntu-optee-rpi3/RPi3_OPTEE_3.1/optee_os/lib/libutee/arch/arm/utee_misc.c:55
    4e24:	1400029e 	b	589c <calloc>

0000000000004e28 <utee_free>:
utee_free():
/home/zliu/ubuntu-optee-rpi3/RPi3_OPTEE_3.1/optee_os/lib/libutee/arch/arm/utee_misc.c:60
    4e28:	14000298 	b	5888 <free>

0000000000004e2c <get_rng_array>:
get_rng_array():
/home/zliu/ubuntu-optee-rpi3/RPi3_OPTEE_3.1/optee_os/lib/libutee/arch/arm/utee_misc.c:72
    4e2c:	17fffc50 	b	3f6c <utee_cryp_random_number_generate>

0000000000004e30 <trace_ext_puts>:
trace_ext_puts():
/home/zliu/ubuntu-optee-rpi3/RPi3_OPTEE_3.1/optee_os/lib/libutee/trace_ext.c:40
    4e30:	a9be7bfd 	stp	x29, x30, [sp, #-32]!
    4e34:	910003fd 	mov	x29, sp
    4e38:	f9000bf3 	str	x19, [sp, #16]
    4e3c:	aa0003f3 	mov	x19, x0
/home/zliu/ubuntu-optee-rpi3/RPi3_OPTEE_3.1/optee_os/lib/libutee/trace_ext.c:41
    4e40:	940004d5 	bl	6194 <strlen>
    4e44:	aa0003e1 	mov	x1, x0
    4e48:	aa1303e0 	mov	x0, x19
/home/zliu/ubuntu-optee-rpi3/RPi3_OPTEE_3.1/optee_os/lib/libutee/trace_ext.c:42
    4e4c:	f9400bf3 	ldr	x19, [sp, #16]
    4e50:	a8c27bfd 	ldp	x29, x30, [sp], #32
/home/zliu/ubuntu-optee-rpi3/RPi3_OPTEE_3.1/optee_os/lib/libutee/trace_ext.c:41
    4e54:	17fffbe6 	b	3dec <utee_log>

0000000000004e58 <trace_ext_get_thread_id>:
trace_ext_get_thread_id():
/home/zliu/ubuntu-optee-rpi3/RPi3_OPTEE_3.1/optee_os/lib/libutee/trace_ext.c:47
    4e58:	12800000 	mov	w0, #0xffffffff            	// #-1
    4e5c:	d65f03c0 	ret

0000000000004e60 <printf>:
printf():
/home/zliu/ubuntu-optee-rpi3/RPi3_OPTEE_3.1/optee_os/lib/libutee/trace_ext.c:55
    4e60:	d10883ff 	sub	sp, sp, #0x220
    4e64:	a9007bfd 	stp	x29, x30, [sp]
    4e68:	910003fd 	mov	x29, sp
    4e6c:	a90153f3 	stp	x19, x20, [sp, #16]
    4e70:	aa0003f3 	mov	x19, x0
    4e74:	910403a0 	add	x0, x29, #0x100
    4e78:	a91e8ba1 	stp	x1, x2, [x29, #488]
    4e7c:	a91f93a3 	stp	x3, x4, [x29, #504]
    4e80:	f90107a5 	str	x5, [x29, #520]
    4e84:	f9010ba6 	str	x6, [x29, #528]
    4e88:	f9010fa7 	str	x7, [x29, #536]
    4e8c:	3d801800 	str	q0, [x0, #96]
    4e90:	3d801c01 	str	q1, [x0, #112]
    4e94:	3d802002 	str	q2, [x0, #128]
    4e98:	3d802403 	str	q3, [x0, #144]
    4e9c:	3d802804 	str	q4, [x0, #160]
    4ea0:	3d802c05 	str	q5, [x0, #176]
    4ea4:	3d803006 	str	q6, [x0, #192]
    4ea8:	3d803407 	str	q7, [x0, #208]
/home/zliu/ubuntu-optee-rpi3/RPi3_OPTEE_3.1/optee_os/lib/libutee/trace_ext.c:60
    4eac:	940007f6 	bl	6e84 <trace_get_level>
    4eb0:	7100001f 	cmp	w0, #0x0
    4eb4:	5400038d 	b.le	4f24 <printf+0xc4>
/home/zliu/ubuntu-optee-rpi3/RPi3_OPTEE_3.1/optee_os/lib/libutee/trace_ext.c:63
    4eb8:	910883a0 	add	x0, x29, #0x220
    4ebc:	a90403a0 	stp	x0, x0, [x29, #64]
    4ec0:	910783a0 	add	x0, x29, #0x1e0
    4ec4:	f9002ba0 	str	x0, [x29, #80]
    4ec8:	128006e0 	mov	w0, #0xffffffc8            	// #-56
    4ecc:	b9005ba0 	str	w0, [x29, #88]
    4ed0:	12800fe0 	mov	w0, #0xffffff80            	// #-128
    4ed4:	b9005fa0 	str	w0, [x29, #92]
/home/zliu/ubuntu-optee-rpi3/RPi3_OPTEE_3.1/optee_os/lib/libutee/trace_ext.c:64
    4ed8:	a94407a0 	ldp	x0, x1, [x29, #64]
    4edc:	a90207a0 	stp	x0, x1, [x29, #32]
    4ee0:	a94507a0 	ldp	x0, x1, [x29, #80]
    4ee4:	910183b4 	add	x20, x29, #0x60
    4ee8:	a90307a0 	stp	x0, x1, [x29, #48]
    4eec:	aa1303e2 	mov	x2, x19
    4ef0:	910083a3 	add	x3, x29, #0x20
    4ef4:	d2802001 	mov	x1, #0x100                 	// #256
    4ef8:	aa1403e0 	mov	x0, x20
    4efc:	94000461 	bl	6080 <vsnprintf>
    4f00:	2a0003f3 	mov	w19, w0
/home/zliu/ubuntu-optee-rpi3/RPi3_OPTEE_3.1/optee_os/lib/libutee/trace_ext.c:67
    4f04:	37f80060 	tbnz	w0, #31, 4f10 <printf+0xb0>
/home/zliu/ubuntu-optee-rpi3/RPi3_OPTEE_3.1/optee_os/lib/libutee/trace_ext.c:70
    4f08:	aa1403e0 	mov	x0, x20
    4f0c:	97ffffc9 	bl	4e30 <trace_ext_puts>
/home/zliu/ubuntu-optee-rpi3/RPi3_OPTEE_3.1/optee_os/lib/libutee/trace_ext.c:73
    4f10:	2a1303e0 	mov	w0, w19
    4f14:	a94153f3 	ldp	x19, x20, [sp, #16]
    4f18:	a9407bfd 	ldp	x29, x30, [sp]
    4f1c:	910883ff 	add	sp, sp, #0x220
    4f20:	d65f03c0 	ret
/home/zliu/ubuntu-optee-rpi3/RPi3_OPTEE_3.1/optee_os/lib/libutee/trace_ext.c:61
    4f24:	52800013 	mov	w19, #0x0                   	// #0
    4f28:	17fffffa 	b	4f10 <printf+0xb0>

0000000000004f2c <puts>:
puts():
/home/zliu/ubuntu-optee-rpi3/RPi3_OPTEE_3.1/optee_os/lib/libutee/trace_ext.c:76
    4f2c:	a9be7bfd 	stp	x29, x30, [sp, #-32]!
    4f30:	910003fd 	mov	x29, sp
    4f34:	f9000bf3 	str	x19, [sp, #16]
    4f38:	aa0003f3 	mov	x19, x0
/home/zliu/ubuntu-optee-rpi3/RPi3_OPTEE_3.1/optee_os/lib/libutee/trace_ext.c:77
    4f3c:	940007d2 	bl	6e84 <trace_get_level>
    4f40:	7100001f 	cmp	w0, #0x0
    4f44:	540000cd 	b.le	4f5c <puts+0x30>
/home/zliu/ubuntu-optee-rpi3/RPi3_OPTEE_3.1/optee_os/lib/libutee/trace_ext.c:78
    4f48:	aa1303e0 	mov	x0, x19
    4f4c:	97ffffb9 	bl	4e30 <trace_ext_puts>
/home/zliu/ubuntu-optee-rpi3/RPi3_OPTEE_3.1/optee_os/lib/libutee/trace_ext.c:79
    4f50:	90000040 	adrp	x0, c000 <__func__.3927+0x294>
    4f54:	9101d400 	add	x0, x0, #0x75
    4f58:	97ffffb6 	bl	4e30 <trace_ext_puts>
/home/zliu/ubuntu-optee-rpi3/RPi3_OPTEE_3.1/optee_os/lib/libutee/trace_ext.c:82
    4f5c:	52800020 	mov	w0, #0x1                   	// #1
    4f60:	f9400bf3 	ldr	x19, [sp, #16]
    4f64:	a8c27bfd 	ldp	x29, x30, [sp], #32
    4f68:	d65f03c0 	ret

0000000000004f6c <putchar>:
putchar():
/home/zliu/ubuntu-optee-rpi3/RPi3_OPTEE_3.1/optee_os/lib/libutee/trace_ext.c:85
    4f6c:	a9bd7bfd 	stp	x29, x30, [sp, #-48]!
    4f70:	910003fd 	mov	x29, sp
    4f74:	f9000bf3 	str	x19, [sp, #16]
    4f78:	2a0003f3 	mov	w19, w0
/home/zliu/ubuntu-optee-rpi3/RPi3_OPTEE_3.1/optee_os/lib/libutee/trace_ext.c:86
    4f7c:	3900a3a0 	strb	w0, [x29, #40]
    4f80:	3900a7bf 	strb	wzr, [x29, #41]
/home/zliu/ubuntu-optee-rpi3/RPi3_OPTEE_3.1/optee_os/lib/libutee/trace_ext.c:88
    4f84:	940007c0 	bl	6e84 <trace_get_level>
    4f88:	7100001f 	cmp	w0, #0x0
    4f8c:	5400006d 	b.le	4f98 <putchar+0x2c>
/home/zliu/ubuntu-optee-rpi3/RPi3_OPTEE_3.1/optee_os/lib/libutee/trace_ext.c:89
    4f90:	9100a3a0 	add	x0, x29, #0x28
    4f94:	97ffffa7 	bl	4e30 <trace_ext_puts>
/home/zliu/ubuntu-optee-rpi3/RPi3_OPTEE_3.1/optee_os/lib/libutee/trace_ext.c:96
    4f98:	12001e60 	and	w0, w19, #0xff
    4f9c:	f9400bf3 	ldr	x19, [sp, #16]
    4fa0:	a8c37bfd 	ldp	x29, x30, [sp], #48
    4fa4:	d65f03c0 	ret

0000000000004fa8 <raw_malloc_return_hook.isra.3>:
raw_malloc_return_hook():
/home/zliu/ubuntu-optee-rpi3/RPi3_OPTEE_3.1/optee_os/lib/libutils/isoc/bget_malloc.c:190
    4fa8:	d0000043 	adrp	x3, e000 <mempool_u32+0xe50>
    4fac:	9133c064 	add	x4, x3, #0xcf0
    4fb0:	b9402485 	ldr	w5, [x4, #36]
    4fb4:	eb0200bf 	cmp	x5, x2
    4fb8:	5400004a 	b.ge	4fc0 <raw_malloc_return_hook.isra.3+0x18>  // b.tcont
/home/zliu/ubuntu-optee-rpi3/RPi3_OPTEE_3.1/optee_os/lib/libutils/isoc/bget_malloc.c:191
    4fbc:	b9002482 	str	w2, [x4, #36]
/home/zliu/ubuntu-optee-rpi3/RPi3_OPTEE_3.1/optee_os/lib/libutils/isoc/bget_malloc.c:193
    4fc0:	b5000120 	cbnz	x0, 4fe4 <raw_malloc_return_hook.isra.3+0x3c>
/home/zliu/ubuntu-optee-rpi3/RPi3_OPTEE_3.1/optee_os/lib/libutils/isoc/bget_malloc.c:194
    4fc4:	9133c060 	add	x0, x3, #0xcf0
    4fc8:	b9402c03 	ldr	w3, [x0, #44]
    4fcc:	11000463 	add	w3, w3, #0x1
    4fd0:	b9002c03 	str	w3, [x0, #44]
/home/zliu/ubuntu-optee-rpi3/RPi3_OPTEE_3.1/optee_os/lib/libutils/isoc/bget_malloc.c:195
    4fd4:	b9403003 	ldr	w3, [x0, #48]
    4fd8:	eb01007f 	cmp	x3, x1
    4fdc:	54000042 	b.cs	4fe4 <raw_malloc_return_hook.isra.3+0x3c>  // b.hs, b.nlast
/home/zliu/ubuntu-optee-rpi3/RPi3_OPTEE_3.1/optee_os/lib/libutils/isoc/bget_malloc.c:197
    4fe0:	29060801 	stp	w1, w2, [x0, #48]
    4fe4:	d65f03c0 	ret

0000000000004fe8 <create_free_block.constprop.11>:
create_free_block():
/home/zliu/ubuntu-optee-rpi3/RPi3_OPTEE_3.1/optee_os/lib/libutils/isoc/bget_malloc.c:395
    4fe8:	a9bf7bfd 	stp	x29, x30, [sp, #-16]!
/home/zliu/ubuntu-optee-rpi3/RPi3_OPTEE_3.1/optee_os/lib/libutils/isoc/bget_malloc.c:398
    4fec:	8b010003 	add	x3, x0, x1
    4ff0:	eb02007f 	cmp	x3, x2
/home/zliu/ubuntu-optee-rpi3/RPi3_OPTEE_3.1/optee_os/lib/libutils/isoc/bget_malloc.c:395
    4ff4:	910003fd 	mov	x29, sp
/home/zliu/ubuntu-optee-rpi3/RPi3_OPTEE_3.1/optee_os/lib/libutils/isoc/bget_malloc.c:398
    4ff8:	54000140 	b.eq	5020 <create_free_block.constprop.11+0x38>  // b.none
    4ffc:	d0000023 	adrp	x3, a000 <__mpa_abs_cmp+0x5c>
    5000:	f0000021 	adrp	x1, c000 <__func__.3927+0x294>
    5004:	f0000020 	adrp	x0, c000 <__func__.3927+0x294>
    5008:	91398063 	add	x3, x3, #0xe60
    500c:	9106e421 	add	x1, x1, #0x1b9
    5010:	91076400 	add	x0, x0, #0x1d9
    5014:	528031c2 	mov	w2, #0x18e                 	// #398
/home/zliu/ubuntu-optee-rpi3/RPi3_OPTEE_3.1/optee_os/lib/libutils/isoc/bget_malloc.c:399
    5018:	97fffdba 	bl	4700 <_assert_log>
    501c:	97fffdca 	bl	4744 <_assert_break>
    5020:	f9400462 	ldr	x2, [x3, #8]
    5024:	b7f80122 	tbnz	x2, #63, 5048 <create_free_block.constprop.11+0x60>
    5028:	b0000023 	adrp	x3, a000 <__mpa_abs_cmp+0x5c>
    502c:	f0000021 	adrp	x1, c000 <__func__.3927+0x294>
    5030:	f0000020 	adrp	x0, c000 <__func__.3927+0x294>
    5034:	91398063 	add	x3, x3, #0xe60
    5038:	528031e2 	mov	w2, #0x18f                 	// #399
    503c:	9106e421 	add	x1, x1, #0x1b9
    5040:	9107d400 	add	x0, x0, #0x1f5
    5044:	17fffff5 	b	5018 <create_free_block.constprop.11+0x30>
/home/zliu/ubuntu-optee-rpi3/RPi3_OPTEE_3.1/optee_os/lib/libutils/isoc/bget_malloc.c:401
    5048:	f8616802 	ldr	x2, [x0, x1]
    504c:	b4000122 	cbz	x2, 5070 <create_free_block.constprop.11+0x88>
    5050:	b0000023 	adrp	x3, a000 <__mpa_abs_cmp+0x5c>
    5054:	f0000021 	adrp	x1, c000 <__func__.3927+0x294>
    5058:	f0000020 	adrp	x0, c000 <__func__.3927+0x294>
    505c:	91398063 	add	x3, x3, #0xe60
    5060:	52803222 	mov	w2, #0x191                 	// #401
    5064:	9106e421 	add	x1, x1, #0x1b9
    5068:	91080c00 	add	x0, x0, #0x203
    506c:	17ffffeb 	b	5018 <create_free_block.constprop.11+0x30>
/home/zliu/ubuntu-optee-rpi3/RPi3_OPTEE_3.1/optee_os/lib/libutils/isoc/bget_malloc.c:404
    5070:	a900041f 	stp	xzr, x1, [x0]
/home/zliu/ubuntu-optee-rpi3/RPi3_OPTEE_3.1/optee_os/lib/libutils/isoc/bget_malloc.c:408
    5074:	f8216801 	str	x1, [x0, x1]
/home/zliu/ubuntu-optee-rpi3/RPi3_OPTEE_3.1/optee_os/lib/libutils/isoc/bget_malloc.c:411
    5078:	90000041 	adrp	x1, d000 <ta_props>
    507c:	91040021 	add	x1, x1, #0x100
    5080:	f9400c23 	ldr	x3, [x1, #24]
    5084:	f9400862 	ldr	x2, [x3, #16]
    5088:	eb01005f 	cmp	x2, x1
    508c:	54000120 	b.eq	50b0 <create_free_block.constprop.11+0xc8>  // b.none
    5090:	b0000023 	adrp	x3, a000 <__mpa_abs_cmp+0x5c>
    5094:	f0000021 	adrp	x1, c000 <__func__.3927+0x294>
    5098:	f0000020 	adrp	x0, c000 <__func__.3927+0x294>
    509c:	91398063 	add	x3, x3, #0xe60
    50a0:	52803362 	mov	w2, #0x19b                 	// #411
    50a4:	9106e421 	add	x1, x1, #0x1b9
    50a8:	91085400 	add	x0, x0, #0x215
    50ac:	17ffffdb 	b	5018 <create_free_block.constprop.11+0x30>
/home/zliu/ubuntu-optee-rpi3/RPi3_OPTEE_3.1/optee_os/lib/libutils/isoc/bget_malloc.c:412
    50b0:	f9400841 	ldr	x1, [x2, #16]
    50b4:	f9400c21 	ldr	x1, [x1, #24]
    50b8:	eb02003f 	cmp	x1, x2
    50bc:	54000120 	b.eq	50e0 <create_free_block.constprop.11+0xf8>  // b.none
    50c0:	b0000023 	adrp	x3, a000 <__mpa_abs_cmp+0x5c>
    50c4:	f0000021 	adrp	x1, c000 <__func__.3927+0x294>
    50c8:	f0000020 	adrp	x0, c000 <__func__.3927+0x294>
    50cc:	91398063 	add	x3, x3, #0xe60
    50d0:	52803382 	mov	w2, #0x19c                 	// #412
    50d4:	9106e421 	add	x1, x1, #0x1b9
    50d8:	91094000 	add	x0, x0, #0x250
    50dc:	17ffffcf 	b	5018 <create_free_block.constprop.11+0x30>
/home/zliu/ubuntu-optee-rpi3/RPi3_OPTEE_3.1/optee_os/lib/libutils/isoc/bget_malloc.c:414
    50e0:	a9010c01 	stp	x1, x3, [x0, #16]
/home/zliu/ubuntu-optee-rpi3/RPi3_OPTEE_3.1/optee_os/lib/libutils/isoc/bget_malloc.c:415
    50e4:	f9000c20 	str	x0, [x1, #24]
/home/zliu/ubuntu-optee-rpi3/RPi3_OPTEE_3.1/optee_os/lib/libutils/isoc/bget_malloc.c:416
    50e8:	f9400c01 	ldr	x1, [x0, #24]
    50ec:	f9000820 	str	x0, [x1, #16]
/home/zliu/ubuntu-optee-rpi3/RPi3_OPTEE_3.1/optee_os/lib/libutils/isoc/bget_malloc.c:417
    50f0:	a8c17bfd 	ldp	x29, x30, [sp], #16
    50f4:	d65f03c0 	ret

00000000000050f8 <bget>:
bget():
/home/zliu/ubuntu-optee-rpi3/RPi3_OPTEE_3.1/optee_os/lib/libutils/isoc/bget.c:576
    50f8:	a9bf7bfd 	stp	x29, x30, [sp, #-16]!
/home/zliu/ubuntu-optee-rpi3/RPi3_OPTEE_3.1/optee_os/lib/libutils/isoc/bget.c:587
    50fc:	f100001f 	cmp	x0, #0x0
/home/zliu/ubuntu-optee-rpi3/RPi3_OPTEE_3.1/optee_os/lib/libutils/isoc/bget.c:576
    5100:	910003fd 	mov	x29, sp
/home/zliu/ubuntu-optee-rpi3/RPi3_OPTEE_3.1/optee_os/lib/libutils/isoc/bget.c:587
    5104:	5400016c 	b.gt	5130 <bget+0x38>
/home/zliu/ubuntu-optee-rpi3/RPi3_OPTEE_3.1/optee_os/lib/libutils/isoc/bget.c:587 (discriminator 1)
    5108:	b0000023 	adrp	x3, a000 <__mpa_abs_cmp+0x5c>
    510c:	91398063 	add	x3, x3, #0xe60
    5110:	f0000021 	adrp	x1, c000 <__func__.3927+0x294>
    5114:	f0000020 	adrp	x0, c000 <__func__.3927+0x294>
    5118:	91006063 	add	x3, x3, #0x18
    511c:	910a2c21 	add	x1, x1, #0x28b
    5120:	91120800 	add	x0, x0, #0x482
    5124:	52804962 	mov	w2, #0x24b                 	// #587
/home/zliu/ubuntu-optee-rpi3/RPi3_OPTEE_3.1/optee_os/lib/libutils/isoc/bget.c:647 (discriminator 1)
    5128:	97fffd76 	bl	4700 <_assert_log>
    512c:	97fffd86 	bl	4744 <_assert_break>
/home/zliu/ubuntu-optee-rpi3/RPi3_OPTEE_3.1/optee_os/lib/libutils/isoc/bget.c:594
    5130:	f100401f 	cmp	x0, #0x10
    5134:	d2800202 	mov	x2, #0x10                  	// #16
    5138:	9a82a002 	csel	x2, x0, x2, ge  // ge = tcont
/home/zliu/ubuntu-optee-rpi3/RPi3_OPTEE_3.1/optee_os/lib/libutils/isoc/bget.c:608
    513c:	f9400820 	ldr	x0, [x1, #16]
/home/zliu/ubuntu-optee-rpi3/RPi3_OPTEE_3.1/optee_os/lib/libutils/isoc/bget.c:594
    5140:	91003c42 	add	x2, x2, #0xf
    5144:	927cec42 	and	x2, x2, #0xfffffffffffffff0
/home/zliu/ubuntu-optee-rpi3/RPi3_OPTEE_3.1/optee_os/lib/libutils/isoc/bget.c:598
    5148:	91004042 	add	x2, x2, #0x10
/home/zliu/ubuntu-optee-rpi3/RPi3_OPTEE_3.1/optee_os/lib/libutils/isoc/bget.c:630
    514c:	eb01001f 	cmp	x0, x1
    5150:	54000061 	b.ne	515c <bget+0x64>  // b.any
/home/zliu/ubuntu-optee-rpi3/RPi3_OPTEE_3.1/optee_os/lib/libutils/isoc/bget.c:758
    5154:	d2800000 	mov	x0, #0x0                   	// #0
    5158:	1400001f 	b	51d4 <bget+0xdc>
/home/zliu/ubuntu-optee-rpi3/RPi3_OPTEE_3.1/optee_os/lib/libutils/isoc/bget.c:631
    515c:	f9400403 	ldr	x3, [x0, #8]
    5160:	eb03005f 	cmp	x2, x3
    5164:	54000a6c 	b.gt	52b0 <bget+0x1b8>
/home/zliu/ubuntu-optee-rpi3/RPi3_OPTEE_3.1/optee_os/lib/libutils/isoc/bget.c:642
    5168:	cb020064 	sub	x4, x3, x2
    516c:	f100809f 	cmp	x4, #0x20
    5170:	5400036d 	b.le	51dc <bget+0xe4>
/home/zliu/ubuntu-optee-rpi3/RPi3_OPTEE_3.1/optee_os/lib/libutils/isoc/bget.c:645
    5174:	8b040005 	add	x5, x0, x4
/home/zliu/ubuntu-optee-rpi3/RPi3_OPTEE_3.1/optee_os/lib/libutils/isoc/bget.c:647
    5178:	f86268a6 	ldr	x6, [x5, x2]
    517c:	eb06007f 	cmp	x3, x6
    5180:	54000140 	b.eq	51a8 <bget+0xb0>  // b.none
/home/zliu/ubuntu-optee-rpi3/RPi3_OPTEE_3.1/optee_os/lib/libutils/isoc/bget.c:647 (discriminator 1)
    5184:	b0000023 	adrp	x3, a000 <__mpa_abs_cmp+0x5c>
    5188:	91398063 	add	x3, x3, #0xe60
    518c:	f0000021 	adrp	x1, c000 <__func__.3927+0x294>
    5190:	f0000020 	adrp	x0, c000 <__func__.3927+0x294>
    5194:	91006063 	add	x3, x3, #0x18
    5198:	528050e2 	mov	w2, #0x287                 	// #647
    519c:	910a2c21 	add	x1, x1, #0x28b
    51a0:	910a9000 	add	x0, x0, #0x2a4
    51a4:	17ffffe1 	b	5128 <bget+0x30>
/home/zliu/ubuntu-optee-rpi3/RPi3_OPTEE_3.1/optee_os/lib/libutils/isoc/bget.c:649
    51a8:	f9000404 	str	x4, [x0, #8]
/home/zliu/ubuntu-optee-rpi3/RPi3_OPTEE_3.1/optee_os/lib/libutils/isoc/bget.c:651
    51ac:	f8246804 	str	x4, [x0, x4]
/home/zliu/ubuntu-optee-rpi3/RPi3_OPTEE_3.1/optee_os/lib/libutils/isoc/bget.c:653
    51b0:	cb0203e0 	neg	x0, x2
    51b4:	f90004a0 	str	x0, [x5, #8]
/home/zliu/ubuntu-optee-rpi3/RPi3_OPTEE_3.1/optee_os/lib/libutils/isoc/bget.c:658
    51b8:	f9401020 	ldr	x0, [x1, #32]
/home/zliu/ubuntu-optee-rpi3/RPi3_OPTEE_3.1/optee_os/lib/libutils/isoc/bget.c:655
    51bc:	f82268bf 	str	xzr, [x5, x2]
/home/zliu/ubuntu-optee-rpi3/RPi3_OPTEE_3.1/optee_os/lib/libutils/isoc/bget.c:658
    51c0:	8b020002 	add	x2, x0, x2
/home/zliu/ubuntu-optee-rpi3/RPi3_OPTEE_3.1/optee_os/lib/libutils/isoc/bget.c:659
    51c4:	f9401420 	ldr	x0, [x1, #40]
    51c8:	91000400 	add	x0, x0, #0x1
    51cc:	a9020022 	stp	x2, x0, [x1, #32]
/home/zliu/ubuntu-optee-rpi3/RPi3_OPTEE_3.1/optee_os/lib/libutils/isoc/bget.c:661
    51d0:	910040a0 	add	x0, x5, #0x10
/home/zliu/ubuntu-optee-rpi3/RPi3_OPTEE_3.1/optee_os/lib/libutils/isoc/bget.c:759
    51d4:	a8c17bfd 	ldp	x29, x30, [sp], #16
    51d8:	d65f03c0 	ret
/home/zliu/ubuntu-optee-rpi3/RPi3_OPTEE_3.1/optee_os/lib/libutils/isoc/bget.c:668
    51dc:	f8636802 	ldr	x2, [x0, x3]
/home/zliu/ubuntu-optee-rpi3/RPi3_OPTEE_3.1/optee_os/lib/libutils/isoc/bget.c:667
    51e0:	8b030005 	add	x5, x0, x3
/home/zliu/ubuntu-optee-rpi3/RPi3_OPTEE_3.1/optee_os/lib/libutils/isoc/bget.c:668
    51e4:	eb02007f 	cmp	x3, x2
    51e8:	54000140 	b.eq	5210 <bget+0x118>  // b.none
/home/zliu/ubuntu-optee-rpi3/RPi3_OPTEE_3.1/optee_os/lib/libutils/isoc/bget.c:668 (discriminator 1)
    51ec:	b0000023 	adrp	x3, a000 <__mpa_abs_cmp+0x5c>
    51f0:	91398063 	add	x3, x3, #0xe60
    51f4:	f0000021 	adrp	x1, c000 <__func__.3927+0x294>
    51f8:	f0000020 	adrp	x0, c000 <__func__.3927+0x294>
    51fc:	91006063 	add	x3, x3, #0x18
    5200:	52805382 	mov	w2, #0x29c                 	// #668
    5204:	910a2c21 	add	x1, x1, #0x28b
    5208:	910b0000 	add	x0, x0, #0x2c0
    520c:	17ffffc7 	b	5128 <bget+0x30>
/home/zliu/ubuntu-optee-rpi3/RPi3_OPTEE_3.1/optee_os/lib/libutils/isoc/bget.c:673
    5210:	f9400c02 	ldr	x2, [x0, #24]
    5214:	f9400844 	ldr	x4, [x2, #16]
    5218:	eb04001f 	cmp	x0, x4
    521c:	54000140 	b.eq	5244 <bget+0x14c>  // b.none
/home/zliu/ubuntu-optee-rpi3/RPi3_OPTEE_3.1/optee_os/lib/libutils/isoc/bget.c:673 (discriminator 1)
    5220:	b0000023 	adrp	x3, a000 <__mpa_abs_cmp+0x5c>
    5224:	91398063 	add	x3, x3, #0xe60
    5228:	f0000021 	adrp	x1, c000 <__func__.3927+0x294>
    522c:	f0000020 	adrp	x0, c000 <__func__.3927+0x294>
    5230:	91006063 	add	x3, x3, #0x18
    5234:	52805422 	mov	w2, #0x2a1                 	// #673
    5238:	910a2c21 	add	x1, x1, #0x28b
    523c:	910b7000 	add	x0, x0, #0x2dc
    5240:	17ffffba 	b	5128 <bget+0x30>
/home/zliu/ubuntu-optee-rpi3/RPi3_OPTEE_3.1/optee_os/lib/libutils/isoc/bget.c:674
    5244:	f9400804 	ldr	x4, [x0, #16]
    5248:	f9400c86 	ldr	x6, [x4, #24]
    524c:	eb06001f 	cmp	x0, x6
    5250:	54000140 	b.eq	5278 <bget+0x180>  // b.none
/home/zliu/ubuntu-optee-rpi3/RPi3_OPTEE_3.1/optee_os/lib/libutils/isoc/bget.c:674 (discriminator 1)
    5254:	b0000023 	adrp	x3, a000 <__mpa_abs_cmp+0x5c>
    5258:	91398063 	add	x3, x3, #0xe60
    525c:	f0000021 	adrp	x1, c000 <__func__.3927+0x294>
    5260:	f0000020 	adrp	x0, c000 <__func__.3927+0x294>
    5264:	91006063 	add	x3, x3, #0x18
    5268:	52805442 	mov	w2, #0x2a2                 	// #674
    526c:	910a2c21 	add	x1, x1, #0x28b
    5270:	910bdc00 	add	x0, x0, #0x2f7
    5274:	17ffffad 	b	5128 <bget+0x30>
/home/zliu/ubuntu-optee-rpi3/RPi3_OPTEE_3.1/optee_os/lib/libutils/isoc/bget.c:675
    5278:	f9000844 	str	x4, [x2, #16]
/home/zliu/ubuntu-optee-rpi3/RPi3_OPTEE_3.1/optee_os/lib/libutils/isoc/bget.c:690
    527c:	91004000 	add	x0, x0, #0x10
/home/zliu/ubuntu-optee-rpi3/RPi3_OPTEE_3.1/optee_os/lib/libutils/isoc/bget.c:676
    5280:	f9400004 	ldr	x4, [x0]
    5284:	f9000c82 	str	x2, [x4, #24]
/home/zliu/ubuntu-optee-rpi3/RPi3_OPTEE_3.1/optee_os/lib/libutils/isoc/bget.c:679
    5288:	f9401022 	ldr	x2, [x1, #32]
    528c:	8b030042 	add	x2, x2, x3
    5290:	f9001022 	str	x2, [x1, #32]
/home/zliu/ubuntu-optee-rpi3/RPi3_OPTEE_3.1/optee_os/lib/libutils/isoc/bget.c:680
    5294:	f9401422 	ldr	x2, [x1, #40]
/home/zliu/ubuntu-optee-rpi3/RPi3_OPTEE_3.1/optee_os/lib/libutils/isoc/bget.c:683
    5298:	cb0303e3 	neg	x3, x3
/home/zliu/ubuntu-optee-rpi3/RPi3_OPTEE_3.1/optee_os/lib/libutils/isoc/bget.c:680
    529c:	91000442 	add	x2, x2, #0x1
    52a0:	f9001422 	str	x2, [x1, #40]
/home/zliu/ubuntu-optee-rpi3/RPi3_OPTEE_3.1/optee_os/lib/libutils/isoc/bget.c:683
    52a4:	f81f8003 	stur	x3, [x0, #-8]
/home/zliu/ubuntu-optee-rpi3/RPi3_OPTEE_3.1/optee_os/lib/libutils/isoc/bget.c:687
    52a8:	f90000bf 	str	xzr, [x5]
/home/zliu/ubuntu-optee-rpi3/RPi3_OPTEE_3.1/optee_os/lib/libutils/isoc/bget.c:692
    52ac:	17ffffca 	b	51d4 <bget+0xdc>
/home/zliu/ubuntu-optee-rpi3/RPi3_OPTEE_3.1/optee_os/lib/libutils/isoc/bget.c:695
    52b0:	f9400800 	ldr	x0, [x0, #16]
    52b4:	17ffffa6 	b	514c <bget+0x54>

00000000000052b8 <bgetz>:
bgetz():
/home/zliu/ubuntu-optee-rpi3/RPi3_OPTEE_3.1/optee_os/lib/libutils/isoc/bget.c:768
    52b8:	a9be7bfd 	stp	x29, x30, [sp, #-32]!
    52bc:	910003fd 	mov	x29, sp
    52c0:	a90153f3 	stp	x19, x20, [sp, #16]
    52c4:	aa0003f4 	mov	x20, x0
/home/zliu/ubuntu-optee-rpi3/RPi3_OPTEE_3.1/optee_os/lib/libutils/isoc/bget.c:769
    52c8:	97ffff8c 	bl	50f8 <bget>
    52cc:	aa0003f3 	mov	x19, x0
/home/zliu/ubuntu-optee-rpi3/RPi3_OPTEE_3.1/optee_os/lib/libutils/isoc/bget.c:771
    52d0:	b4000300 	cbz	x0, 5330 <bgetz+0x78>
/home/zliu/ubuntu-optee-rpi3/RPi3_OPTEE_3.1/optee_os/lib/libutils/isoc/bget.c:776
    52d4:	f85f8000 	ldur	x0, [x0, #-8]
/home/zliu/ubuntu-optee-rpi3/RPi3_OPTEE_3.1/optee_os/lib/libutils/isoc/bget.c:777
    52d8:	b50001e0 	cbnz	x0, 5314 <bgetz+0x5c>
/home/zliu/ubuntu-optee-rpi3/RPi3_OPTEE_3.1/optee_os/lib/libutils/isoc/bget.c:781
    52dc:	f85e8262 	ldur	x2, [x19, #-24]
    52e0:	d1006042 	sub	x2, x2, #0x18
/home/zliu/ubuntu-optee-rpi3/RPi3_OPTEE_3.1/optee_os/lib/libutils/isoc/bget.c:785
    52e4:	eb14005f 	cmp	x2, x20
    52e8:	540001ca 	b.ge	5320 <bgetz+0x68>  // b.tcont
    52ec:	b0000023 	adrp	x3, a000 <__mpa_abs_cmp+0x5c>
    52f0:	91398063 	add	x3, x3, #0xe60
    52f4:	91008063 	add	x3, x3, #0x20
    52f8:	f0000021 	adrp	x1, c000 <__func__.3927+0x294>
    52fc:	f0000020 	adrp	x0, c000 <__func__.3927+0x294>
    5300:	910a2c21 	add	x1, x1, #0x28b
    5304:	910c4800 	add	x0, x0, #0x312
    5308:	52806222 	mov	w2, #0x311                 	// #785
    530c:	97fffcfd 	bl	4700 <_assert_log>
    5310:	97fffd0d 	bl	4744 <_assert_break>
/home/zliu/ubuntu-optee-rpi3/RPi3_OPTEE_3.1/optee_os/lib/libutils/isoc/bget.c:783
    5314:	928001e2 	mov	x2, #0xfffffffffffffff0    	// #-16
    5318:	cb000042 	sub	x2, x2, x0
    531c:	17fffff2 	b	52e4 <bgetz+0x2c>
memset_unchecked():
/home/zliu/ubuntu-optee-rpi3/RPi3_OPTEE_3.1/optee_os/lib/libutils/isoc/bget_malloc.c:164
    5320:	93407c42 	sxtw	x2, w2
    5324:	52800001 	mov	w1, #0x0                   	// #0
    5328:	aa1303e0 	mov	x0, x19
    532c:	94000393 	bl	6178 <memset>
bgetz():
/home/zliu/ubuntu-optee-rpi3/RPi3_OPTEE_3.1/optee_os/lib/libutils/isoc/bget.c:789
    5330:	aa1303e0 	mov	x0, x19
    5334:	a94153f3 	ldp	x19, x20, [sp, #16]
    5338:	a8c27bfd 	ldp	x29, x30, [sp], #32
    533c:	d65f03c0 	ret

0000000000005340 <brel>:
brel():
/home/zliu/ubuntu-optee-rpi3/RPi3_OPTEE_3.1/optee_os/lib/libutils/isoc/bget.c:835
    5340:	a9bf7bfd 	stp	x29, x30, [sp, #-16]!
    5344:	910003fd 	mov	x29, sp
/home/zliu/ubuntu-optee-rpi3/RPi3_OPTEE_3.1/optee_os/lib/libutils/isoc/bget.c:841
    5348:	f9401823 	ldr	x3, [x1, #48]
    534c:	91000463 	add	x3, x3, #0x1
    5350:	f9001823 	str	x3, [x1, #48]
/home/zliu/ubuntu-optee-rpi3/RPi3_OPTEE_3.1/optee_os/lib/libutils/isoc/bget.c:843
    5354:	b5000160 	cbnz	x0, 5380 <brel+0x40>
/home/zliu/ubuntu-optee-rpi3/RPi3_OPTEE_3.1/optee_os/lib/libutils/isoc/bget.c:843 (discriminator 1)
    5358:	b0000023 	adrp	x3, a000 <__mpa_abs_cmp+0x5c>
    535c:	91398063 	add	x3, x3, #0xe60
    5360:	f0000021 	adrp	x1, c000 <__func__.3927+0x294>
    5364:	f0000020 	adrp	x0, c000 <__func__.3927+0x294>
    5368:	9100a063 	add	x3, x3, #0x28
    536c:	910a2c21 	add	x1, x1, #0x28b
    5370:	910c8000 	add	x0, x0, #0x320
    5374:	52806962 	mov	w2, #0x34b                 	// #843
/home/zliu/ubuntu-optee-rpi3/RPi3_OPTEE_3.1/optee_os/lib/libutils/isoc/bget.c:874 (discriminator 1)
    5378:	97fffce2 	bl	4700 <_assert_log>
    537c:	97fffcf2 	bl	4744 <_assert_break>
/home/zliu/ubuntu-optee-rpi3/RPi3_OPTEE_3.1/optee_os/lib/libutils/isoc/bget.c:871
    5380:	f85f8003 	ldur	x3, [x0, #-8]
/home/zliu/ubuntu-optee-rpi3/RPi3_OPTEE_3.1/optee_os/lib/libutils/isoc/bget.c:874
    5384:	b7f80143 	tbnz	x3, #63, 53ac <brel+0x6c>
/home/zliu/ubuntu-optee-rpi3/RPi3_OPTEE_3.1/optee_os/lib/libutils/isoc/bget.c:874 (discriminator 1)
    5388:	b0000023 	adrp	x3, a000 <__mpa_abs_cmp+0x5c>
    538c:	91398063 	add	x3, x3, #0xe60
    5390:	f0000021 	adrp	x1, c000 <__func__.3927+0x294>
    5394:	f0000020 	adrp	x0, c000 <__func__.3927+0x294>
    5398:	9100a063 	add	x3, x3, #0x28
    539c:	52806d42 	mov	w2, #0x36a                 	// #874
    53a0:	910a2c21 	add	x1, x1, #0x28b
    53a4:	910cb000 	add	x0, x0, #0x32c
    53a8:	17fffff4 	b	5378 <brel+0x38>
    53ac:	d1004002 	sub	x2, x0, #0x10
/home/zliu/ubuntu-optee-rpi3/RPi3_OPTEE_3.1/optee_os/lib/libutils/isoc/bget.c:880
    53b0:	cb030044 	sub	x4, x2, x3
    53b4:	f9400084 	ldr	x4, [x4]
    53b8:	b4000144 	cbz	x4, 53e0 <brel+0xa0>
/home/zliu/ubuntu-optee-rpi3/RPi3_OPTEE_3.1/optee_os/lib/libutils/isoc/bget.c:880 (discriminator 1)
    53bc:	b0000023 	adrp	x3, a000 <__mpa_abs_cmp+0x5c>
    53c0:	91398063 	add	x3, x3, #0xe60
    53c4:	f0000021 	adrp	x1, c000 <__func__.3927+0x294>
    53c8:	f0000020 	adrp	x0, c000 <__func__.3927+0x294>
    53cc:	9100a063 	add	x3, x3, #0x28
    53d0:	52806e02 	mov	w2, #0x370                 	// #880
    53d4:	910a2c21 	add	x1, x1, #0x28b
    53d8:	910cf000 	add	x0, x0, #0x33c
    53dc:	17ffffe7 	b	5378 <brel+0x38>
/home/zliu/ubuntu-optee-rpi3/RPi3_OPTEE_3.1/optee_os/lib/libutils/isoc/bget.c:883
    53e0:	f9401024 	ldr	x4, [x1, #32]
    53e4:	8b040064 	add	x4, x3, x4
    53e8:	f9001024 	str	x4, [x1, #32]
/home/zliu/ubuntu-optee-rpi3/RPi3_OPTEE_3.1/optee_os/lib/libutils/isoc/bget.c:884
    53ec:	b6f80144 	tbz	x4, #63, 5414 <brel+0xd4>
/home/zliu/ubuntu-optee-rpi3/RPi3_OPTEE_3.1/optee_os/lib/libutils/isoc/bget.c:884 (discriminator 1)
    53f0:	b0000023 	adrp	x3, a000 <__mpa_abs_cmp+0x5c>
    53f4:	91398063 	add	x3, x3, #0xe60
    53f8:	f0000021 	adrp	x1, c000 <__func__.3927+0x294>
    53fc:	f0000020 	adrp	x0, c000 <__func__.3927+0x294>
    5400:	9100a063 	add	x3, x3, #0x28
    5404:	52806e82 	mov	w2, #0x374                 	// #884
    5408:	910a2c21 	add	x1, x1, #0x28b
    540c:	910da000 	add	x0, x0, #0x368
    5410:	17ffffda 	b	5378 <brel+0x38>
/home/zliu/ubuntu-optee-rpi3/RPi3_OPTEE_3.1/optee_os/lib/libutils/isoc/bget.c:889
    5414:	f85f0004 	ldur	x4, [x0, #-16]
    5418:	b4000424 	cbz	x4, 549c <brel+0x15c>
/home/zliu/ubuntu-optee-rpi3/RPi3_OPTEE_3.1/optee_os/lib/libutils/isoc/bget.c:900
    541c:	cb040042 	sub	x2, x2, x4
    5420:	f9400440 	ldr	x0, [x2, #8]
    5424:	eb00009f 	cmp	x4, x0
    5428:	54000140 	b.eq	5450 <brel+0x110>  // b.none
/home/zliu/ubuntu-optee-rpi3/RPi3_OPTEE_3.1/optee_os/lib/libutils/isoc/bget.c:900 (discriminator 1)
    542c:	b0000023 	adrp	x3, a000 <__mpa_abs_cmp+0x5c>
    5430:	91398063 	add	x3, x3, #0xe60
    5434:	f0000021 	adrp	x1, c000 <__func__.3927+0x294>
    5438:	f0000020 	adrp	x0, c000 <__func__.3927+0x294>
    543c:	9100a063 	add	x3, x3, #0x28
    5440:	52807082 	mov	w2, #0x384                 	// #900
    5444:	910a2c21 	add	x1, x1, #0x28b
    5448:	910dfc00 	add	x0, x0, #0x37f
    544c:	17ffffcb 	b	5378 <brel+0x38>
/home/zliu/ubuntu-optee-rpi3/RPi3_OPTEE_3.1/optee_os/lib/libutils/isoc/bget.c:902
    5450:	cb030083 	sub	x3, x4, x3
    5454:	f9000443 	str	x3, [x2, #8]
/home/zliu/ubuntu-optee-rpi3/RPi3_OPTEE_3.1/optee_os/lib/libutils/isoc/bget.c:922
    5458:	f9400441 	ldr	x1, [x2, #8]
    545c:	8b010040 	add	x0, x2, x1
/home/zliu/ubuntu-optee-rpi3/RPi3_OPTEE_3.1/optee_os/lib/libutils/isoc/bget.c:923
    5460:	f9400403 	ldr	x3, [x0, #8]
    5464:	f100007f 	cmp	x3, #0x0
    5468:	540009cd 	b.le	55a0 <brel+0x260>
/home/zliu/ubuntu-optee-rpi3/RPi3_OPTEE_3.1/optee_os/lib/libutils/isoc/bget.c:928
    546c:	f8636804 	ldr	x4, [x0, x3]
    5470:	eb04007f 	cmp	x3, x4
    5474:	54000560 	b.eq	5520 <brel+0x1e0>  // b.none
/home/zliu/ubuntu-optee-rpi3/RPi3_OPTEE_3.1/optee_os/lib/libutils/isoc/bget.c:928 (discriminator 1)
    5478:	b0000023 	adrp	x3, a000 <__mpa_abs_cmp+0x5c>
    547c:	91398063 	add	x3, x3, #0xe60
    5480:	f0000021 	adrp	x1, c000 <__func__.3927+0x294>
    5484:	f0000020 	adrp	x0, c000 <__func__.3927+0x294>
    5488:	9100a063 	add	x3, x3, #0x28
    548c:	52807402 	mov	w2, #0x3a0                 	// #928
    5490:	910a2c21 	add	x1, x1, #0x28b
    5494:	910ee000 	add	x0, x0, #0x3b8
    5498:	17ffffb8 	b	5378 <brel+0x38>
/home/zliu/ubuntu-optee-rpi3/RPi3_OPTEE_3.1/optee_os/lib/libutils/isoc/bget.c:908
    549c:	f9400c25 	ldr	x5, [x1, #24]
    54a0:	f94008a4 	ldr	x4, [x5, #16]
    54a4:	eb01009f 	cmp	x4, x1
    54a8:	54000140 	b.eq	54d0 <brel+0x190>  // b.none
/home/zliu/ubuntu-optee-rpi3/RPi3_OPTEE_3.1/optee_os/lib/libutils/isoc/bget.c:908 (discriminator 1)
    54ac:	b0000023 	adrp	x3, a000 <__mpa_abs_cmp+0x5c>
    54b0:	91398063 	add	x3, x3, #0xe60
    54b4:	f0000021 	adrp	x1, c000 <__func__.3927+0x294>
    54b8:	f0000020 	adrp	x0, c000 <__func__.3927+0x294>
    54bc:	9100a063 	add	x3, x3, #0x28
    54c0:	52807182 	mov	w2, #0x38c                 	// #908
    54c4:	910a2c21 	add	x1, x1, #0x28b
    54c8:	91085400 	add	x0, x0, #0x215
    54cc:	17ffffab 	b	5378 <brel+0x38>
/home/zliu/ubuntu-optee-rpi3/RPi3_OPTEE_3.1/optee_os/lib/libutils/isoc/bget.c:909
    54d0:	f9400881 	ldr	x1, [x4, #16]
    54d4:	f9400c21 	ldr	x1, [x1, #24]
    54d8:	eb01009f 	cmp	x4, x1
    54dc:	54000140 	b.eq	5504 <brel+0x1c4>  // b.none
/home/zliu/ubuntu-optee-rpi3/RPi3_OPTEE_3.1/optee_os/lib/libutils/isoc/bget.c:909 (discriminator 1)
    54e0:	b0000023 	adrp	x3, a000 <__mpa_abs_cmp+0x5c>
    54e4:	91398063 	add	x3, x3, #0xe60
    54e8:	f0000021 	adrp	x1, c000 <__func__.3927+0x294>
    54ec:	f0000020 	adrp	x0, c000 <__func__.3927+0x294>
    54f0:	9100a063 	add	x3, x3, #0x28
    54f4:	528071a2 	mov	w2, #0x38d                 	// #909
    54f8:	910a2c21 	add	x1, x1, #0x28b
    54fc:	91094000 	add	x0, x0, #0x250
    5500:	17ffff9e 	b	5378 <brel+0x38>
/home/zliu/ubuntu-optee-rpi3/RPi3_OPTEE_3.1/optee_os/lib/libutils/isoc/bget.c:911
    5504:	a9011444 	stp	x4, x5, [x2, #16]
/home/zliu/ubuntu-optee-rpi3/RPi3_OPTEE_3.1/optee_os/lib/libutils/isoc/bget.c:875
    5508:	cb0303e3 	neg	x3, x3
/home/zliu/ubuntu-optee-rpi3/RPi3_OPTEE_3.1/optee_os/lib/libutils/isoc/bget.c:912
    550c:	f9000c82 	str	x2, [x4, #24]
/home/zliu/ubuntu-optee-rpi3/RPi3_OPTEE_3.1/optee_os/lib/libutils/isoc/bget.c:913
    5510:	f9400c41 	ldr	x1, [x2, #24]
    5514:	f9000822 	str	x2, [x1, #16]
/home/zliu/ubuntu-optee-rpi3/RPi3_OPTEE_3.1/optee_os/lib/libutils/isoc/bget.c:914
    5518:	f81f8003 	stur	x3, [x0, #-8]
    551c:	17ffffcf 	b	5458 <brel+0x118>
/home/zliu/ubuntu-optee-rpi3/RPi3_OPTEE_3.1/optee_os/lib/libutils/isoc/bget.c:929
    5520:	f9400c04 	ldr	x4, [x0, #24]
    5524:	f9400885 	ldr	x5, [x4, #16]
    5528:	eb05001f 	cmp	x0, x5
    552c:	54000140 	b.eq	5554 <brel+0x214>  // b.none
/home/zliu/ubuntu-optee-rpi3/RPi3_OPTEE_3.1/optee_os/lib/libutils/isoc/bget.c:929 (discriminator 1)
    5530:	b0000023 	adrp	x3, a000 <__mpa_abs_cmp+0x5c>
    5534:	91398063 	add	x3, x3, #0xe60
    5538:	f0000021 	adrp	x1, c000 <__func__.3927+0x294>
    553c:	f0000020 	adrp	x0, c000 <__func__.3927+0x294>
    5540:	9100a063 	add	x3, x3, #0x28
    5544:	52807422 	mov	w2, #0x3a1                 	// #929
    5548:	910a2c21 	add	x1, x1, #0x28b
    554c:	910fc400 	add	x0, x0, #0x3f1
    5550:	17ffff8a 	b	5378 <brel+0x38>
/home/zliu/ubuntu-optee-rpi3/RPi3_OPTEE_3.1/optee_os/lib/libutils/isoc/bget.c:930
    5554:	f9400805 	ldr	x5, [x0, #16]
    5558:	f9400ca6 	ldr	x6, [x5, #24]
    555c:	eb06001f 	cmp	x0, x6
    5560:	54000140 	b.eq	5588 <brel+0x248>  // b.none
/home/zliu/ubuntu-optee-rpi3/RPi3_OPTEE_3.1/optee_os/lib/libutils/isoc/bget.c:930 (discriminator 1)
    5564:	b0000023 	adrp	x3, a000 <__mpa_abs_cmp+0x5c>
    5568:	91398063 	add	x3, x3, #0xe60
    556c:	f0000021 	adrp	x1, c000 <__func__.3927+0x294>
    5570:	f0000020 	adrp	x0, c000 <__func__.3927+0x294>
    5574:	9100a063 	add	x3, x3, #0x28
    5578:	52807442 	mov	w2, #0x3a2                 	// #930
    557c:	910a2c21 	add	x1, x1, #0x28b
    5580:	91103800 	add	x0, x0, #0x40e
    5584:	17ffff7d 	b	5378 <brel+0x38>
/home/zliu/ubuntu-optee-rpi3/RPi3_OPTEE_3.1/optee_os/lib/libutils/isoc/bget.c:931
    5588:	f9000885 	str	x5, [x4, #16]
/home/zliu/ubuntu-optee-rpi3/RPi3_OPTEE_3.1/optee_os/lib/libutils/isoc/bget.c:932
    558c:	f9400800 	ldr	x0, [x0, #16]
    5590:	f9000c04 	str	x4, [x0, #24]
/home/zliu/ubuntu-optee-rpi3/RPi3_OPTEE_3.1/optee_os/lib/libutils/isoc/bget.c:933
    5594:	8b030020 	add	x0, x1, x3
    5598:	f9000440 	str	x0, [x2, #8]
/home/zliu/ubuntu-optee-rpi3/RPi3_OPTEE_3.1/optee_os/lib/libutils/isoc/bget.c:942
    559c:	8b000040 	add	x0, x2, x0
/home/zliu/ubuntu-optee-rpi3/RPi3_OPTEE_3.1/optee_os/lib/libutils/isoc/bget.c:948
    55a0:	f9400401 	ldr	x1, [x0, #8]
    55a4:	b7f80141 	tbnz	x1, #63, 55cc <brel+0x28c>
/home/zliu/ubuntu-optee-rpi3/RPi3_OPTEE_3.1/optee_os/lib/libutils/isoc/bget.c:948 (discriminator 1)
    55a8:	b0000023 	adrp	x3, a000 <__mpa_abs_cmp+0x5c>
    55ac:	91398063 	add	x3, x3, #0xe60
    55b0:	f0000021 	adrp	x1, c000 <__func__.3927+0x294>
    55b4:	f0000020 	adrp	x0, c000 <__func__.3927+0x294>
    55b8:	9100a063 	add	x3, x3, #0x28
    55bc:	52807682 	mov	w2, #0x3b4                 	// #948
    55c0:	910a2c21 	add	x1, x1, #0x28b
    55c4:	9110ac00 	add	x0, x0, #0x42b
    55c8:	17ffff6c 	b	5378 <brel+0x38>
/home/zliu/ubuntu-optee-rpi3/RPi3_OPTEE_3.1/optee_os/lib/libutils/isoc/bget.c:953
    55cc:	f9400441 	ldr	x1, [x2, #8]
    55d0:	f9000001 	str	x1, [x0]
/home/zliu/ubuntu-optee-rpi3/RPi3_OPTEE_3.1/optee_os/lib/libutils/isoc/bget.c:981
    55d4:	a8c17bfd 	ldp	x29, x30, [sp], #16
    55d8:	d65f03c0 	ret

00000000000055dc <bgetr>:
bgetr():
/home/zliu/ubuntu-optee-rpi3/RPi3_OPTEE_3.1/optee_os/lib/libutils/isoc/bget.c:800
    55dc:	a9bd7bfd 	stp	x29, x30, [sp, #-48]!
    55e0:	910003fd 	mov	x29, sp
    55e4:	a90153f3 	stp	x19, x20, [sp, #16]
    55e8:	aa0103f4 	mov	x20, x1
    55ec:	a9025bf5 	stp	x21, x22, [sp, #32]
    55f0:	aa0003f3 	mov	x19, x0
    55f4:	aa0203f6 	mov	x22, x2
/home/zliu/ubuntu-optee-rpi3/RPi3_OPTEE_3.1/optee_os/lib/libutils/isoc/bget.c:805
    55f8:	aa0203e1 	mov	x1, x2
    55fc:	aa1403e0 	mov	x0, x20
    5600:	97fffebe 	bl	50f8 <bget>
    5604:	aa0003f5 	mov	x21, x0
    5608:	b4000340 	cbz	x0, 5670 <bgetr+0x94>
/home/zliu/ubuntu-optee-rpi3/RPi3_OPTEE_3.1/optee_os/lib/libutils/isoc/bget.c:808
    560c:	b4000333 	cbz	x19, 5670 <bgetr+0x94>
/home/zliu/ubuntu-optee-rpi3/RPi3_OPTEE_3.1/optee_os/lib/libutils/isoc/bget.c:822
    5610:	f85f8262 	ldur	x2, [x19, #-8]
    5614:	928001e1 	mov	x1, #0xfffffffffffffff0    	// #-16
    5618:	cb020021 	sub	x1, x1, x2
/home/zliu/ubuntu-optee-rpi3/RPi3_OPTEE_3.1/optee_os/lib/libutils/isoc/bget.c:823
    561c:	f100003f 	cmp	x1, #0x0
    5620:	5400016c 	b.gt	564c <bgetr+0x70>
    5624:	b0000023 	adrp	x3, a000 <__mpa_abs_cmp+0x5c>
    5628:	91398063 	add	x3, x3, #0xe60
    562c:	9100c063 	add	x3, x3, #0x30
    5630:	f0000021 	adrp	x1, c000 <__func__.3927+0x294>
    5634:	f0000020 	adrp	x0, c000 <__func__.3927+0x294>
    5638:	910a2c21 	add	x1, x1, #0x28b
    563c:	9110f000 	add	x0, x0, #0x43c
    5640:	528066e2 	mov	w2, #0x337                 	// #823
    5644:	97fffc2f 	bl	4700 <_assert_log>
    5648:	97fffc3f 	bl	4744 <_assert_break>
/home/zliu/ubuntu-optee-rpi3/RPi3_OPTEE_3.1/optee_os/lib/libutils/isoc/bget.c:824
    564c:	93407c23 	sxtw	x3, w1
    5650:	eb01029f 	cmp	x20, x1
    5654:	93407e82 	sxtw	x2, w20
    5658:	aa1303e1 	mov	x1, x19
    565c:	9a82a062 	csel	x2, x3, x2, ge  // ge = tcont
    5660:	940002ab 	bl	610c <memcpy>
/home/zliu/ubuntu-optee-rpi3/RPi3_OPTEE_3.1/optee_os/lib/libutils/isoc/bget.c:826
    5664:	aa1603e1 	mov	x1, x22
    5668:	aa1303e0 	mov	x0, x19
    566c:	97ffff35 	bl	5340 <brel>
/home/zliu/ubuntu-optee-rpi3/RPi3_OPTEE_3.1/optee_os/lib/libutils/isoc/bget.c:828
    5670:	aa1503e0 	mov	x0, x21
    5674:	a94153f3 	ldp	x19, x20, [sp, #16]
    5678:	a9425bf5 	ldp	x21, x22, [sp, #32]
    567c:	a8c37bfd 	ldp	x29, x30, [sp], #48
    5680:	d65f03c0 	ret

0000000000005684 <bpool>:
bpool():
/home/zliu/ubuntu-optee-rpi3/RPi3_OPTEE_3.1/optee_os/lib/libutils/isoc/bget.c:1007
    5684:	a9bf7bfd 	stp	x29, x30, [sp, #-16]!
/home/zliu/ubuntu-optee-rpi3/RPi3_OPTEE_3.1/optee_os/lib/libutils/isoc/bget.c:1012
    5688:	927cec21 	and	x1, x1, #0xfffffffffffffff0
/home/zliu/ubuntu-optee-rpi3/RPi3_OPTEE_3.1/optee_os/lib/libutils/isoc/bget.c:1031
    568c:	f1004021 	subs	x1, x1, #0x10
/home/zliu/ubuntu-optee-rpi3/RPi3_OPTEE_3.1/optee_os/lib/libutils/isoc/bget.c:1007
    5690:	910003fd 	mov	x29, sp
/home/zliu/ubuntu-optee-rpi3/RPi3_OPTEE_3.1/optee_os/lib/libutils/isoc/bget.c:1031
    5694:	54000165 	b.pl	56c0 <bpool+0x3c>  // b.nfrst
    5698:	b0000023 	adrp	x3, a000 <__mpa_abs_cmp+0x5c>
    569c:	91398063 	add	x3, x3, #0xe60
    56a0:	f0000021 	adrp	x1, c000 <__func__.3927+0x294>
    56a4:	f0000020 	adrp	x0, c000 <__func__.3927+0x294>
    56a8:	9100e063 	add	x3, x3, #0x38
    56ac:	910a2c21 	add	x1, x1, #0x28b
    56b0:	91111800 	add	x0, x0, #0x446
    56b4:	528080e2 	mov	w2, #0x407                 	// #1031
/home/zliu/ubuntu-optee-rpi3/RPi3_OPTEE_3.1/optee_os/lib/libutils/isoc/bget.c:1041 (discriminator 1)
    56b8:	97fffc12 	bl	4700 <_assert_log>
    56bc:	97fffc22 	bl	4744 <_assert_break>
/home/zliu/ubuntu-optee-rpi3/RPi3_OPTEE_3.1/optee_os/lib/libutils/isoc/bget.c:1041
    56c0:	f9400c44 	ldr	x4, [x2, #24]
    56c4:	f9400883 	ldr	x3, [x4, #16]
/home/zliu/ubuntu-optee-rpi3/RPi3_OPTEE_3.1/optee_os/lib/libutils/isoc/bget.c:1037
    56c8:	f900001f 	str	xzr, [x0]
/home/zliu/ubuntu-optee-rpi3/RPi3_OPTEE_3.1/optee_os/lib/libutils/isoc/bget.c:1041
    56cc:	eb02007f 	cmp	x3, x2
    56d0:	54000140 	b.eq	56f8 <bpool+0x74>  // b.none
/home/zliu/ubuntu-optee-rpi3/RPi3_OPTEE_3.1/optee_os/lib/libutils/isoc/bget.c:1041 (discriminator 1)
    56d4:	b0000023 	adrp	x3, a000 <__mpa_abs_cmp+0x5c>
    56d8:	91398063 	add	x3, x3, #0xe60
    56dc:	f0000021 	adrp	x1, c000 <__func__.3927+0x294>
    56e0:	f0000020 	adrp	x0, c000 <__func__.3927+0x294>
    56e4:	9100e063 	add	x3, x3, #0x38
    56e8:	52808222 	mov	w2, #0x411                 	// #1041
    56ec:	910a2c21 	add	x1, x1, #0x28b
    56f0:	91085400 	add	x0, x0, #0x215
    56f4:	17fffff1 	b	56b8 <bpool+0x34>
/home/zliu/ubuntu-optee-rpi3/RPi3_OPTEE_3.1/optee_os/lib/libutils/isoc/bget.c:1042
    56f8:	f9400862 	ldr	x2, [x3, #16]
    56fc:	f9400c42 	ldr	x2, [x2, #24]
    5700:	eb02007f 	cmp	x3, x2
    5704:	54000140 	b.eq	572c <bpool+0xa8>  // b.none
/home/zliu/ubuntu-optee-rpi3/RPi3_OPTEE_3.1/optee_os/lib/libutils/isoc/bget.c:1042 (discriminator 1)
    5708:	b0000023 	adrp	x3, a000 <__mpa_abs_cmp+0x5c>
    570c:	91398063 	add	x3, x3, #0xe60
    5710:	f0000021 	adrp	x1, c000 <__func__.3927+0x294>
    5714:	f0000020 	adrp	x0, c000 <__func__.3927+0x294>
    5718:	9100e063 	add	x3, x3, #0x38
    571c:	52808242 	mov	w2, #0x412                 	// #1042
    5720:	910a2c21 	add	x1, x1, #0x28b
    5724:	91094000 	add	x0, x0, #0x250
    5728:	17ffffe4 	b	56b8 <bpool+0x34>
/home/zliu/ubuntu-optee-rpi3/RPi3_OPTEE_3.1/optee_os/lib/libutils/isoc/bget.c:1044
    572c:	a9011003 	stp	x3, x4, [x0, #16]
/home/zliu/ubuntu-optee-rpi3/RPi3_OPTEE_3.1/optee_os/lib/libutils/isoc/bget.c:1045
    5730:	f9000c60 	str	x0, [x3, #24]
/home/zliu/ubuntu-optee-rpi3/RPi3_OPTEE_3.1/optee_os/lib/libutils/isoc/bget.c:1046
    5734:	f9400c02 	ldr	x2, [x0, #24]
    5738:	f9000840 	str	x0, [x2, #16]
/home/zliu/ubuntu-optee-rpi3/RPi3_OPTEE_3.1/optee_os/lib/libutils/isoc/bget.c:1062
    573c:	8b010002 	add	x2, x0, x1
/home/zliu/ubuntu-optee-rpi3/RPi3_OPTEE_3.1/optee_os/lib/libutils/isoc/bget.c:1057
    5740:	f9000401 	str	x1, [x0, #8]
/home/zliu/ubuntu-optee-rpi3/RPi3_OPTEE_3.1/optee_os/lib/libutils/isoc/bget.c:1063
    5744:	f8216801 	str	x1, [x0, x1]
/home/zliu/ubuntu-optee-rpi3/RPi3_OPTEE_3.1/optee_os/lib/libutils/isoc/bget.c:1066
    5748:	d2f00000 	mov	x0, #0x8000000000000000    	// #-9223372036854775808
    574c:	f9000440 	str	x0, [x2, #8]
/home/zliu/ubuntu-optee-rpi3/RPi3_OPTEE_3.1/optee_os/lib/libutils/isoc/bget.c:1067
    5750:	a8c17bfd 	ldp	x29, x30, [sp], #16
    5754:	d65f03c0 	ret

0000000000005758 <bstats>:
bstats():
/home/zliu/ubuntu-optee-rpi3/RPi3_OPTEE_3.1/optee_os/lib/libutils/isoc/bget.c:1080
    5758:	f94014a7 	ldr	x7, [x5, #40]
/home/zliu/ubuntu-optee-rpi3/RPi3_OPTEE_3.1/optee_os/lib/libutils/isoc/bget.c:1078
    575c:	f94008a6 	ldr	x6, [x5, #16]
/home/zliu/ubuntu-optee-rpi3/RPi3_OPTEE_3.1/optee_os/lib/libutils/isoc/bget.c:1080
    5760:	f9000067 	str	x7, [x3]
/home/zliu/ubuntu-optee-rpi3/RPi3_OPTEE_3.1/optee_os/lib/libutils/isoc/bget.c:1081
    5764:	f94018a3 	ldr	x3, [x5, #48]
    5768:	f9000083 	str	x3, [x4]
/home/zliu/ubuntu-optee-rpi3/RPi3_OPTEE_3.1/optee_os/lib/libutils/isoc/bget.c:1082
    576c:	f94010a3 	ldr	x3, [x5, #32]
    5770:	f9000003 	str	x3, [x0]
/home/zliu/ubuntu-optee-rpi3/RPi3_OPTEE_3.1/optee_os/lib/libutils/isoc/bget.c:1084
    5774:	92800000 	mov	x0, #0xffffffffffffffff    	// #-1
/home/zliu/ubuntu-optee-rpi3/RPi3_OPTEE_3.1/optee_os/lib/libutils/isoc/bget.c:1083
    5778:	f900003f 	str	xzr, [x1]
/home/zliu/ubuntu-optee-rpi3/RPi3_OPTEE_3.1/optee_os/lib/libutils/isoc/bget.c:1084
    577c:	f9000040 	str	x0, [x2]
/home/zliu/ubuntu-optee-rpi3/RPi3_OPTEE_3.1/optee_os/lib/libutils/isoc/bget.c:1085
    5780:	eb0500df 	cmp	x6, x5
    5784:	54000041 	b.ne	578c <bstats+0x34>  // b.any
    5788:	d65f03c0 	ret
/home/zliu/ubuntu-optee-rpi3/RPi3_OPTEE_3.1/optee_os/lib/libutils/isoc/bget.c:1086
    578c:	f94004c3 	ldr	x3, [x6, #8]
    5790:	f100007f 	cmp	x3, #0x0
    5794:	540001ac 	b.gt	57c8 <bstats+0x70>
/home/zliu/ubuntu-optee-rpi3/RPi3_OPTEE_3.1/optee_os/lib/libutils/isoc/bget.c:1086 (discriminator 1)
    5798:	b0000023 	adrp	x3, a000 <__mpa_abs_cmp+0x5c>
    579c:	91398063 	add	x3, x3, #0xe60
    57a0:	91010063 	add	x3, x3, #0x40
    57a4:	f0000021 	adrp	x1, c000 <__func__.3927+0x294>
    57a8:	f0000020 	adrp	x0, c000 <__func__.3927+0x294>
    57ac:	910a2c21 	add	x1, x1, #0x28b
    57b0:	9111ec00 	add	x0, x0, #0x47b
/home/zliu/ubuntu-optee-rpi3/RPi3_OPTEE_3.1/optee_os/lib/libutils/isoc/bget.c:1077 (discriminator 1)
    57b4:	a9bf7bfd 	stp	x29, x30, [sp, #-16]!
/home/zliu/ubuntu-optee-rpi3/RPi3_OPTEE_3.1/optee_os/lib/libutils/isoc/bget.c:1086 (discriminator 1)
    57b8:	528087c2 	mov	w2, #0x43e                 	// #1086
/home/zliu/ubuntu-optee-rpi3/RPi3_OPTEE_3.1/optee_os/lib/libutils/isoc/bget.c:1077 (discriminator 1)
    57bc:	910003fd 	mov	x29, sp
/home/zliu/ubuntu-optee-rpi3/RPi3_OPTEE_3.1/optee_os/lib/libutils/isoc/bget.c:1086 (discriminator 1)
    57c0:	97fffbd0 	bl	4700 <_assert_log>
    57c4:	97fffbe0 	bl	4744 <_assert_break>
/home/zliu/ubuntu-optee-rpi3/RPi3_OPTEE_3.1/optee_os/lib/libutils/isoc/bget.c:1087
    57c8:	f9400020 	ldr	x0, [x1]
    57cc:	8b030000 	add	x0, x0, x3
    57d0:	f9000020 	str	x0, [x1]
/home/zliu/ubuntu-optee-rpi3/RPi3_OPTEE_3.1/optee_os/lib/libutils/isoc/bget.c:1088
    57d4:	f9400043 	ldr	x3, [x2]
    57d8:	f94004c0 	ldr	x0, [x6, #8]
    57dc:	eb03001f 	cmp	x0, x3
    57e0:	5400004d 	b.le	57e8 <bstats+0x90>
/home/zliu/ubuntu-optee-rpi3/RPi3_OPTEE_3.1/optee_os/lib/libutils/isoc/bget.c:1089
    57e4:	f9000040 	str	x0, [x2]
/home/zliu/ubuntu-optee-rpi3/RPi3_OPTEE_3.1/optee_os/lib/libutils/isoc/bget.c:1091
    57e8:	f94008c6 	ldr	x6, [x6, #16]
    57ec:	17ffffe5 	b	5780 <bstats+0x28>

00000000000057f0 <malloc_reset_stats>:
malloc_reset_stats():
/home/zliu/ubuntu-optee-rpi3/RPi3_OPTEE_3.1/optee_os/lib/libutils/isoc/bget_malloc.c:206
    57f0:	b0000040 	adrp	x0, e000 <mempool_u32+0xe50>
    57f4:	9133c000 	add	x0, x0, #0xcf0
    57f8:	b900241f 	str	wzr, [x0, #36]
/home/zliu/ubuntu-optee-rpi3/RPi3_OPTEE_3.1/optee_os/lib/libutils/isoc/bget_malloc.c:208
    57fc:	2905fc1f 	stp	wzr, wzr, [x0, #44]
/home/zliu/ubuntu-optee-rpi3/RPi3_OPTEE_3.1/optee_os/lib/libutils/isoc/bget_malloc.c:209
    5800:	b900341f 	str	wzr, [x0, #52]
    5804:	d65f03c0 	ret

0000000000005808 <malloc_get_stats>:
malloc_get_stats():
/home/zliu/ubuntu-optee-rpi3/RPi3_OPTEE_3.1/optee_os/lib/libutils/isoc/bget_malloc.c:214
    5808:	a9bf7bfd 	stp	x29, x30, [sp, #-16]!
/home/zliu/ubuntu-optee-rpi3/RPi3_OPTEE_3.1/optee_os/lib/libutils/isoc/bget_malloc.c:217
    580c:	d2800702 	mov	x2, #0x38                  	// #56
    5810:	b0000041 	adrp	x1, e000 <mempool_u32+0xe50>
    5814:	9133c021 	add	x1, x1, #0xcf0
/home/zliu/ubuntu-optee-rpi3/RPi3_OPTEE_3.1/optee_os/lib/libutils/isoc/bget_malloc.c:214
    5818:	910003fd 	mov	x29, sp
/home/zliu/ubuntu-optee-rpi3/RPi3_OPTEE_3.1/optee_os/lib/libutils/isoc/bget_malloc.c:217
    581c:	9400023c 	bl	610c <memcpy>
    5820:	aa0003e3 	mov	x3, x0
/home/zliu/ubuntu-optee-rpi3/RPi3_OPTEE_3.1/optee_os/lib/libutils/isoc/bget_malloc.c:218
    5824:	90000040 	adrp	x0, d000 <ta_props>
    5828:	f9409000 	ldr	x0, [x0, #288]
    582c:	b9002060 	str	w0, [x3, #32]
/home/zliu/ubuntu-optee-rpi3/RPi3_OPTEE_3.1/optee_os/lib/libutils/isoc/bget_malloc.c:220
    5830:	a8c17bfd 	ldp	x29, x30, [sp], #16
    5834:	d65f03c0 	ret

0000000000005838 <malloc>:
malloc():
/home/zliu/ubuntu-optee-rpi3/RPi3_OPTEE_3.1/optee_os/lib/libutils/isoc/bget_malloc.c:832
    5838:	a9bd7bfd 	stp	x29, x30, [sp, #-48]!
raw_malloc():
/home/zliu/ubuntu-optee-rpi3/RPi3_OPTEE_3.1/optee_os/lib/libutils/isoc/bget_malloc.c:331
    583c:	f100001f 	cmp	x0, #0x0
malloc():
/home/zliu/ubuntu-optee-rpi3/RPi3_OPTEE_3.1/optee_os/lib/libutils/isoc/bget_malloc.c:832
    5840:	910003fd 	mov	x29, sp
    5844:	a90153f3 	stp	x19, x20, [sp, #16]
raw_malloc():
/home/zliu/ubuntu-optee-rpi3/RPi3_OPTEE_3.1/optee_os/lib/libutils/isoc/bget_malloc.c:334
    5848:	90000053 	adrp	x19, d000 <ta_props>
    584c:	91040273 	add	x19, x19, #0x100
malloc():
/home/zliu/ubuntu-optee-rpi3/RPi3_OPTEE_3.1/optee_os/lib/libutils/isoc/bget_malloc.c:832
    5850:	f90013f5 	str	x21, [sp, #32]
    5854:	aa0003f4 	mov	x20, x0
raw_malloc():
/home/zliu/ubuntu-optee-rpi3/RPi3_OPTEE_3.1/optee_os/lib/libutils/isoc/bget_malloc.c:334
    5858:	aa1303e1 	mov	x1, x19
    585c:	9a9f1400 	csinc	x0, x0, xzr, ne  // ne = any
    5860:	97fffe26 	bl	50f8 <bget>
/home/zliu/ubuntu-optee-rpi3/RPi3_OPTEE_3.1/optee_os/lib/libutils/isoc/bget_malloc.c:336
    5864:	f9401262 	ldr	x2, [x19, #32]
/home/zliu/ubuntu-optee-rpi3/RPi3_OPTEE_3.1/optee_os/lib/libutils/isoc/bget_malloc.c:334
    5868:	aa0003f5 	mov	x21, x0
/home/zliu/ubuntu-optee-rpi3/RPi3_OPTEE_3.1/optee_os/lib/libutils/isoc/bget_malloc.c:336
    586c:	aa1403e1 	mov	x1, x20
    5870:	97fffdce 	bl	4fa8 <raw_malloc_return_hook.isra.3>
malloc():
/home/zliu/ubuntu-optee-rpi3/RPi3_OPTEE_3.1/optee_os/lib/libutils/isoc/bget_malloc.c:839
    5874:	aa1503e0 	mov	x0, x21
    5878:	f94013f5 	ldr	x21, [sp, #32]
    587c:	a94153f3 	ldp	x19, x20, [sp, #16]
    5880:	a8c37bfd 	ldp	x29, x30, [sp], #48
    5884:	d65f03c0 	ret

0000000000005888 <free>:
raw_free():
/home/zliu/ubuntu-optee-rpi3/RPi3_OPTEE_3.1/optee_os/lib/libutils/isoc/bget_malloc.c:345
    5888:	b4000080 	cbz	x0, 5898 <free+0x10>
/home/zliu/ubuntu-optee-rpi3/RPi3_OPTEE_3.1/optee_os/lib/libutils/isoc/bget_malloc.c:346
    588c:	90000041 	adrp	x1, d000 <ta_props>
    5890:	91040021 	add	x1, x1, #0x100
    5894:	17fffeab 	b	5340 <brel>
    5898:	d65f03c0 	ret

000000000000589c <calloc>:
calloc():
/home/zliu/ubuntu-optee-rpi3/RPi3_OPTEE_3.1/optee_os/lib/libutils/isoc/bget_malloc.c:850
    589c:	a9bd7bfd 	stp	x29, x30, [sp, #-48]!
    58a0:	910003fd 	mov	x29, sp
    58a4:	a90153f3 	stp	x19, x20, [sp, #16]
raw_calloc():
/home/zliu/ubuntu-optee-rpi3/RPi3_OPTEE_3.1/optee_os/lib/libutils/isoc/bget_malloc.c:352
    58a8:	9b017c13 	mul	x19, x0, x1
calloc():
/home/zliu/ubuntu-optee-rpi3/RPi3_OPTEE_3.1/optee_os/lib/libutils/isoc/bget_malloc.c:850
    58ac:	f90013f5 	str	x21, [sp, #32]
    58b0:	90000054 	adrp	x20, d000 <ta_props>
raw_calloc():
/home/zliu/ubuntu-optee-rpi3/RPi3_OPTEE_3.1/optee_os/lib/libutils/isoc/bget_malloc.c:358
    58b4:	eb13001f 	cmp	x0, x19
/home/zliu/ubuntu-optee-rpi3/RPi3_OPTEE_3.1/optee_os/lib/libutils/isoc/bget_malloc.c:353
    58b8:	d2800015 	mov	x21, #0x0                   	// #0
/home/zliu/ubuntu-optee-rpi3/RPi3_OPTEE_3.1/optee_os/lib/libutils/isoc/bget_malloc.c:358
    58bc:	fa539022 	ccmp	x1, x19, #0x2, ls  // ls = plast
    58c0:	540000c8 	b.hi	58d8 <calloc+0x3c>  // b.pmore
/home/zliu/ubuntu-optee-rpi3/RPi3_OPTEE_3.1/optee_os/lib/libutils/isoc/bget_malloc.c:362
    58c4:	f100027f 	cmp	x19, #0x0
/home/zliu/ubuntu-optee-rpi3/RPi3_OPTEE_3.1/optee_os/lib/libutils/isoc/bget_malloc.c:365
    58c8:	91040281 	add	x1, x20, #0x100
    58cc:	9a9f1660 	csinc	x0, x19, xzr, ne  // ne = any
    58d0:	97fffe7a 	bl	52b8 <bgetz>
    58d4:	aa0003f5 	mov	x21, x0
/home/zliu/ubuntu-optee-rpi3/RPi3_OPTEE_3.1/optee_os/lib/libutils/isoc/bget_malloc.c:367
    58d8:	91040294 	add	x20, x20, #0x100
    58dc:	aa1303e1 	mov	x1, x19
    58e0:	aa1503e0 	mov	x0, x21
    58e4:	f9401282 	ldr	x2, [x20, #32]
    58e8:	97fffdb0 	bl	4fa8 <raw_malloc_return_hook.isra.3>
calloc():
/home/zliu/ubuntu-optee-rpi3/RPi3_OPTEE_3.1/optee_os/lib/libutils/isoc/bget_malloc.c:857
    58ec:	aa1503e0 	mov	x0, x21
    58f0:	f94013f5 	ldr	x21, [sp, #32]
    58f4:	a94153f3 	ldp	x19, x20, [sp, #16]
    58f8:	a8c37bfd 	ldp	x29, x30, [sp], #48
    58fc:	d65f03c0 	ret

0000000000005900 <realloc>:
realloc():
/home/zliu/ubuntu-optee-rpi3/RPi3_OPTEE_3.1/optee_os/lib/libutils/isoc/bget_malloc.c:865
    5900:	a9bd7bfd 	stp	x29, x30, [sp, #-48]!
raw_realloc():
/home/zliu/ubuntu-optee-rpi3/RPi3_OPTEE_3.1/optee_os/lib/libutils/isoc/bget_malloc.c:385
    5904:	f100003f 	cmp	x1, #0x0
realloc():
/home/zliu/ubuntu-optee-rpi3/RPi3_OPTEE_3.1/optee_os/lib/libutils/isoc/bget_malloc.c:865
    5908:	910003fd 	mov	x29, sp
    590c:	a90153f3 	stp	x19, x20, [sp, #16]
raw_realloc():
/home/zliu/ubuntu-optee-rpi3/RPi3_OPTEE_3.1/optee_os/lib/libutils/isoc/bget_malloc.c:388
    5910:	90000053 	adrp	x19, d000 <ta_props>
    5914:	91040273 	add	x19, x19, #0x100
realloc():
/home/zliu/ubuntu-optee-rpi3/RPi3_OPTEE_3.1/optee_os/lib/libutils/isoc/bget_malloc.c:865
    5918:	f90013f5 	str	x21, [sp, #32]
    591c:	aa0103f4 	mov	x20, x1
raw_realloc():
/home/zliu/ubuntu-optee-rpi3/RPi3_OPTEE_3.1/optee_os/lib/libutils/isoc/bget_malloc.c:388
    5920:	aa1303e2 	mov	x2, x19
    5924:	9a9f1421 	csinc	x1, x1, xzr, ne  // ne = any
    5928:	97ffff2d 	bl	55dc <bgetr>
/home/zliu/ubuntu-optee-rpi3/RPi3_OPTEE_3.1/optee_os/lib/libutils/isoc/bget_malloc.c:390
    592c:	f9401262 	ldr	x2, [x19, #32]
/home/zliu/ubuntu-optee-rpi3/RPi3_OPTEE_3.1/optee_os/lib/libutils/isoc/bget_malloc.c:388
    5930:	aa0003f5 	mov	x21, x0
/home/zliu/ubuntu-optee-rpi3/RPi3_OPTEE_3.1/optee_os/lib/libutils/isoc/bget_malloc.c:390
    5934:	aa1403e1 	mov	x1, x20
    5938:	97fffd9c 	bl	4fa8 <raw_malloc_return_hook.isra.3>
realloc():
/home/zliu/ubuntu-optee-rpi3/RPi3_OPTEE_3.1/optee_os/lib/libutils/isoc/bget_malloc.c:872
    593c:	aa1503e0 	mov	x0, x21
    5940:	f94013f5 	ldr	x21, [sp, #32]
    5944:	a94153f3 	ldp	x19, x20, [sp, #16]
    5948:	a8c37bfd 	ldp	x29, x30, [sp], #48
    594c:	d65f03c0 	ret

0000000000005950 <memalign>:
memalign():
/home/zliu/ubuntu-optee-rpi3/RPi3_OPTEE_3.1/optee_os/lib/libutils/isoc/bget_malloc.c:875
    5950:	a9bc7bfd 	stp	x29, x30, [sp, #-64]!
    5954:	910003fd 	mov	x29, sp
    5958:	a90153f3 	stp	x19, x20, [sp, #16]
    595c:	a9025bf5 	stp	x21, x22, [sp, #32]
    5960:	f9001bf7 	str	x23, [sp, #48]
raw_memalign():
/home/zliu/ubuntu-optee-rpi3/RPi3_OPTEE_3.1/optee_os/lib/libutils/isoc/bget_malloc.c:550
    5964:	b4001ce0 	cbz	x0, 5d00 <memalign+0x3b0>
    5968:	cb0003f3 	neg	x19, x0
    596c:	ea33001f 	bics	xzr, x0, x19
    5970:	54001c81 	b.ne	5d00 <memalign+0x3b0>  // b.any
    5974:	aa0103f5 	mov	x21, x1
    5978:	aa0003f4 	mov	x20, x0
/home/zliu/ubuntu-optee-rpi3/RPi3_OPTEE_3.1/optee_os/lib/libutils/isoc/bget_malloc.c:557
    597c:	f100401f 	cmp	x0, #0x10
    5980:	54000228 	b.hi	59c4 <memalign+0x74>  // b.pmore
raw_malloc():
/home/zliu/ubuntu-optee-rpi3/RPi3_OPTEE_3.1/optee_os/lib/libutils/isoc/bget_malloc.c:331
    5984:	f100003f 	cmp	x1, #0x0
/home/zliu/ubuntu-optee-rpi3/RPi3_OPTEE_3.1/optee_os/lib/libutils/isoc/bget_malloc.c:334
    5988:	90000054 	adrp	x20, d000 <ta_props>
    598c:	91040294 	add	x20, x20, #0x100
    5990:	9a9f16a0 	csinc	x0, x21, xzr, ne  // ne = any
    5994:	aa1403e1 	mov	x1, x20
    5998:	97fffdd8 	bl	50f8 <bget>
    599c:	aa0003f3 	mov	x19, x0
/home/zliu/ubuntu-optee-rpi3/RPi3_OPTEE_3.1/optee_os/lib/libutils/isoc/bget_malloc.c:336
    59a0:	f9401282 	ldr	x2, [x20, #32]
    59a4:	aa1503e1 	mov	x1, x21
raw_memalign():
/home/zliu/ubuntu-optee-rpi3/RPi3_OPTEE_3.1/optee_os/lib/libutils/isoc/bget_malloc.c:604
    59a8:	97fffd80 	bl	4fa8 <raw_malloc_return_hook.isra.3>
memalign():
/home/zliu/ubuntu-optee-rpi3/RPi3_OPTEE_3.1/optee_os/lib/libutils/isoc/bget_malloc.c:882
    59ac:	aa1303e0 	mov	x0, x19
    59b0:	f9401bf7 	ldr	x23, [sp, #48]
    59b4:	a94153f3 	ldp	x19, x20, [sp, #16]
    59b8:	a9425bf5 	ldp	x21, x22, [sp, #32]
    59bc:	a8c47bfd 	ldp	x29, x30, [sp], #64
    59c0:	d65f03c0 	ret
raw_memalign():
/home/zliu/ubuntu-optee-rpi3/RPi3_OPTEE_3.1/optee_os/lib/libutils/isoc/bget_malloc.c:560
    59c4:	91008037 	add	x23, x1, #0x20
    59c8:	8b0002f7 	add	x23, x23, x0
/home/zliu/ubuntu-optee-rpi3/RPi3_OPTEE_3.1/optee_os/lib/libutils/isoc/bget_malloc.c:564
    59cc:	eb17001f 	cmp	x0, x23
    59d0:	fa579022 	ccmp	x1, x23, #0x2, ls  // ls = plast
    59d4:	54001968 	b.hi	5d00 <memalign+0x3b0>  // b.pmore
/home/zliu/ubuntu-optee-rpi3/RPi3_OPTEE_3.1/optee_os/lib/libutils/isoc/bget_malloc.c:567
    59d8:	90000056 	adrp	x22, d000 <ta_props>
    59dc:	910402c1 	add	x1, x22, #0x100
    59e0:	aa1703e0 	mov	x0, x23
    59e4:	97fffdc5 	bl	50f8 <bget>
    59e8:	aa0003e1 	mov	x1, x0
/home/zliu/ubuntu-optee-rpi3/RPi3_OPTEE_3.1/optee_os/lib/libutils/isoc/bget_malloc.c:568
    59ec:	b40017e0 	cbz	x0, 5ce8 <memalign+0x398>
/home/zliu/ubuntu-optee-rpi3/RPi3_OPTEE_3.1/optee_os/lib/libutils/isoc/bget_malloc.c:571
    59f0:	d1000680 	sub	x0, x20, #0x1
    59f4:	ea00003f 	tst	x1, x0
    59f8:	54000a80 	b.eq	5b48 <memalign+0x1f8>  // b.none
/home/zliu/ubuntu-optee-rpi3/RPi3_OPTEE_3.1/optee_os/lib/libutils/isoc/bget_malloc.c:584
    59fc:	8b010280 	add	x0, x20, x1
/home/zliu/ubuntu-optee-rpi3/RPi3_OPTEE_3.1/optee_os/lib/libutils/isoc/bget_malloc.c:589
    5a00:	8b170037 	add	x23, x1, x23
/home/zliu/ubuntu-optee-rpi3/RPi3_OPTEE_3.1/optee_os/lib/libutils/isoc/bget_malloc.c:585
    5a04:	8a000273 	and	x19, x19, x0
/home/zliu/ubuntu-optee-rpi3/RPi3_OPTEE_3.1/optee_os/lib/libutils/isoc/bget_malloc.c:587
    5a08:	cb010260 	sub	x0, x19, x1
/home/zliu/ubuntu-optee-rpi3/RPi3_OPTEE_3.1/optee_os/lib/libutils/isoc/bget_malloc.c:588
    5a0c:	8b140274 	add	x20, x19, x20
    5a10:	f1007c1f 	cmp	x0, #0x1f
    5a14:	9a939293 	csel	x19, x20, x19, ls  // ls = plast
/home/zliu/ubuntu-optee-rpi3/RPi3_OPTEE_3.1/optee_os/lib/libutils/isoc/bget_malloc.c:589
    5a18:	8b1302a0 	add	x0, x21, x19
    5a1c:	eb17001f 	cmp	x0, x23
    5a20:	54000169 	b.ls	5a4c <memalign+0xfc>  // b.plast
    5a24:	b0000023 	adrp	x3, a000 <__mpa_abs_cmp+0x5c>
    5a28:	91398063 	add	x3, x3, #0xe60
    5a2c:	f0000021 	adrp	x1, c000 <__func__.3927+0x294>
    5a30:	f0000020 	adrp	x0, c000 <__func__.3927+0x294>
    5a34:	91012063 	add	x3, x3, #0x48
    5a38:	9106e421 	add	x1, x1, #0x1b9
    5a3c:	91122c00 	add	x0, x0, #0x48b
    5a40:	528049a2 	mov	w2, #0x24d                 	// #589
brel_before():
/home/zliu/ubuntu-optee-rpi3/RPi3_OPTEE_3.1/optee_os/lib/libutils/isoc/bget_malloc.c:426
    5a44:	97fffb2f 	bl	4700 <_assert_log>
    5a48:	97fffb3f 	bl	4744 <_assert_break>
    5a4c:	eb13003f 	cmp	x1, x19
    5a50:	54000143 	b.cc	5a78 <memalign+0x128>  // b.lo, b.ul, b.last
    5a54:	b0000023 	adrp	x3, a000 <__mpa_abs_cmp+0x5c>
    5a58:	91398063 	add	x3, x3, #0xe60
    5a5c:	f0000021 	adrp	x1, c000 <__func__.3927+0x294>
    5a60:	f0000020 	adrp	x0, c000 <__func__.3927+0x294>
    5a64:	91016063 	add	x3, x3, #0x58
    5a68:	52803542 	mov	w2, #0x1aa                 	// #426
    5a6c:	9106e421 	add	x1, x1, #0x1b9
    5a70:	9112dc00 	add	x0, x0, #0x4b7
    5a74:	17fffff4 	b	5a44 <memalign+0xf4>
/home/zliu/ubuntu-optee-rpi3/RPi3_OPTEE_3.1/optee_os/lib/libutils/isoc/bget_malloc.c:428
    5a78:	cb010274 	sub	x20, x19, x1
/home/zliu/ubuntu-optee-rpi3/RPi3_OPTEE_3.1/optee_os/lib/libutils/isoc/bget_malloc.c:429
    5a7c:	f1007e9f 	cmp	x20, #0x1f
    5a80:	54000148 	b.hi	5aa8 <memalign+0x158>  // b.pmore
    5a84:	b0000023 	adrp	x3, a000 <__mpa_abs_cmp+0x5c>
    5a88:	91398063 	add	x3, x3, #0xe60
    5a8c:	f0000021 	adrp	x1, c000 <__func__.3927+0x294>
    5a90:	f0000020 	adrp	x0, c000 <__func__.3927+0x294>
    5a94:	91016063 	add	x3, x3, #0x58
    5a98:	528035a2 	mov	w2, #0x1ad                 	// #429
    5a9c:	9106e421 	add	x1, x1, #0x1b9
    5aa0:	91132800 	add	x0, x0, #0x4ca
    5aa4:	17ffffe8 	b	5a44 <memalign+0xf4>
/home/zliu/ubuntu-optee-rpi3/RPi3_OPTEE_3.1/optee_os/lib/libutils/isoc/bget_malloc.c:433
    5aa8:	f85f8022 	ldur	x2, [x1, #-8]
/home/zliu/ubuntu-optee-rpi3/RPi3_OPTEE_3.1/optee_os/lib/libutils/isoc/bget_malloc.c:432
    5aac:	d1004020 	sub	x0, x1, #0x10
/home/zliu/ubuntu-optee-rpi3/RPi3_OPTEE_3.1/optee_os/lib/libutils/isoc/bget_malloc.c:438
    5ab0:	f85f0021 	ldur	x1, [x1, #-16]
    5ab4:	8b020282 	add	x2, x20, x2
    5ab8:	b40003e1 	cbz	x1, 5b34 <memalign+0x1e4>
/home/zliu/ubuntu-optee-rpi3/RPi3_OPTEE_3.1/optee_os/lib/libutils/isoc/bget_malloc.c:443
    5abc:	cb010000 	sub	x0, x0, x1
/home/zliu/ubuntu-optee-rpi3/RPi3_OPTEE_3.1/optee_os/lib/libutils/isoc/bget_malloc.c:444
    5ac0:	f9400403 	ldr	x3, [x0, #8]
    5ac4:	eb03003f 	cmp	x1, x3
    5ac8:	54000140 	b.eq	5af0 <memalign+0x1a0>  // b.none
    5acc:	b0000023 	adrp	x3, a000 <__mpa_abs_cmp+0x5c>
    5ad0:	91398063 	add	x3, x3, #0xe60
    5ad4:	f0000021 	adrp	x1, c000 <__func__.3927+0x294>
    5ad8:	f0000020 	adrp	x0, c000 <__func__.3927+0x294>
    5adc:	91016063 	add	x3, x3, #0x58
    5ae0:	52803782 	mov	w2, #0x1bc                 	// #444
    5ae4:	9106e421 	add	x1, x1, #0x1b9
    5ae8:	9113c400 	add	x0, x0, #0x4f1
    5aec:	17ffffd6 	b	5a44 <memalign+0xf4>
/home/zliu/ubuntu-optee-rpi3/RPi3_OPTEE_3.1/optee_os/lib/libutils/isoc/bget_malloc.c:445
    5af0:	8b010281 	add	x1, x20, x1
    5af4:	f9000401 	str	x1, [x0, #8]
/home/zliu/ubuntu-optee-rpi3/RPi3_OPTEE_3.1/optee_os/lib/libutils/isoc/bget_malloc.c:450
    5af8:	a93f0a61 	stp	x1, x2, [x19, #-16]
/home/zliu/ubuntu-optee-rpi3/RPi3_OPTEE_3.1/optee_os/lib/libutils/isoc/bget_malloc.c:464
    5afc:	910402c1 	add	x1, x22, #0x100
    5b00:	f9401020 	ldr	x0, [x1, #32]
    5b04:	cb140014 	sub	x20, x0, x20
    5b08:	f9001034 	str	x20, [x1, #32]
/home/zliu/ubuntu-optee-rpi3/RPi3_OPTEE_3.1/optee_os/lib/libutils/isoc/bget_malloc.c:465
    5b0c:	b6f80214 	tbz	x20, #63, 5b4c <memalign+0x1fc>
    5b10:	b0000023 	adrp	x3, a000 <__mpa_abs_cmp+0x5c>
    5b14:	91398063 	add	x3, x3, #0xe60
    5b18:	91016063 	add	x3, x3, #0x58
    5b1c:	52803a22 	mov	w2, #0x1d1                 	// #465
brel_after():
/home/zliu/ubuntu-optee-rpi3/RPi3_OPTEE_3.1/optee_os/lib/libutils/isoc/bget_malloc.c:537
    5b20:	f0000021 	adrp	x1, c000 <__func__.3927+0x294>
    5b24:	f0000020 	adrp	x0, c000 <__func__.3927+0x294>
    5b28:	9106e421 	add	x1, x1, #0x1b9
    5b2c:	910da000 	add	x0, x0, #0x368
    5b30:	17ffffc5 	b	5a44 <memalign+0xf4>
brel_before():
/home/zliu/ubuntu-optee-rpi3/RPi3_OPTEE_3.1/optee_os/lib/libutils/isoc/bget_malloc.c:458
    5b34:	f81f8262 	stur	x2, [x19, #-8]
/home/zliu/ubuntu-optee-rpi3/RPi3_OPTEE_3.1/optee_os/lib/libutils/isoc/bget_malloc.c:460
    5b38:	aa1403e1 	mov	x1, x20
    5b3c:	d1004262 	sub	x2, x19, #0x10
    5b40:	97fffd2a 	bl	4fe8 <create_free_block.constprop.11>
    5b44:	17ffffee 	b	5afc <memalign+0x1ac>
raw_memalign():
/home/zliu/ubuntu-optee-rpi3/RPi3_OPTEE_3.1/optee_os/lib/libutils/isoc/bget_malloc.c:571
    5b48:	aa0103f3 	mov	x19, x1
brel_after():
/home/zliu/ubuntu-optee-rpi3/RPi3_OPTEE_3.1/optee_os/lib/libutils/isoc/bget_malloc.c:481
    5b4c:	f10042bf 	cmp	x21, #0x10
    5b50:	d2800200 	mov	x0, #0x10                  	// #16
    5b54:	9a8022a0 	csel	x0, x21, x0, cs  // cs = hs, nlast
/home/zliu/ubuntu-optee-rpi3/RPi3_OPTEE_3.1/optee_os/lib/libutils/isoc/bget_malloc.c:485
    5b58:	f85f8262 	ldur	x2, [x19, #-8]
/home/zliu/ubuntu-optee-rpi3/RPi3_OPTEE_3.1/optee_os/lib/libutils/isoc/bget_malloc.c:481
    5b5c:	91003c00 	add	x0, x0, #0xf
/home/zliu/ubuntu-optee-rpi3/RPi3_OPTEE_3.1/optee_os/lib/libutils/isoc/bget_malloc.c:485
    5b60:	d1004264 	sub	x4, x19, #0x10
/home/zliu/ubuntu-optee-rpi3/RPi3_OPTEE_3.1/optee_os/lib/libutils/isoc/bget_malloc.c:481
    5b64:	927cec00 	and	x0, x0, #0xfffffffffffffff0
/home/zliu/ubuntu-optee-rpi3/RPi3_OPTEE_3.1/optee_os/lib/libutils/isoc/bget_malloc.c:485
    5b68:	cb0203f4 	neg	x20, x2
/home/zliu/ubuntu-optee-rpi3/RPi3_OPTEE_3.1/optee_os/lib/libutils/isoc/bget_malloc.c:484
    5b6c:	91004001 	add	x1, x0, #0x10
/home/zliu/ubuntu-optee-rpi3/RPi3_OPTEE_3.1/optee_os/lib/libutils/isoc/bget_malloc.c:485
    5b70:	eb14003f 	cmp	x1, x20
    5b74:	5400014d 	b.le	5b9c <memalign+0x24c>
    5b78:	b0000023 	adrp	x3, a000 <__mpa_abs_cmp+0x5c>
    5b7c:	91398063 	add	x3, x3, #0xe60
    5b80:	f0000021 	adrp	x1, c000 <__func__.3927+0x294>
    5b84:	f0000020 	adrp	x0, c000 <__func__.3927+0x294>
    5b88:	9101a063 	add	x3, x3, #0x68
    5b8c:	52803ca2 	mov	w2, #0x1e5                 	// #485
    5b90:	9106e421 	add	x1, x1, #0x1b9
    5b94:	91144800 	add	x0, x0, #0x512
    5b98:	17ffffab 	b	5a44 <memalign+0xf4>
/home/zliu/ubuntu-optee-rpi3/RPi3_OPTEE_3.1/optee_os/lib/libutils/isoc/bget_malloc.c:491
    5b9c:	cb010294 	sub	x20, x20, x1
/home/zliu/ubuntu-optee-rpi3/RPi3_OPTEE_3.1/optee_os/lib/libutils/isoc/bget_malloc.c:492
    5ba0:	f1007e9f 	cmp	x20, #0x1f
    5ba4:	54000a4d 	b.le	5cec <memalign+0x39c>
/home/zliu/ubuntu-optee-rpi3/RPi3_OPTEE_3.1/optee_os/lib/libutils/isoc/bget_malloc.c:495
    5ba8:	928001e3 	mov	x3, #0xfffffffffffffff0    	// #-16
    5bac:	cb020063 	sub	x3, x3, x2
    5bb0:	8b030262 	add	x2, x19, x3
/home/zliu/ubuntu-optee-rpi3/RPi3_OPTEE_3.1/optee_os/lib/libutils/isoc/bget_malloc.c:499
    5bb4:	cb0103e1 	neg	x1, x1
    5bb8:	f9000481 	str	x1, [x4, #8]
    5bbc:	8b000260 	add	x0, x19, x0
/home/zliu/ubuntu-optee-rpi3/RPi3_OPTEE_3.1/optee_os/lib/libutils/isoc/bget_malloc.c:500
    5bc0:	f9400441 	ldr	x1, [x2, #8]
    5bc4:	f100003f 	cmp	x1, #0x0
    5bc8:	540008ad 	b.le	5cdc <memalign+0x38c>
/home/zliu/ubuntu-optee-rpi3/RPi3_OPTEE_3.1/optee_os/lib/libutils/isoc/bget_malloc.c:506
    5bcc:	f8636a63 	ldr	x3, [x19, x3]
    5bd0:	b4000143 	cbz	x3, 5bf8 <memalign+0x2a8>
    5bd4:	b0000023 	adrp	x3, a000 <__mpa_abs_cmp+0x5c>
    5bd8:	91398063 	add	x3, x3, #0xe60
    5bdc:	f0000021 	adrp	x1, c000 <__func__.3927+0x294>
    5be0:	f0000020 	adrp	x0, c000 <__func__.3927+0x294>
    5be4:	9101a063 	add	x3, x3, #0x68
    5be8:	52803f42 	mov	w2, #0x1fa                 	// #506
    5bec:	9106e421 	add	x1, x1, #0x1b9
    5bf0:	9114a000 	add	x0, x0, #0x528
    5bf4:	17ffff94 	b	5a44 <memalign+0xf4>
/home/zliu/ubuntu-optee-rpi3/RPi3_OPTEE_3.1/optee_os/lib/libutils/isoc/bget_malloc.c:507
    5bf8:	f8616843 	ldr	x3, [x2, x1]
    5bfc:	eb03003f 	cmp	x1, x3
    5c00:	54000140 	b.eq	5c28 <memalign+0x2d8>  // b.none
    5c04:	b0000023 	adrp	x3, a000 <__mpa_abs_cmp+0x5c>
    5c08:	91398063 	add	x3, x3, #0xe60
    5c0c:	f0000021 	adrp	x1, c000 <__func__.3927+0x294>
    5c10:	f0000020 	adrp	x0, c000 <__func__.3927+0x294>
    5c14:	9101a063 	add	x3, x3, #0x68
    5c18:	52803f62 	mov	w2, #0x1fb                 	// #507
    5c1c:	9106e421 	add	x1, x1, #0x1b9
    5c20:	9114f800 	add	x0, x0, #0x53e
    5c24:	17ffff88 	b	5a44 <memalign+0xf4>
/home/zliu/ubuntu-optee-rpi3/RPi3_OPTEE_3.1/optee_os/lib/libutils/isoc/bget_malloc.c:511
    5c28:	8b010283 	add	x3, x20, x1
    5c2c:	a9000c1f 	stp	xzr, x3, [x0]
/home/zliu/ubuntu-optee-rpi3/RPi3_OPTEE_3.1/optee_os/lib/libutils/isoc/bget_malloc.c:514
    5c30:	f8616843 	ldr	x3, [x2, x1]
    5c34:	8b140063 	add	x3, x3, x20
    5c38:	f8216843 	str	x3, [x2, x1]
/home/zliu/ubuntu-optee-rpi3/RPi3_OPTEE_3.1/optee_os/lib/libutils/isoc/bget_malloc.c:520
    5c3c:	f9400c41 	ldr	x1, [x2, #24]
    5c40:	f9400823 	ldr	x3, [x1, #16]
    5c44:	eb03005f 	cmp	x2, x3
    5c48:	54000140 	b.eq	5c70 <memalign+0x320>  // b.none
    5c4c:	b0000023 	adrp	x3, a000 <__mpa_abs_cmp+0x5c>
    5c50:	91398063 	add	x3, x3, #0xe60
    5c54:	f0000021 	adrp	x1, c000 <__func__.3927+0x294>
    5c58:	f0000020 	adrp	x0, c000 <__func__.3927+0x294>
    5c5c:	9101a063 	add	x3, x3, #0x68
    5c60:	52804102 	mov	w2, #0x208                 	// #520
    5c64:	9106e421 	add	x1, x1, #0x1b9
    5c68:	91157400 	add	x0, x0, #0x55d
    5c6c:	17ffff76 	b	5a44 <memalign+0xf4>
/home/zliu/ubuntu-optee-rpi3/RPi3_OPTEE_3.1/optee_os/lib/libutils/isoc/bget_malloc.c:521
    5c70:	f9400843 	ldr	x3, [x2, #16]
    5c74:	f9400c64 	ldr	x4, [x3, #24]
    5c78:	eb04005f 	cmp	x2, x4
    5c7c:	54000140 	b.eq	5ca4 <memalign+0x354>  // b.none
    5c80:	b0000023 	adrp	x3, a000 <__mpa_abs_cmp+0x5c>
    5c84:	91398063 	add	x3, x3, #0xe60
    5c88:	f0000021 	adrp	x1, c000 <__func__.3927+0x294>
    5c8c:	f0000020 	adrp	x0, c000 <__func__.3927+0x294>
    5c90:	9101a063 	add	x3, x3, #0x68
    5c94:	52804122 	mov	w2, #0x209                 	// #521
    5c98:	9106e421 	add	x1, x1, #0x1b9
    5c9c:	9115f000 	add	x0, x0, #0x57c
    5ca0:	17ffff69 	b	5a44 <memalign+0xf4>
/home/zliu/ubuntu-optee-rpi3/RPi3_OPTEE_3.1/optee_os/lib/libutils/isoc/bget_malloc.c:524
    5ca4:	a9010403 	stp	x3, x1, [x0, #16]
/home/zliu/ubuntu-optee-rpi3/RPi3_OPTEE_3.1/optee_os/lib/libutils/isoc/bget_malloc.c:528
    5ca8:	f9000820 	str	x0, [x1, #16]
/home/zliu/ubuntu-optee-rpi3/RPi3_OPTEE_3.1/optee_os/lib/libutils/isoc/bget_malloc.c:529
    5cac:	f9400801 	ldr	x1, [x0, #16]
    5cb0:	f9000c20 	str	x0, [x1, #24]
/home/zliu/ubuntu-optee-rpi3/RPi3_OPTEE_3.1/optee_os/lib/libutils/isoc/bget_malloc.c:536
    5cb4:	910402c1 	add	x1, x22, #0x100
    5cb8:	f9401020 	ldr	x0, [x1, #32]
    5cbc:	cb140014 	sub	x20, x0, x20
    5cc0:	f9001034 	str	x20, [x1, #32]
/home/zliu/ubuntu-optee-rpi3/RPi3_OPTEE_3.1/optee_os/lib/libutils/isoc/bget_malloc.c:537
    5cc4:	b6f80154 	tbz	x20, #63, 5cec <memalign+0x39c>
    5cc8:	b0000023 	adrp	x3, a000 <__mpa_abs_cmp+0x5c>
    5ccc:	91398063 	add	x3, x3, #0xe60
    5cd0:	9101a063 	add	x3, x3, #0x68
    5cd4:	52804322 	mov	w2, #0x219                 	// #537
    5cd8:	17ffff92 	b	5b20 <memalign+0x1d0>
/home/zliu/ubuntu-optee-rpi3/RPi3_OPTEE_3.1/optee_os/lib/libutils/isoc/bget_malloc.c:532
    5cdc:	aa1403e1 	mov	x1, x20
    5ce0:	97fffcc2 	bl	4fe8 <create_free_block.constprop.11>
    5ce4:	17fffff4 	b	5cb4 <memalign+0x364>
raw_memalign():
/home/zliu/ubuntu-optee-rpi3/RPi3_OPTEE_3.1/optee_os/lib/libutils/isoc/bget_malloc.c:568
    5ce8:	d2800013 	mov	x19, #0x0                   	// #0
/home/zliu/ubuntu-optee-rpi3/RPi3_OPTEE_3.1/optee_os/lib/libutils/isoc/bget_malloc.c:604
    5cec:	910402d6 	add	x22, x22, #0x100
    5cf0:	aa1503e1 	mov	x1, x21
    5cf4:	aa1303e0 	mov	x0, x19
    5cf8:	f94012c2 	ldr	x2, [x22, #32]
    5cfc:	17ffff2b 	b	59a8 <memalign+0x58>
/home/zliu/ubuntu-optee-rpi3/RPi3_OPTEE_3.1/optee_os/lib/libutils/isoc/bget_malloc.c:551
    5d00:	d2800013 	mov	x19, #0x0                   	// #0
memalign():
/home/zliu/ubuntu-optee-rpi3/RPi3_OPTEE_3.1/optee_os/lib/libutils/isoc/bget_malloc.c:881
    5d04:	17ffff2a 	b	59ac <memalign+0x5c>

0000000000005d08 <malloc_add_pool>:
malloc_add_pool():
/home/zliu/ubuntu-optee-rpi3/RPi3_OPTEE_3.1/optee_os/lib/libutils/isoc/bget_malloc.c:893
    5d08:	a9bb7bfd 	stp	x29, x30, [sp, #-80]!
    5d0c:	910003fd 	mov	x29, sp
    5d10:	a90153f3 	stp	x19, x20, [sp, #16]
/home/zliu/ubuntu-optee-rpi3/RPi3_OPTEE_3.1/optee_os/lib/libutils/isoc/bget_malloc.c:898
    5d14:	8b010014 	add	x20, x0, x1
/home/zliu/ubuntu-optee-rpi3/RPi3_OPTEE_3.1/optee_os/lib/libutils/isoc/bget_malloc.c:893
    5d18:	a9025bf5 	stp	x21, x22, [sp, #32]
/home/zliu/ubuntu-optee-rpi3/RPi3_OPTEE_3.1/optee_os/lib/libutils/isoc/bget_malloc.c:904
    5d1c:	91003c00 	add	x0, x0, #0xf
/home/zliu/ubuntu-optee-rpi3/RPi3_OPTEE_3.1/optee_os/lib/libutils/isoc/bget_malloc.c:893
    5d20:	a90363f7 	stp	x23, x24, [sp, #48]
/home/zliu/ubuntu-optee-rpi3/RPi3_OPTEE_3.1/optee_os/lib/libutils/isoc/bget_malloc.c:904
    5d24:	927cec15 	and	x21, x0, #0xfffffffffffffff0
/home/zliu/ubuntu-optee-rpi3/RPi3_OPTEE_3.1/optee_os/lib/libutils/isoc/bget_malloc.c:893
    5d28:	f90023f9 	str	x25, [sp, #64]
/home/zliu/ubuntu-optee-rpi3/RPi3_OPTEE_3.1/optee_os/lib/libutils/isoc/bget_malloc.c:905
    5d2c:	927cee94 	and	x20, x20, #0xfffffffffffffff0
/home/zliu/ubuntu-optee-rpi3/RPi3_OPTEE_3.1/optee_os/lib/libutils/isoc/bget_malloc.c:906
    5d30:	eb1402bf 	cmp	x21, x20
    5d34:	54000163 	b.cc	5d60 <malloc_add_pool+0x58>  // b.lo, b.ul, b.last
/home/zliu/ubuntu-optee-rpi3/RPi3_OPTEE_3.1/optee_os/lib/libutils/isoc/bget_malloc.c:906 (discriminator 1)
    5d38:	b0000023 	adrp	x3, a000 <__mpa_abs_cmp+0x5c>
    5d3c:	91398063 	add	x3, x3, #0xe60
    5d40:	f0000021 	adrp	x1, c000 <__func__.3927+0x294>
    5d44:	f0000020 	adrp	x0, c000 <__func__.3927+0x294>
    5d48:	9101e063 	add	x3, x3, #0x78
    5d4c:	9106e421 	add	x1, x1, #0x1b9
    5d50:	91166c00 	add	x0, x0, #0x59b
    5d54:	52807142 	mov	w2, #0x38a                 	// #906
/home/zliu/ubuntu-optee-rpi3/RPi3_OPTEE_3.1/optee_os/lib/libutils/isoc/bget_malloc.c:919 (discriminator 1)
    5d58:	97fffa6a 	bl	4700 <_assert_log>
    5d5c:	97fffa7a 	bl	4744 <_assert_break>
/home/zliu/ubuntu-optee-rpi3/RPi3_OPTEE_3.1/optee_os/lib/libutils/isoc/bget_malloc.c:908
    5d60:	cb150294 	sub	x20, x20, x21
    5d64:	f100be9f 	cmp	x20, #0x2f
    5d68:	540004e9 	b.ls	5e04 <malloc_add_pool+0xfc>  // b.plast
/home/zliu/ubuntu-optee-rpi3/RPi3_OPTEE_3.1/optee_os/lib/libutils/isoc/bget_malloc.c:917
    5d6c:	b0000053 	adrp	x19, e000 <mempool_u32+0xe50>
    5d70:	9133c273 	add	x19, x19, #0xcf0
/home/zliu/ubuntu-optee-rpi3/RPi3_OPTEE_3.1/optee_os/lib/libutils/isoc/bget_malloc.c:916
    5d74:	90000056 	adrp	x22, d000 <ta_props>
    5d78:	910402d6 	add	x22, x22, #0x100
    5d7c:	aa1603e2 	mov	x2, x22
    5d80:	aa1403e1 	mov	x1, x20
    5d84:	aa1503e0 	mov	x0, x21
    5d88:	97fffe3f 	bl	5684 <bpool>
raw_realloc():
/home/zliu/ubuntu-optee-rpi3/RPi3_OPTEE_3.1/optee_os/lib/libutils/isoc/bget_malloc.c:388
    5d8c:	a9438277 	ldp	x23, x0, [x19, #56]
    5d90:	aa1603e2 	mov	x2, x22
malloc_add_pool():
/home/zliu/ubuntu-optee-rpi3/RPi3_OPTEE_3.1/optee_os/lib/libutils/isoc/bget_malloc.c:917
    5d94:	910006f7 	add	x23, x23, #0x1
/home/zliu/ubuntu-optee-rpi3/RPi3_OPTEE_3.1/optee_os/lib/libutils/isoc/bget_malloc.c:918
    5d98:	d37ceef8 	lsl	x24, x23, #4
raw_realloc():
/home/zliu/ubuntu-optee-rpi3/RPi3_OPTEE_3.1/optee_os/lib/libutils/isoc/bget_malloc.c:385
    5d9c:	f100031f 	cmp	x24, #0x0
/home/zliu/ubuntu-optee-rpi3/RPi3_OPTEE_3.1/optee_os/lib/libutils/isoc/bget_malloc.c:388
    5da0:	9a9f1701 	csinc	x1, x24, xzr, ne  // ne = any
    5da4:	97fffe0e 	bl	55dc <bgetr>
    5da8:	aa0003f9 	mov	x25, x0
/home/zliu/ubuntu-optee-rpi3/RPi3_OPTEE_3.1/optee_os/lib/libutils/isoc/bget_malloc.c:390
    5dac:	f94012c2 	ldr	x2, [x22, #32]
    5db0:	aa1803e1 	mov	x1, x24
    5db4:	97fffc7d 	bl	4fa8 <raw_malloc_return_hook.isra.3>
malloc_add_pool():
/home/zliu/ubuntu-optee-rpi3/RPi3_OPTEE_3.1/optee_os/lib/libutils/isoc/bget_malloc.c:919
    5db8:	b5000159 	cbnz	x25, 5de0 <malloc_add_pool+0xd8>
/home/zliu/ubuntu-optee-rpi3/RPi3_OPTEE_3.1/optee_os/lib/libutils/isoc/bget_malloc.c:919 (discriminator 1)
    5dbc:	b0000023 	adrp	x3, a000 <__mpa_abs_cmp+0x5c>
    5dc0:	91398063 	add	x3, x3, #0xe60
    5dc4:	f0000021 	adrp	x1, c000 <__func__.3927+0x294>
    5dc8:	f0000020 	adrp	x0, c000 <__func__.3927+0x294>
    5dcc:	9101e063 	add	x3, x3, #0x78
    5dd0:	528072e2 	mov	w2, #0x397                 	// #919
    5dd4:	9106e421 	add	x1, x1, #0x1b9
    5dd8:	91169c00 	add	x0, x0, #0x5a7
    5ddc:	17ffffdf 	b	5d58 <malloc_add_pool+0x50>
/home/zliu/ubuntu-optee-rpi3/RPi3_OPTEE_3.1/optee_os/lib/libutils/isoc/bget_malloc.c:921
    5de0:	f9401e60 	ldr	x0, [x19, #56]
/home/zliu/ubuntu-optee-rpi3/RPi3_OPTEE_3.1/optee_os/lib/libutils/isoc/bget_malloc.c:920
    5de4:	a903e677 	stp	x23, x25, [x19, #56]
/home/zliu/ubuntu-optee-rpi3/RPi3_OPTEE_3.1/optee_os/lib/libutils/isoc/bget_malloc.c:921
    5de8:	d37cec00 	lsl	x0, x0, #4
    5dec:	8b000321 	add	x1, x25, x0
    5df0:	f8206b35 	str	x21, [x25, x0]
/home/zliu/ubuntu-optee-rpi3/RPi3_OPTEE_3.1/optee_os/lib/libutils/isoc/bget_malloc.c:922
    5df4:	f9000434 	str	x20, [x1, #8]
/home/zliu/ubuntu-optee-rpi3/RPi3_OPTEE_3.1/optee_os/lib/libutils/isoc/bget_malloc.c:924
    5df8:	b9402a61 	ldr	w1, [x19, #40]
    5dfc:	0b140034 	add	w20, w1, w20
    5e00:	b9002a74 	str	w20, [x19, #40]
/home/zliu/ubuntu-optee-rpi3/RPi3_OPTEE_3.1/optee_os/lib/libutils/isoc/bget_malloc.c:928
    5e04:	a94153f3 	ldp	x19, x20, [sp, #16]
    5e08:	a9425bf5 	ldp	x21, x22, [sp, #32]
    5e0c:	a94363f7 	ldp	x23, x24, [sp, #48]
    5e10:	f94023f9 	ldr	x25, [sp, #64]
    5e14:	a8c57bfd 	ldp	x29, x30, [sp], #80
    5e18:	d65f03c0 	ret

0000000000005e1c <malloc_buffer_is_within_alloced>:
malloc_buffer_is_within_alloced():
/home/zliu/ubuntu-optee-rpi3/RPi3_OPTEE_3.1/optee_os/lib/libutils/isoc/bget_malloc.c:935
    5e1c:	8b010001 	add	x1, x0, x1
/home/zliu/ubuntu-optee-rpi3/RPi3_OPTEE_3.1/optee_os/lib/libutils/isoc/bget_malloc.c:942
    5e20:	eb01001f 	cmp	x0, x1
    5e24:	54000b88 	b.hi	5f94 <malloc_buffer_is_within_alloced+0x178>  // b.pmore
    5e28:	aa0003e5 	mov	x5, x0
bpool_foreach_iterator_init():
/home/zliu/ubuntu-optee-rpi3/RPi3_OPTEE_3.1/optee_os/lib/libutils/isoc/bget_malloc.c:253
    5e2c:	b0000040 	adrp	x0, e000 <mempool_u32+0xe50>
    5e30:	9133c000 	add	x0, x0, #0xcf0
/home/zliu/ubuntu-optee-rpi3/RPi3_OPTEE_3.1/optee_os/lib/libutils/isoc/bget_malloc.c:252
    5e34:	d2800006 	mov	x6, #0x0                   	// #0
bpool_foreach_pool():
/home/zliu/ubuntu-optee-rpi3/RPi3_OPTEE_3.1/optee_os/lib/libutils/isoc/bget_malloc.c:262
    5e38:	d2f0000b 	mov	x11, #0x8000000000000000    	// #-9223372036854775808
bget_buf_size():
/home/zliu/ubuntu-optee-rpi3/RPi3_OPTEE_3.1/optee_os/lib/libutils/isoc/bget_malloc.c:626
    5e3c:	928001e9 	mov	x9, #0xfffffffffffffff0    	// #-16
bpool_foreach_iterator_init():
/home/zliu/ubuntu-optee-rpi3/RPi3_OPTEE_3.1/optee_os/lib/libutils/isoc/bget_malloc.c:253
    5e40:	a9439c0a 	ldp	x10, x7, [x0, #56]
    5e44:	f94000e3 	ldr	x3, [x7]
bpool_foreach_pool():
/home/zliu/ubuntu-optee-rpi3/RPi3_OPTEE_3.1/optee_os/lib/libutils/isoc/bget_malloc.c:260
    5e48:	f9400462 	ldr	x2, [x3, #8]
bpool_foreach():
/home/zliu/ubuntu-optee-rpi3/RPi3_OPTEE_3.1/optee_os/lib/libutils/isoc/bget_malloc.c:302
    5e4c:	aa0303e4 	mov	x4, x3
bpool_foreach_pool():
/home/zliu/ubuntu-optee-rpi3/RPi3_OPTEE_3.1/optee_os/lib/libutils/isoc/bget_malloc.c:262
    5e50:	eb0b005f 	cmp	x2, x11
    5e54:	540009a0 	b.eq	5f88 <malloc_buffer_is_within_alloced+0x16c>  // b.none
malloc_buffer_is_within_alloced():
/home/zliu/ubuntu-optee-rpi3/RPi3_OPTEE_3.1/optee_os/lib/libutils/isoc/bget_malloc.c:931
    5e58:	a9bf7bfd 	stp	x29, x30, [sp, #-16]!
    5e5c:	910003fd 	mov	x29, sp
    5e60:	1400000d 	b	5e94 <malloc_buffer_is_within_alloced+0x78>
bpool_foreach_pool():
/home/zliu/ubuntu-optee-rpi3/RPi3_OPTEE_3.1/optee_os/lib/libutils/isoc/bget_malloc.c:279
    5e64:	91004084 	add	x4, x4, #0x10
malloc_buffer_is_within_alloced():
/home/zliu/ubuntu-optee-rpi3/RPi3_OPTEE_3.1/optee_os/lib/libutils/isoc/bget_malloc.c:951
    5e68:	8b020082 	add	x2, x4, x2
/home/zliu/ubuntu-optee-rpi3/RPi3_OPTEE_3.1/optee_os/lib/libutils/isoc/bget_malloc.c:953
    5e6c:	eb02003f 	cmp	x1, x2
    5e70:	1a9f87e2 	cset	w2, ls  // ls = plast
    5e74:	eb0400bf 	cmp	x5, x4
    5e78:	1a9f37e0 	cset	w0, cs  // cs = hs, nlast
    5e7c:	6a000040 	ands	w0, w2, w0
    5e80:	540007a1 	b.ne	5f74 <malloc_buffer_is_within_alloced+0x158>  // b.any
bpool_foreach_pool():
/home/zliu/ubuntu-optee-rpi3/RPi3_OPTEE_3.1/optee_os/lib/libutils/isoc/bget_malloc.c:260
    5e84:	f9400462 	ldr	x2, [x3, #8]
bpool_foreach():
/home/zliu/ubuntu-optee-rpi3/RPi3_OPTEE_3.1/optee_os/lib/libutils/isoc/bget_malloc.c:302
    5e88:	aa0303e4 	mov	x4, x3
bpool_foreach_pool():
/home/zliu/ubuntu-optee-rpi3/RPi3_OPTEE_3.1/optee_os/lib/libutils/isoc/bget_malloc.c:262
    5e8c:	eb0b005f 	cmp	x2, x11
    5e90:	540006a0 	b.eq	5f64 <malloc_buffer_is_within_alloced+0x148>  // b.none
/home/zliu/ubuntu-optee-rpi3/RPi3_OPTEE_3.1/optee_os/lib/libutils/isoc/bget_malloc.c:265
    5e94:	b6f80242 	tbz	x2, #63, 5edc <malloc_buffer_is_within_alloced+0xc0>
/home/zliu/ubuntu-optee-rpi3/RPi3_OPTEE_3.1/optee_os/lib/libutils/isoc/bget_malloc.c:267
    5e98:	cb0203e8 	neg	x8, x2
/home/zliu/ubuntu-optee-rpi3/RPi3_OPTEE_3.1/optee_os/lib/libutils/isoc/bget_malloc.c:269
    5e9c:	52800000 	mov	w0, #0x0                   	// #0
/home/zliu/ubuntu-optee-rpi3/RPi3_OPTEE_3.1/optee_os/lib/libutils/isoc/bget_malloc.c:282
    5ea0:	8b080063 	add	x3, x3, x8
bpool_foreach():
/home/zliu/ubuntu-optee-rpi3/RPi3_OPTEE_3.1/optee_os/lib/libutils/isoc/bget_malloc.c:293
    5ea4:	35ffff00 	cbnz	w0, 5e84 <malloc_buffer_is_within_alloced+0x68>
bget_buf_size():
/home/zliu/ubuntu-optee-rpi3/RPi3_OPTEE_3.1/optee_os/lib/libutils/isoc/bget_malloc.c:626
    5ea8:	cb020122 	sub	x2, x9, x2
/home/zliu/ubuntu-optee-rpi3/RPi3_OPTEE_3.1/optee_os/lib/libutils/isoc/bget_malloc.c:627
    5eac:	f100005f 	cmp	x2, #0x0
    5eb0:	54fffdac 	b.gt	5e64 <malloc_buffer_is_within_alloced+0x48>
    5eb4:	b0000023 	adrp	x3, a000 <__mpa_abs_cmp+0x5c>
    5eb8:	91398063 	add	x3, x3, #0xe60
    5ebc:	91022063 	add	x3, x3, #0x88
    5ec0:	f0000021 	adrp	x1, c000 <__func__.3927+0x294>
    5ec4:	f0000020 	adrp	x0, c000 <__func__.3927+0x294>
    5ec8:	9106e421 	add	x1, x1, #0x1b9
    5ecc:	9110f000 	add	x0, x0, #0x43c
    5ed0:	52804e62 	mov	w2, #0x273                 	// #627
    5ed4:	97fffa0b 	bl	4700 <_assert_log>
    5ed8:	97fffa1b 	bl	4744 <_assert_break>
bpool_foreach_pool():
/home/zliu/ubuntu-optee-rpi3/RPi3_OPTEE_3.1/optee_os/lib/libutils/isoc/bget_malloc.c:275
    5edc:	f9400c60 	ldr	x0, [x3, #24]
    5ee0:	f9400800 	ldr	x0, [x0, #16]
    5ee4:	eb00007f 	cmp	x3, x0
    5ee8:	54000160 	b.eq	5f14 <malloc_buffer_is_within_alloced+0xf8>  // b.none
    5eec:	b0000023 	adrp	x3, a000 <__mpa_abs_cmp+0x5c>
    5ef0:	91398063 	add	x3, x3, #0xe60
    5ef4:	91026063 	add	x3, x3, #0x98
    5ef8:	f0000021 	adrp	x1, c000 <__func__.3927+0x294>
    5efc:	f0000020 	adrp	x0, c000 <__func__.3927+0x294>
    5f00:	9106e421 	add	x1, x1, #0x1b9
    5f04:	910b7000 	add	x0, x0, #0x2dc
    5f08:	52802262 	mov	w2, #0x113                 	// #275
    5f0c:	97fff9fd 	bl	4700 <_assert_log>
    5f10:	97fffa0d 	bl	4744 <_assert_break>
/home/zliu/ubuntu-optee-rpi3/RPi3_OPTEE_3.1/optee_os/lib/libutils/isoc/bget_malloc.c:276
    5f14:	f9400860 	ldr	x0, [x3, #16]
    5f18:	f9400c00 	ldr	x0, [x0, #24]
    5f1c:	eb00007f 	cmp	x3, x0
    5f20:	54000160 	b.eq	5f4c <malloc_buffer_is_within_alloced+0x130>  // b.none
    5f24:	b0000023 	adrp	x3, a000 <__mpa_abs_cmp+0x5c>
    5f28:	91398063 	add	x3, x3, #0xe60
    5f2c:	91026063 	add	x3, x3, #0x98
    5f30:	f0000021 	adrp	x1, c000 <__func__.3927+0x294>
    5f34:	f0000020 	adrp	x0, c000 <__func__.3927+0x294>
    5f38:	9106e421 	add	x1, x1, #0x1b9
    5f3c:	910bdc00 	add	x0, x0, #0x2f7
    5f40:	52802282 	mov	w2, #0x114                 	// #276
    5f44:	97fff9ef 	bl	4700 <_assert_log>
    5f48:	97fff9ff 	bl	4744 <_assert_break>
    5f4c:	aa0203e8 	mov	x8, x2
/home/zliu/ubuntu-optee-rpi3/RPi3_OPTEE_3.1/optee_os/lib/libutils/isoc/bget_malloc.c:272
    5f50:	52800020 	mov	w0, #0x1                   	// #1
    5f54:	17ffffd3 	b	5ea0 <malloc_buffer_is_within_alloced+0x84>
bpool_foreach():
/home/zliu/ubuntu-optee-rpi3/RPi3_OPTEE_3.1/optee_os/lib/libutils/isoc/bget_malloc.c:302
    5f58:	d37cecc0 	lsl	x0, x6, #4
    5f5c:	f86068e3 	ldr	x3, [x7, x0]
    5f60:	17ffffc9 	b	5e84 <malloc_buffer_is_within_alloced+0x68>
/home/zliu/ubuntu-optee-rpi3/RPi3_OPTEE_3.1/optee_os/lib/libutils/isoc/bget_malloc.c:298
    5f64:	910004c6 	add	x6, x6, #0x1
    5f68:	eb0a00df 	cmp	x6, x10
    5f6c:	54ffff63 	b.cc	5f58 <malloc_buffer_is_within_alloced+0x13c>  // b.lo, b.ul, b.last
malloc_buffer_is_within_alloced():
/home/zliu/ubuntu-optee-rpi3/RPi3_OPTEE_3.1/optee_os/lib/libutils/isoc/bget_malloc.c:936
    5f70:	52800000 	mov	w0, #0x0                   	// #0
/home/zliu/ubuntu-optee-rpi3/RPi3_OPTEE_3.1/optee_os/lib/libutils/isoc/bget_malloc.c:963
    5f74:	a8c17bfd 	ldp	x29, x30, [sp], #16
    5f78:	d65f03c0 	ret
bpool_foreach():
/home/zliu/ubuntu-optee-rpi3/RPi3_OPTEE_3.1/optee_os/lib/libutils/isoc/bget_malloc.c:302
    5f7c:	d37cecc0 	lsl	x0, x6, #4
    5f80:	f86068e3 	ldr	x3, [x7, x0]
    5f84:	17ffffb1 	b	5e48 <malloc_buffer_is_within_alloced+0x2c>
/home/zliu/ubuntu-optee-rpi3/RPi3_OPTEE_3.1/optee_os/lib/libutils/isoc/bget_malloc.c:298
    5f88:	910004c6 	add	x6, x6, #0x1
    5f8c:	eb0a00df 	cmp	x6, x10
    5f90:	54ffff63 	b.cc	5f7c <malloc_buffer_is_within_alloced+0x160>  // b.lo, b.ul, b.last
malloc_buffer_is_within_alloced():
/home/zliu/ubuntu-optee-rpi3/RPi3_OPTEE_3.1/optee_os/lib/libutils/isoc/bget_malloc.c:936
    5f94:	52800000 	mov	w0, #0x0                   	// #0
/home/zliu/ubuntu-optee-rpi3/RPi3_OPTEE_3.1/optee_os/lib/libutils/isoc/bget_malloc.c:962
    5f98:	d65f03c0 	ret

0000000000005f9c <malloc_buffer_overlaps_heap>:
malloc_buffer_overlaps_heap():
/home/zliu/ubuntu-optee-rpi3/RPi3_OPTEE_3.1/optee_os/lib/libutils/isoc/bget_malloc.c:975
    5f9c:	b0000042 	adrp	x2, e000 <mempool_u32+0xe50>
    5fa0:	9133c042 	add	x2, x2, #0xcf0
/home/zliu/ubuntu-optee-rpi3/RPi3_OPTEE_3.1/optee_os/lib/libutils/isoc/bget_malloc.c:968
    5fa4:	8b010001 	add	x1, x0, x1
/home/zliu/ubuntu-optee-rpi3/RPi3_OPTEE_3.1/optee_os/lib/libutils/isoc/bget_malloc.c:975
    5fa8:	d2800005 	mov	x5, #0x0                   	// #0
    5fac:	a9438c47 	ldp	x7, x3, [x2, #56]
/home/zliu/ubuntu-optee-rpi3/RPi3_OPTEE_3.1/optee_os/lib/libutils/isoc/bget_malloc.c:975 (discriminator 1)
    5fb0:	eb0700bf 	cmp	x5, x7
    5fb4:	54000081 	b.ne	5fc4 <malloc_buffer_overlaps_heap+0x28>  // b.any
/home/zliu/ubuntu-optee-rpi3/RPi3_OPTEE_3.1/optee_os/lib/libutils/isoc/bget_malloc.c:970
    5fb8:	52800002 	mov	w2, #0x0                   	// #0
/home/zliu/ubuntu-optee-rpi3/RPi3_OPTEE_3.1/optee_os/lib/libutils/isoc/bget_malloc.c:993
    5fbc:	2a0203e0 	mov	w0, w2
    5fc0:	d65f03c0 	ret
/home/zliu/ubuntu-optee-rpi3/RPi3_OPTEE_3.1/optee_os/lib/libutils/isoc/bget_malloc.c:977
    5fc4:	a9401066 	ldp	x6, x4, [x3]
/home/zliu/ubuntu-optee-rpi3/RPi3_OPTEE_3.1/optee_os/lib/libutils/isoc/bget_malloc.c:979
    5fc8:	eb01001f 	cmp	x0, x1
    5fcc:	1a9f97e2 	cset	w2, hi  // hi = pmore
/home/zliu/ubuntu-optee-rpi3/RPi3_OPTEE_3.1/optee_os/lib/libutils/isoc/bget_malloc.c:977
    5fd0:	8b0400c4 	add	x4, x6, x4
/home/zliu/ubuntu-optee-rpi3/RPi3_OPTEE_3.1/optee_os/lib/libutils/isoc/bget_malloc.c:979
    5fd4:	eb0400df 	cmp	x6, x4
    5fd8:	1a9f97e8 	cset	w8, hi  // hi = pmore
    5fdc:	2a080042 	orr	w2, w2, w8
    5fe0:	35fffee2 	cbnz	w2, 5fbc <malloc_buffer_overlaps_heap+0x20>
/home/zliu/ubuntu-optee-rpi3/RPi3_OPTEE_3.1/optee_os/lib/libutils/isoc/bget_malloc.c:984
    5fe4:	eb06003f 	cmp	x1, x6
    5fe8:	91004063 	add	x3, x3, #0x10
    5fec:	1a9f97e2 	cset	w2, hi  // hi = pmore
    5ff0:	eb04001f 	cmp	x0, x4
    5ff4:	1a9f27e4 	cset	w4, cc  // cc = lo, ul, last
    5ff8:	2a040042 	orr	w2, w2, w4
    5ffc:	35fffe02 	cbnz	w2, 5fbc <malloc_buffer_overlaps_heap+0x20>
/home/zliu/ubuntu-optee-rpi3/RPi3_OPTEE_3.1/optee_os/lib/libutils/isoc/bget_malloc.c:975 (discriminator 2)
    6000:	910004a5 	add	x5, x5, #0x1
    6004:	17ffffeb 	b	5fb0 <malloc_buffer_overlaps_heap+0x14>

0000000000006008 <snprintf>:
snprintf():
/home/zliu/ubuntu-optee-rpi3/RPi3_OPTEE_3.1/optee_os/lib/libutils/isoc/snprintf.c:10
    6008:	a9b07bfd 	stp	x29, x30, [sp, #-256]!
    600c:	910003fd 	mov	x29, sp
    6010:	a90d93a3 	stp	x3, x4, [x29, #216]
/home/zliu/ubuntu-optee-rpi3/RPi3_OPTEE_3.1/optee_os/lib/libutils/isoc/snprintf.c:14
    6014:	910403a3 	add	x3, x29, #0x100
    6018:	a9030fa3 	stp	x3, x3, [x29, #48]
    601c:	910343a3 	add	x3, x29, #0xd0
    6020:	f90023a3 	str	x3, [x29, #64]
    6024:	128004e3 	mov	w3, #0xffffffd8            	// #-40
    6028:	b9004ba3 	str	w3, [x29, #72]
    602c:	12800fe3 	mov	w3, #0xffffff80            	// #-128
    6030:	b9004fa3 	str	w3, [x29, #76]
/home/zliu/ubuntu-optee-rpi3/RPi3_OPTEE_3.1/optee_os/lib/libutils/isoc/snprintf.c:15
    6034:	910043a3 	add	x3, x29, #0x10
/home/zliu/ubuntu-optee-rpi3/RPi3_OPTEE_3.1/optee_os/lib/libutils/isoc/snprintf.c:10
    6038:	a90e9ba5 	stp	x5, x6, [x29, #232]
/home/zliu/ubuntu-optee-rpi3/RPi3_OPTEE_3.1/optee_os/lib/libutils/isoc/snprintf.c:15
    603c:	a94317a4 	ldp	x4, x5, [x29, #48]
    6040:	a90117a4 	stp	x4, x5, [x29, #16]
    6044:	a94417a4 	ldp	x4, x5, [x29, #64]
    6048:	a90217a4 	stp	x4, x5, [x29, #32]
/home/zliu/ubuntu-optee-rpi3/RPi3_OPTEE_3.1/optee_os/lib/libutils/isoc/snprintf.c:10
    604c:	3d8017a0 	str	q0, [x29, #80]
/home/zliu/ubuntu-optee-rpi3/RPi3_OPTEE_3.1/optee_os/lib/libutils/isoc/snprintf.c:15
    6050:	52800004 	mov	w4, #0x0                   	// #0
/home/zliu/ubuntu-optee-rpi3/RPi3_OPTEE_3.1/optee_os/lib/libutils/isoc/snprintf.c:10
    6054:	3d801ba1 	str	q1, [x29, #96]
    6058:	3d801fa2 	str	q2, [x29, #112]
    605c:	3d8023a3 	str	q3, [x29, #128]
    6060:	3d8027a4 	str	q4, [x29, #144]
    6064:	3d802ba5 	str	q5, [x29, #160]
    6068:	3d802fa6 	str	q6, [x29, #176]
    606c:	3d8033a7 	str	q7, [x29, #192]
    6070:	f9007fa7 	str	x7, [x29, #248]
/home/zliu/ubuntu-optee-rpi3/RPi3_OPTEE_3.1/optee_os/lib/libutils/isoc/snprintf.c:15
    6074:	9400004f 	bl	61b0 <__vsnprintf>
/home/zliu/ubuntu-optee-rpi3/RPi3_OPTEE_3.1/optee_os/lib/libutils/isoc/snprintf.c:19
    6078:	a8d07bfd 	ldp	x29, x30, [sp], #256
    607c:	d65f03c0 	ret

0000000000006080 <vsnprintf>:
vsnprintf():
/home/zliu/ubuntu-optee-rpi3/RPi3_OPTEE_3.1/optee_os/lib/libutils/isoc/snprintf.c:22
    6080:	a9bb7bfd 	stp	x29, x30, [sp, #-80]!
    6084:	910003fd 	mov	x29, sp
    6088:	a90153f3 	stp	x19, x20, [sp, #16]
    608c:	aa0003f3 	mov	x19, x0
    6090:	f90013f5 	str	x21, [sp, #32]
    6094:	aa0103f4 	mov	x20, x1
    6098:	aa0203f5 	mov	x21, x2
/home/zliu/ubuntu-optee-rpi3/RPi3_OPTEE_3.1/optee_os/lib/libutils/isoc/snprintf.c:23
    609c:	aa0303e1 	mov	x1, x3
    60a0:	9100c3a0 	add	x0, x29, #0x30
    60a4:	d2800402 	mov	x2, #0x20                  	// #32
    60a8:	94000019 	bl	610c <memcpy>
    60ac:	aa0003e3 	mov	x3, x0
    60b0:	aa1503e2 	mov	x2, x21
    60b4:	aa1403e1 	mov	x1, x20
    60b8:	52800004 	mov	w4, #0x0                   	// #0
    60bc:	aa1303e0 	mov	x0, x19
    60c0:	9400003c 	bl	61b0 <__vsnprintf>
/home/zliu/ubuntu-optee-rpi3/RPi3_OPTEE_3.1/optee_os/lib/libutils/isoc/snprintf.c:24
    60c4:	f94013f5 	ldr	x21, [sp, #32]
    60c8:	a94153f3 	ldp	x19, x20, [sp, #16]
    60cc:	a8c57bfd 	ldp	x29, x30, [sp], #80
    60d0:	d65f03c0 	ret

00000000000060d4 <__stack_chk_fail>:
__stack_chk_fail():
/home/zliu/ubuntu-optee-rpi3/RPi3_OPTEE_3.1/optee_os/lib/libutils/isoc/stack_check.c:33
    60d4:	14000000 	b	60d4 <__stack_chk_fail>

00000000000060d8 <memcmp>:
memcmp():
/home/zliu/ubuntu-optee-rpi3/RPi3_OPTEE_3.1/optee_os/lib/libutils/isoc/newlib/memcmp.c:90
    60d8:	d2800004 	mov	x4, #0x0                   	// #0
    60dc:	eb04005f 	cmp	x2, x4
    60e0:	54000061 	b.ne	60ec <memcmp+0x14>  // b.any
/home/zliu/ubuntu-optee-rpi3/RPi3_OPTEE_3.1/optee_os/lib/libutils/isoc/newlib/memcmp.c:96
    60e4:	52800000 	mov	w0, #0x0                   	// #0
/home/zliu/ubuntu-optee-rpi3/RPi3_OPTEE_3.1/optee_os/lib/libutils/isoc/newlib/memcmp.c:136
    60e8:	d65f03c0 	ret
/home/zliu/ubuntu-optee-rpi3/RPi3_OPTEE_3.1/optee_os/lib/libutils/isoc/newlib/memcmp.c:91
    60ec:	38646803 	ldrb	w3, [x0, x4]
    60f0:	91000484 	add	x4, x4, #0x1
    60f4:	8b040025 	add	x5, x1, x4
    60f8:	385ff0a5 	ldurb	w5, [x5, #-1]
    60fc:	6b05007f 	cmp	w3, w5
    6100:	54fffee0 	b.eq	60dc <memcmp+0x4>  // b.none
/home/zliu/ubuntu-optee-rpi3/RPi3_OPTEE_3.1/optee_os/lib/libutils/isoc/newlib/memcmp.c:92
    6104:	4b050060 	sub	w0, w3, w5
    6108:	d65f03c0 	ret

000000000000610c <memcpy>:
memcpy():
/home/zliu/ubuntu-optee-rpi3/RPi3_OPTEE_3.1/optee_os/lib/libutils/isoc/newlib/memcpy.c:94
    610c:	d2800003 	mov	x3, #0x0                   	// #0
    6110:	eb03005f 	cmp	x2, x3
    6114:	54000041 	b.ne	611c <memcpy+0x10>  // b.any
/home/zliu/ubuntu-optee-rpi3/RPi3_OPTEE_3.1/optee_os/lib/libutils/isoc/newlib/memcpy.c:135
    6118:	d65f03c0 	ret
/home/zliu/ubuntu-optee-rpi3/RPi3_OPTEE_3.1/optee_os/lib/libutils/isoc/newlib/memcpy.c:95
    611c:	38636824 	ldrb	w4, [x1, x3]
    6120:	38236804 	strb	w4, [x0, x3]
    6124:	91000463 	add	x3, x3, #0x1
    6128:	17fffffa 	b	6110 <memcpy+0x4>

000000000000612c <memmove>:
memmove():
/home/zliu/ubuntu-optee-rpi3/RPi3_OPTEE_3.1/optee_os/lib/libutils/isoc/newlib/memmove.c:96
    612c:	eb01001f 	cmp	x0, x1
    6130:	54000089 	b.ls	6140 <memmove+0x14>  // b.plast
/home/zliu/ubuntu-optee-rpi3/RPi3_OPTEE_3.1/optee_os/lib/libutils/isoc/newlib/memmove.c:96 (discriminator 1)
    6134:	8b020023 	add	x3, x1, x2
    6138:	eb03001f 	cmp	x0, x3
    613c:	540000e3 	b.cc	6158 <memmove+0x2c>  // b.lo, b.ul, b.last
    6140:	d2800003 	mov	x3, #0x0                   	// #0
/home/zliu/ubuntu-optee-rpi3/RPi3_OPTEE_3.1/optee_os/lib/libutils/isoc/newlib/memmove.c:103
    6144:	eb03005f 	cmp	x2, x3
    6148:	54000101 	b.ne	6168 <memmove+0x3c>  // b.any
/home/zliu/ubuntu-optee-rpi3/RPi3_OPTEE_3.1/optee_os/lib/libutils/isoc/newlib/memmove.c:157
    614c:	d65f03c0 	ret
/home/zliu/ubuntu-optee-rpi3/RPi3_OPTEE_3.1/optee_os/lib/libutils/isoc/newlib/memmove.c:101
    6150:	38626823 	ldrb	w3, [x1, x2]
    6154:	38226803 	strb	w3, [x0, x2]
/home/zliu/ubuntu-optee-rpi3/RPi3_OPTEE_3.1/optee_os/lib/libutils/isoc/newlib/memmove.c:100
    6158:	d1000442 	sub	x2, x2, #0x1
    615c:	b100045f 	cmn	x2, #0x1
    6160:	54ffff81 	b.ne	6150 <memmove+0x24>  // b.any
    6164:	d65f03c0 	ret
/home/zliu/ubuntu-optee-rpi3/RPi3_OPTEE_3.1/optee_os/lib/libutils/isoc/newlib/memmove.c:104
    6168:	38636824 	ldrb	w4, [x1, x3]
    616c:	38236804 	strb	w4, [x0, x3]
    6170:	91000463 	add	x3, x3, #0x1
    6174:	17fffff4 	b	6144 <memmove+0x18>

0000000000006178 <memset>:
memset():
/home/zliu/ubuntu-optee-rpi3/RPi3_OPTEE_3.1/optee_os/lib/libutils/isoc/newlib/memset.c:125
    6178:	d2800003 	mov	x3, #0x0                   	// #0
    617c:	eb03005f 	cmp	x2, x3
    6180:	54000041 	b.ne	6188 <memset+0x10>  // b.any
/home/zliu/ubuntu-optee-rpi3/RPi3_OPTEE_3.1/optee_os/lib/libutils/isoc/newlib/memset.c:129
    6184:	d65f03c0 	ret
/home/zliu/ubuntu-optee-rpi3/RPi3_OPTEE_3.1/optee_os/lib/libutils/isoc/newlib/memset.c:126
    6188:	38236801 	strb	w1, [x0, x3]
    618c:	91000463 	add	x3, x3, #0x1
    6190:	17fffffb 	b	617c <memset+0x4>

0000000000006194 <strlen>:
strlen():
/home/zliu/ubuntu-optee-rpi3/RPi3_OPTEE_3.1/optee_os/lib/libutils/isoc/newlib/strlen.c:117
    6194:	aa0003e1 	mov	x1, x0
    6198:	39400022 	ldrb	w2, [x1]
    619c:	35000062 	cbnz	w2, 61a8 <strlen+0x14>
/home/zliu/ubuntu-optee-rpi3/RPi3_OPTEE_3.1/optee_os/lib/libutils/isoc/newlib/strlen.c:120
    61a0:	cb000020 	sub	x0, x1, x0
    61a4:	d65f03c0 	ret
/home/zliu/ubuntu-optee-rpi3/RPi3_OPTEE_3.1/optee_os/lib/libutils/isoc/newlib/strlen.c:118
    61a8:	91000421 	add	x1, x1, #0x1
    61ac:	17fffffb 	b	6198 <strlen+0x4>

00000000000061b0 <__vsnprintf>:
__vsnprintf():
/home/zliu/ubuntu-optee-rpi3/RPi3_OPTEE_3.1/optee_os/lib/libutils/ext/snprintk.c:137
    61b0:	d103c3ff 	sub	sp, sp, #0xf0
    61b4:	a9037bfd 	stp	x29, x30, [sp, #48]
    61b8:	9100c3fd 	add	x29, sp, #0x30
    61bc:	a90803a1 	stp	x1, x0, [x29, #128]
    61c0:	12001c80 	and	w0, w4, #0xff
    61c4:	b9007fa0 	str	w0, [x29, #124]
/home/zliu/ubuntu-optee-rpi3/RPi3_OPTEE_3.1/optee_os/lib/libutils/ext/snprintk.c:141
    61c8:	f94047a0 	ldr	x0, [x29, #136]
/home/zliu/ubuntu-optee-rpi3/RPi3_OPTEE_3.1/optee_os/lib/libutils/ext/snprintk.c:137
    61cc:	a90453f3 	stp	x19, x20, [sp, #64]
    61d0:	a90873fb 	stp	x27, x28, [sp, #128]
kprintf():
/home/zliu/ubuntu-optee-rpi3/RPi3_OPTEE_3.1/optee_os/lib/libutils/ext/snprintk.c:267
    61d4:	5280001b 	mov	w27, #0x0                   	// #0
    61d8:	b9401874 	ldr	w20, [x3, #24]
    61dc:	a9407073 	ldp	x19, x28, [x3]
__vsnprintf():
/home/zliu/ubuntu-optee-rpi3/RPi3_OPTEE_3.1/optee_os/lib/libutils/ext/snprintk.c:137
    61e0:	a90663f7 	stp	x23, x24, [sp, #96]
    61e4:	a9076bf9 	stp	x25, x26, [sp, #112]
    61e8:	910263b8 	add	x24, x29, #0x98
    61ec:	a9055bf5 	stp	x21, x22, [sp, #80]
    61f0:	aa0203f9 	mov	x25, x2
/home/zliu/ubuntu-optee-rpi3/RPi3_OPTEE_3.1/optee_os/lib/libutils/ext/snprintk.c:141
    61f4:	8b01001a 	add	x26, x0, x1
    61f8:	aa0003f6 	mov	x22, x0
kprintf():
/home/zliu/ubuntu-optee-rpi3/RPi3_OPTEE_3.1/optee_os/lib/libutils/ext/snprintk.c:269
    61fc:	d2800017 	mov	x23, #0x0                   	// #0
/home/zliu/ubuntu-optee-rpi3/RPi3_OPTEE_3.1/optee_os/lib/libutils/ext/snprintk.c:275
    6200:	39400320 	ldrb	w0, [x25]
    6204:	7100941f 	cmp	w0, #0x25
    6208:	7a401804 	ccmp	w0, #0x0, #0x4, ne  // ne = any
    620c:	540003c1 	b.ne	6284 <__vsnprintf+0xd4>  // b.any
/home/zliu/ubuntu-optee-rpi3/RPi3_OPTEE_3.1/optee_os/lib/libutils/ext/snprintk.c:279
    6210:	34005780 	cbz	w0, 6d00 <__vsnprintf+0xb50>
/home/zliu/ubuntu-optee-rpi3/RPi3_OPTEE_3.1/optee_os/lib/libutils/ext/snprintk.c:287
    6214:	12800004 	mov	w4, #0xffffffff            	// #-1
/home/zliu/ubuntu-optee-rpi3/RPi3_OPTEE_3.1/optee_os/lib/libutils/ext/snprintk.c:282
    6218:	91000722 	add	x2, x25, #0x1
    621c:	2a1403e0 	mov	w0, w20
/home/zliu/ubuntu-optee-rpi3/RPi3_OPTEE_3.1/optee_os/lib/libutils/ext/snprintk.c:324
    6220:	2a0403e5 	mov	w5, w4
/home/zliu/ubuntu-optee-rpi3/RPi3_OPTEE_3.1/optee_os/lib/libutils/ext/snprintk.c:288
    6224:	52800001 	mov	w1, #0x0                   	// #0
/home/zliu/ubuntu-optee-rpi3/RPi3_OPTEE_3.1/optee_os/lib/libutils/ext/snprintk.c:286
    6228:	5280000a 	mov	w10, #0x0                   	// #0
/home/zliu/ubuntu-optee-rpi3/RPi3_OPTEE_3.1/optee_os/lib/libutils/ext/snprintk.c:284
    622c:	52800015 	mov	w21, #0x0                   	// #0
/home/zliu/ubuntu-optee-rpi3/RPi3_OPTEE_3.1/optee_os/lib/libutils/ext/snprintk.c:299
    6230:	52800406 	mov	w6, #0x20                  	// #32
/home/zliu/ubuntu-optee-rpi3/RPi3_OPTEE_3.1/optee_os/lib/libutils/ext/snprintk.c:290
    6234:	39400048 	ldrb	w8, [x2]
    6238:	91000459 	add	x25, x2, #0x1
/home/zliu/ubuntu-optee-rpi3/RPi3_OPTEE_3.1/optee_os/lib/libutils/ext/snprintk.c:291
    623c:	71018d1f 	cmp	w8, #0x63
    6240:	54001b80 	b.eq	65b0 <__vsnprintf+0x400>  // b.none
    6244:	5400080c 	b.gt	6344 <__vsnprintf+0x194>
    6248:	7100c11f 	cmp	w8, #0x30
    624c:	54001960 	b.eq	6578 <__vsnprintf+0x3c8>  // b.none
    6250:	540003cc 	b.gt	62c8 <__vsnprintf+0x118>
    6254:	7100a91f 	cmp	w8, #0x2a
    6258:	540012c0 	b.eq	64b0 <__vsnprintf+0x300>  // b.none
    625c:	5400024c 	b.gt	62a4 <__vsnprintf+0xf4>
    6260:	7100811f 	cmp	w8, #0x20
    6264:	540011c0 	b.eq	649c <__vsnprintf+0x2ec>  // b.none
    6268:	71008d1f 	cmp	w8, #0x23
    626c:	540011e0 	b.eq	64a8 <__vsnprintf+0x2f8>  // b.none
/home/zliu/ubuntu-optee-rpi3/RPi3_OPTEE_3.1/optee_os/lib/libutils/ext/snprintk.c:541
    6270:	34005488 	cbz	w8, 6d00 <__vsnprintf+0xb50>
/home/zliu/ubuntu-optee-rpi3/RPi3_OPTEE_3.1/optee_os/lib/libutils/ext/snprintk.c:545
    6274:	910303a3 	add	x3, x29, #0xc0
    6278:	2a0003f4 	mov	w20, w0
    627c:	381d8c68 	strb	w8, [x3, #-40]!
    6280:	140000d4 	b	65d0 <__vsnprintf+0x420>
/home/zliu/ubuntu-optee-rpi3/RPi3_OPTEE_3.1/optee_os/lib/libutils/ext/snprintk.c:276
    6284:	1100077b 	add	w27, w27, #0x1
/home/zliu/ubuntu-optee-rpi3/RPi3_OPTEE_3.1/optee_os/lib/libutils/ext/snprintk.c:277
    6288:	b40000b6 	cbz	x22, 629c <__vsnprintf+0xec>
    628c:	eb16035f 	cmp	x26, x22
    6290:	54000069 	b.ls	629c <__vsnprintf+0xec>  // b.plast
    6294:	390002c0 	strb	w0, [x22]
    6298:	910006d6 	add	x22, x22, #0x1
/home/zliu/ubuntu-optee-rpi3/RPi3_OPTEE_3.1/optee_os/lib/libutils/ext/snprintk.c:275
    629c:	91000739 	add	x25, x25, #0x1
    62a0:	17ffffd8 	b	6200 <__vsnprintf+0x50>
/home/zliu/ubuntu-optee-rpi3/RPi3_OPTEE_3.1/optee_os/lib/libutils/ext/snprintk.c:291
    62a4:	7100b51f 	cmp	w8, #0x2d
    62a8:	54001120 	b.eq	64cc <__vsnprintf+0x31c>  // b.none
    62ac:	7100b91f 	cmp	w8, #0x2e
    62b0:	54001280 	b.eq	6500 <__vsnprintf+0x350>  // b.none
    62b4:	7100ad1f 	cmp	w8, #0x2b
    62b8:	54fffdc1 	b.ne	6270 <__vsnprintf+0xc0>  // b.any
/home/zliu/ubuntu-optee-rpi3/RPi3_OPTEE_3.1/optee_os/lib/libutils/ext/snprintk.c:319
    62bc:	2a0803e1 	mov	w1, w8
/home/zliu/ubuntu-optee-rpi3/RPi3_OPTEE_3.1/optee_os/lib/libutils/ext/snprintk.c:322
    62c0:	aa1903e2 	mov	x2, x25
    62c4:	17ffffdc 	b	6234 <__vsnprintf+0x84>
/home/zliu/ubuntu-optee-rpi3/RPi3_OPTEE_3.1/optee_os/lib/libutils/ext/snprintk.c:291
    62c8:	7101111f 	cmp	w8, #0x44
    62cc:	54001920 	b.eq	65f0 <__vsnprintf+0x440>  // b.none
    62d0:	5400018c 	b.gt	6300 <__vsnprintf+0x150>
    62d4:	7100e51f 	cmp	w8, #0x39
    62d8:	54fffccc 	b.gt	6270 <__vsnprintf+0xc0>
    62dc:	5280000a 	mov	w10, #0x0                   	// #0
/home/zliu/ubuntu-optee-rpi3/RPi3_OPTEE_3.1/optee_os/lib/libutils/ext/snprintk.c:346
    62e0:	5100c108 	sub	w8, w8, #0x30
    62e4:	52800142 	mov	w2, #0xa                   	// #10
    62e8:	1b02214a 	madd	w10, w10, w2, w8
/home/zliu/ubuntu-optee-rpi3/RPi3_OPTEE_3.1/optee_os/lib/libutils/ext/snprintk.c:347
    62ec:	38401728 	ldrb	w8, [x25], #1
/home/zliu/ubuntu-optee-rpi3/RPi3_OPTEE_3.1/optee_os/lib/libutils/ext/snprintk.c:348
    62f0:	5100c102 	sub	w2, w8, #0x30
    62f4:	7100245f 	cmp	w2, #0x9
    62f8:	54ffff49 	b.ls	62e0 <__vsnprintf+0x130>  // b.plast
    62fc:	17ffffd0 	b	623c <__vsnprintf+0x8c>
/home/zliu/ubuntu-optee-rpi3/RPi3_OPTEE_3.1/optee_os/lib/libutils/ext/snprintk.c:291
    6300:	7101551f 	cmp	w8, #0x55
    6304:	54003c40 	b.eq	6a8c <__vsnprintf+0x8dc>  // b.none
    6308:	7101611f 	cmp	w8, #0x58
    630c:	54000ac0 	b.eq	6464 <__vsnprintf+0x2b4>  // b.none
    6310:	71013d1f 	cmp	w8, #0x4f
    6314:	54fffae1 	b.ne	6270 <__vsnprintf+0xc0>  // b.any
/home/zliu/ubuntu-optee-rpi3/RPi3_OPTEE_3.1/optee_os/lib/libutils/ext/snprintk.c:408
    6318:	321c02b5 	orr	w21, w21, #0x10
/home/zliu/ubuntu-optee-rpi3/RPi3_OPTEE_3.1/optee_os/lib/libutils/ext/snprintk.c:411
    631c:	36382695 	tbz	w21, #7, 67ec <__vsnprintf+0x63c>
    6320:	37f827e0 	tbnz	w0, #31, 681c <__vsnprintf+0x66c>
    6324:	91003e61 	add	x1, x19, #0xf
    6328:	2a0003f4 	mov	w20, w0
    632c:	aa1303e0 	mov	x0, x19
    6330:	927df033 	and	x19, x1, #0xfffffffffffffff8
    6334:	f9400005 	ldr	x5, [x0]
/home/zliu/ubuntu-optee-rpi3/RPi3_OPTEE_3.1/optee_os/lib/libutils/ext/snprintk.c:412
    6338:	52800000 	mov	w0, #0x0                   	// #0
/home/zliu/ubuntu-optee-rpi3/RPi3_OPTEE_3.1/optee_os/lib/libutils/ext/snprintk.c:482
    633c:	52800001 	mov	w1, #0x0                   	// #0
    6340:	140000b8 	b	6620 <__vsnprintf+0x470>
/home/zliu/ubuntu-optee-rpi3/RPi3_OPTEE_3.1/optee_os/lib/libutils/ext/snprintk.c:291
    6344:	7101bd1f 	cmp	w8, #0x6f
    6348:	54fffea0 	b.eq	631c <__vsnprintf+0x16c>  // b.none
    634c:	5400024c 	b.gt	6394 <__vsnprintf+0x1e4>
    6350:	7101a51f 	cmp	w8, #0x69
    6354:	54001500 	b.eq	65f4 <__vsnprintf+0x444>  // b.none
    6358:	540000ec 	b.gt	6374 <__vsnprintf+0x1c4>
    635c:	7101911f 	cmp	w8, #0x64
    6360:	540014a0 	b.eq	65f4 <__vsnprintf+0x444>  // b.none
    6364:	7101a11f 	cmp	w8, #0x68
    6368:	54fff841 	b.ne	6270 <__vsnprintf+0xc0>  // b.any
/home/zliu/ubuntu-optee-rpi3/RPi3_OPTEE_3.1/optee_os/lib/libutils/ext/snprintk.c:352
    636c:	321a02b5 	orr	w21, w21, #0x40
    6370:	17ffffd4 	b	62c0 <__vsnprintf+0x110>
/home/zliu/ubuntu-optee-rpi3/RPi3_OPTEE_3.1/optee_os/lib/libutils/ext/snprintk.c:291
    6374:	7101b11f 	cmp	w8, #0x6c
    6378:	54001040 	b.eq	6580 <__vsnprintf+0x3d0>  // b.none
    637c:	7101b91f 	cmp	w8, #0x6e
    6380:	54001d40 	b.eq	6728 <__vsnprintf+0x578>  // b.none
    6384:	7101a91f 	cmp	w8, #0x6a
    6388:	54fff741 	b.ne	6270 <__vsnprintf+0xc0>  // b.any
/home/zliu/ubuntu-optee-rpi3/RPi3_OPTEE_3.1/optee_os/lib/libutils/ext/snprintk.c:355
    638c:	321902b5 	orr	w21, w21, #0x80
    6390:	17ffffcc 	b	62c0 <__vsnprintf+0x110>
/home/zliu/ubuntu-optee-rpi3/RPi3_OPTEE_3.1/optee_os/lib/libutils/ext/snprintk.c:291
    6394:	7101d11f 	cmp	w8, #0x74
    6398:	54001040 	b.eq	65a0 <__vsnprintf+0x3f0>  // b.none
    639c:	5400046c 	b.gt	6428 <__vsnprintf+0x278>
    63a0:	7101c51f 	cmp	w8, #0x71
    63a4:	54000f60 	b.eq	6590 <__vsnprintf+0x3e0>  // b.none
    63a8:	540026cb 	b.lt	6880 <__vsnprintf+0x6d0>  // b.tstop
    63ac:	7101cd1f 	cmp	w8, #0x73
    63b0:	54fff601 	b.ne	6270 <__vsnprintf+0xc0>  // b.any
/home/zliu/ubuntu-optee-rpi3/RPi3_OPTEE_3.1/optee_os/lib/libutils/ext/snprintk.c:442
    63b4:	37f83480 	tbnz	w0, #31, 6a44 <__vsnprintf+0x894>
    63b8:	91003e61 	add	x1, x19, #0xf
    63bc:	2a0003f4 	mov	w20, w0
    63c0:	aa1303e0 	mov	x0, x19
    63c4:	927df033 	and	x19, x1, #0xfffffffffffffff8
    63c8:	f9400003 	ldr	x3, [x0]
/home/zliu/ubuntu-optee-rpi3/RPi3_OPTEE_3.1/optee_os/lib/libutils/ext/snprintk.c:444
    63cc:	d0000020 	adrp	x0, c000 <__func__.3927+0x294>
    63d0:	9116a400 	add	x0, x0, #0x5a9
    63d4:	f100007f 	cmp	x3, #0x0
    63d8:	9a830003 	csel	x3, x0, x3, eq  // eq = none
/home/zliu/ubuntu-optee-rpi3/RPi3_OPTEE_3.1/optee_os/lib/libutils/ext/snprintk.c:445
    63dc:	3100049f 	cmn	w4, #0x1
    63e0:	540033e0 	b.eq	6a5c <__vsnprintf+0x8ac>  // b.none
/home/zliu/ubuntu-optee-rpi3/RPi3_OPTEE_3.1/optee_os/lib/libutils/ext/snprintk.c:451
    63e4:	93407c82 	sxtw	x2, w4
    63e8:	aa0303e0 	mov	x0, x3
    63ec:	290d2ba8 	stp	w8, w10, [x29, #104]
    63f0:	52800001 	mov	w1, #0x0                   	// #0
    63f4:	f9003ba3 	str	x3, [x29, #112]
    63f8:	b9007ba4 	str	w4, [x29, #120]
    63fc:	94000332 	bl	70c4 <memchr>
/home/zliu/ubuntu-optee-rpi3/RPi3_OPTEE_3.1/optee_os/lib/libutils/ext/snprintk.c:453
    6400:	294d2ba8 	ldp	w8, w10, [x29, #104]
    6404:	b9407ba4 	ldr	w4, [x29, #120]
    6408:	f9403ba3 	ldr	x3, [x29, #112]
    640c:	b4000080 	cbz	x0, 641c <__vsnprintf+0x26c>
/home/zliu/ubuntu-optee-rpi3/RPi3_OPTEE_3.1/optee_os/lib/libutils/ext/snprintk.c:454
    6410:	cb030000 	sub	x0, x0, x3
    6414:	6b00009f 	cmp	w4, w0
    6418:	1a80d084 	csel	w4, w4, w0, le
/home/zliu/ubuntu-optee-rpi3/RPi3_OPTEE_3.1/optee_os/lib/libutils/ext/snprintk.c:285
    641c:	52800000 	mov	w0, #0x0                   	// #0
/home/zliu/ubuntu-optee-rpi3/RPi3_OPTEE_3.1/optee_os/lib/libutils/ext/snprintk.c:461
    6420:	52800001 	mov	w1, #0x0                   	// #0
    6424:	14000144 	b	6934 <__vsnprintf+0x784>
/home/zliu/ubuntu-optee-rpi3/RPi3_OPTEE_3.1/optee_os/lib/libutils/ext/snprintk.c:291
    6428:	7101e11f 	cmp	w8, #0x78
    642c:	540037e0 	b.eq	6b28 <__vsnprintf+0x978>  // b.none
    6430:	7101e91f 	cmp	w8, #0x7a
    6434:	54000ba0 	b.eq	65a8 <__vsnprintf+0x3f8>  // b.none
    6438:	7101d51f 	cmp	w8, #0x75
    643c:	54fff1a1 	b.ne	6270 <__vsnprintf+0xc0>  // b.any
/home/zliu/ubuntu-optee-rpi3/RPi3_OPTEE_3.1/optee_os/lib/libutils/ext/snprintk.c:467
    6440:	363832b5 	tbz	w21, #7, 6a94 <__vsnprintf+0x8e4>
    6444:	37f83400 	tbnz	w0, #31, 6ac4 <__vsnprintf+0x914>
    6448:	91003e61 	add	x1, x19, #0xf
    644c:	2a0003f4 	mov	w20, w0
    6450:	aa1303e0 	mov	x0, x19
    6454:	927df033 	and	x19, x1, #0xfffffffffffffff8
    6458:	f9400005 	ldr	x5, [x0]
/home/zliu/ubuntu-optee-rpi3/RPi3_OPTEE_3.1/optee_os/lib/libutils/ext/snprintk.c:468
    645c:	52800020 	mov	w0, #0x1                   	// #1
    6460:	17ffffb7 	b	633c <__vsnprintf+0x18c>
/home/zliu/ubuntu-optee-rpi3/RPi3_OPTEE_3.1/optee_os/lib/libutils/ext/snprintk.c:471
    6464:	90000037 	adrp	x23, a000 <__mpa_abs_cmp+0x5c>
    6468:	913c42f7 	add	x23, x23, #0xf10
/home/zliu/ubuntu-optee-rpi3/RPi3_OPTEE_3.1/optee_os/lib/libutils/ext/snprintk.c:475
    646c:	36383675 	tbz	w21, #7, 6b38 <__vsnprintf+0x988>
    6470:	37f837c0 	tbnz	w0, #31, 6b68 <__vsnprintf+0x9b8>
    6474:	91003e61 	add	x1, x19, #0xf
    6478:	2a0003f4 	mov	w20, w0
    647c:	aa1303e0 	mov	x0, x19
    6480:	927df033 	and	x19, x1, #0xfffffffffffffff8
    6484:	f9400005 	ldr	x5, [x0]
/home/zliu/ubuntu-optee-rpi3/RPi3_OPTEE_3.1/optee_os/lib/libutils/ext/snprintk.c:478
    6488:	36000075 	tbz	w21, #0, 6494 <__vsnprintf+0x2e4>
    648c:	b4000045 	cbz	x5, 6494 <__vsnprintf+0x2e4>
/home/zliu/ubuntu-optee-rpi3/RPi3_OPTEE_3.1/optee_os/lib/libutils/ext/snprintk.c:479
    6490:	321f02b5 	orr	w21, w21, #0x2
/home/zliu/ubuntu-optee-rpi3/RPi3_OPTEE_3.1/optee_os/lib/libutils/ext/snprintk.c:476
    6494:	52800040 	mov	w0, #0x2                   	// #2
    6498:	17ffffa9 	b	633c <__vsnprintf+0x18c>
/home/zliu/ubuntu-optee-rpi3/RPi3_OPTEE_3.1/optee_os/lib/libutils/ext/snprintk.c:299
    649c:	7100003f 	cmp	w1, #0x0
    64a0:	1a861021 	csel	w1, w1, w6, ne  // ne = any
    64a4:	17ffff87 	b	62c0 <__vsnprintf+0x110>
/home/zliu/ubuntu-optee-rpi3/RPi3_OPTEE_3.1/optee_os/lib/libutils/ext/snprintk.c:302
    64a8:	320002b5 	orr	w21, w21, #0x1
    64ac:	17ffff85 	b	62c0 <__vsnprintf+0x110>
/home/zliu/ubuntu-optee-rpi3/RPi3_OPTEE_3.1/optee_os/lib/libutils/ext/snprintk.c:311
    64b0:	37f80120 	tbnz	w0, #31, 64d4 <__vsnprintf+0x324>
    64b4:	91002e63 	add	x3, x19, #0xb
    64b8:	aa1303e2 	mov	x2, x19
    64bc:	927df073 	and	x19, x3, #0xfffffffffffffff8
    64c0:	b940004a 	ldr	w10, [x2]
    64c4:	36ffefea 	tbz	w10, #31, 62c0 <__vsnprintf+0x110>
/home/zliu/ubuntu-optee-rpi3/RPi3_OPTEE_3.1/optee_os/lib/libutils/ext/snprintk.c:313
    64c8:	4b0a03ea 	neg	w10, w10
/home/zliu/ubuntu-optee-rpi3/RPi3_OPTEE_3.1/optee_os/lib/libutils/ext/snprintk.c:316
    64cc:	321e02b5 	orr	w21, w21, #0x4
    64d0:	17ffff7c 	b	62c0 <__vsnprintf+0x110>
/home/zliu/ubuntu-optee-rpi3/RPi3_OPTEE_3.1/optee_os/lib/libutils/ext/snprintk.c:311
    64d4:	11002003 	add	w3, w0, #0x8
    64d8:	7100007f 	cmp	w3, #0x0
    64dc:	540000cd 	b.le	64f4 <__vsnprintf+0x344>
    64e0:	91002e67 	add	x7, x19, #0xb
    64e4:	aa1303e2 	mov	x2, x19
    64e8:	2a0303e0 	mov	w0, w3
    64ec:	927df0f3 	and	x19, x7, #0xfffffffffffffff8
    64f0:	17fffff4 	b	64c0 <__vsnprintf+0x310>
    64f4:	8b20c382 	add	x2, x28, w0, sxtw
    64f8:	2a0303e0 	mov	w0, w3
    64fc:	17fffff1 	b	64c0 <__vsnprintf+0x310>
/home/zliu/ubuntu-optee-rpi3/RPi3_OPTEE_3.1/optee_os/lib/libutils/ext/snprintk.c:322
    6500:	39400328 	ldrb	w8, [x25]
    6504:	91000723 	add	x3, x25, #0x1
    6508:	7100a91f 	cmp	w8, #0x2a
    650c:	54000140 	b.eq	6534 <__vsnprintf+0x384>  // b.none
    6510:	aa0303f9 	mov	x25, x3
    6514:	52800004 	mov	w4, #0x0                   	// #0
/home/zliu/ubuntu-optee-rpi3/RPi3_OPTEE_3.1/optee_os/lib/libutils/ext/snprintk.c:328
    6518:	5100c102 	sub	w2, w8, #0x30
    651c:	7100245f 	cmp	w2, #0x9
    6520:	54ffe8e8 	b.hi	623c <__vsnprintf+0x8c>  // b.pmore
/home/zliu/ubuntu-optee-rpi3/RPi3_OPTEE_3.1/optee_os/lib/libutils/ext/snprintk.c:329
    6524:	52800143 	mov	w3, #0xa                   	// #10
/home/zliu/ubuntu-optee-rpi3/RPi3_OPTEE_3.1/optee_os/lib/libutils/ext/snprintk.c:330
    6528:	38401728 	ldrb	w8, [x25], #1
/home/zliu/ubuntu-optee-rpi3/RPi3_OPTEE_3.1/optee_os/lib/libutils/ext/snprintk.c:329
    652c:	1b030884 	madd	w4, w4, w3, w2
    6530:	17fffffa 	b	6518 <__vsnprintf+0x368>
/home/zliu/ubuntu-optee-rpi3/RPi3_OPTEE_3.1/optee_os/lib/libutils/ext/snprintk.c:323
    6534:	37f80160 	tbnz	w0, #31, 6560 <__vsnprintf+0x3b0>
    6538:	91002e64 	add	x4, x19, #0xb
    653c:	2a0003e2 	mov	w2, w0
    6540:	aa1303e0 	mov	x0, x19
    6544:	927df093 	and	x19, x4, #0xfffffffffffffff8
/home/zliu/ubuntu-optee-rpi3/RPi3_OPTEE_3.1/optee_os/lib/libutils/ext/snprintk.c:324
    6548:	b9400004 	ldr	w4, [x0]
/home/zliu/ubuntu-optee-rpi3/RPi3_OPTEE_3.1/optee_os/lib/libutils/ext/snprintk.c:322
    654c:	aa0303f9 	mov	x25, x3
/home/zliu/ubuntu-optee-rpi3/RPi3_OPTEE_3.1/optee_os/lib/libutils/ext/snprintk.c:324
    6550:	2a0203e0 	mov	w0, w2
    6554:	7100009f 	cmp	w4, #0x0
    6558:	1a85a084 	csel	w4, w4, w5, ge  // ge = tcont
    655c:	17ffff59 	b	62c0 <__vsnprintf+0x110>
/home/zliu/ubuntu-optee-rpi3/RPi3_OPTEE_3.1/optee_os/lib/libutils/ext/snprintk.c:323
    6560:	11002002 	add	w2, w0, #0x8
    6564:	8b20c380 	add	x0, x28, w0, sxtw
    6568:	7100005f 	cmp	w2, #0x0
    656c:	54fffeed 	b.le	6548 <__vsnprintf+0x398>
    6570:	91002e64 	add	x4, x19, #0xb
    6574:	17fffff3 	b	6540 <__vsnprintf+0x390>
/home/zliu/ubuntu-optee-rpi3/RPi3_OPTEE_3.1/optee_os/lib/libutils/ext/snprintk.c:340
    6578:	321602b5 	orr	w21, w21, #0x400
    657c:	17ffff51 	b	62c0 <__vsnprintf+0x110>
/home/zliu/ubuntu-optee-rpi3/RPi3_OPTEE_3.1/optee_os/lib/libutils/ext/snprintk.c:358
    6580:	39400322 	ldrb	w2, [x25]
    6584:	7101b05f 	cmp	w2, #0x6c
    6588:	54000081 	b.ne	6598 <__vsnprintf+0x3e8>  // b.any
/home/zliu/ubuntu-optee-rpi3/RPi3_OPTEE_3.1/optee_os/lib/libutils/ext/snprintk.c:359
    658c:	91000739 	add	x25, x25, #0x1
/home/zliu/ubuntu-optee-rpi3/RPi3_OPTEE_3.1/optee_os/lib/libutils/ext/snprintk.c:366
    6590:	321b02b5 	orr	w21, w21, #0x20
    6594:	17ffff4b 	b	62c0 <__vsnprintf+0x110>
/home/zliu/ubuntu-optee-rpi3/RPi3_OPTEE_3.1/optee_os/lib/libutils/ext/snprintk.c:362
    6598:	321c02b5 	orr	w21, w21, #0x10
    659c:	17ffff49 	b	62c0 <__vsnprintf+0x110>
/home/zliu/ubuntu-optee-rpi3/RPi3_OPTEE_3.1/optee_os/lib/libutils/ext/snprintk.c:369
    65a0:	321802b5 	orr	w21, w21, #0x100
    65a4:	17ffff47 	b	62c0 <__vsnprintf+0x110>
/home/zliu/ubuntu-optee-rpi3/RPi3_OPTEE_3.1/optee_os/lib/libutils/ext/snprintk.c:372
    65a8:	321702b5 	orr	w21, w21, #0x200
    65ac:	17ffff45 	b	62c0 <__vsnprintf+0x110>
/home/zliu/ubuntu-optee-rpi3/RPi3_OPTEE_3.1/optee_os/lib/libutils/ext/snprintk.c:375
    65b0:	37f80140 	tbnz	w0, #31, 65d8 <__vsnprintf+0x428>
    65b4:	91002e61 	add	x1, x19, #0xb
    65b8:	2a0003f4 	mov	w20, w0
    65bc:	aa1303e0 	mov	x0, x19
    65c0:	927df033 	and	x19, x1, #0xfffffffffffffff8
    65c4:	910303a3 	add	x3, x29, #0xc0
    65c8:	b9400000 	ldr	w0, [x0]
    65cc:	381d8c60 	strb	w0, [x3, #-40]!
/home/zliu/ubuntu-optee-rpi3/RPi3_OPTEE_3.1/optee_os/lib/libutils/ext/snprintk.c:546
    65d0:	52800024 	mov	w4, #0x1                   	// #1
    65d4:	17ffff92 	b	641c <__vsnprintf+0x26c>
/home/zliu/ubuntu-optee-rpi3/RPi3_OPTEE_3.1/optee_os/lib/libutils/ext/snprintk.c:375
    65d8:	11002014 	add	w20, w0, #0x8
    65dc:	8b20c380 	add	x0, x28, w0, sxtw
    65e0:	7100029f 	cmp	w20, #0x0
    65e4:	54ffff0d 	b.le	65c4 <__vsnprintf+0x414>
    65e8:	91002e61 	add	x1, x19, #0xb
    65ec:	17fffff4 	b	65bc <__vsnprintf+0x40c>
/home/zliu/ubuntu-optee-rpi3/RPi3_OPTEE_3.1/optee_os/lib/libutils/ext/snprintk.c:380
    65f0:	321c02b5 	orr	w21, w21, #0x10
/home/zliu/ubuntu-optee-rpi3/RPi3_OPTEE_3.1/optee_os/lib/libutils/ext/snprintk.c:384
    65f4:	36380515 	tbz	w21, #7, 6694 <__vsnprintf+0x4e4>
    65f8:	37f80660 	tbnz	w0, #31, 66c4 <__vsnprintf+0x514>
    65fc:	91003e62 	add	x2, x19, #0xf
    6600:	2a0003f4 	mov	w20, w0
    6604:	aa1303e0 	mov	x0, x19
    6608:	927df053 	and	x19, x2, #0xfffffffffffffff8
    660c:	f9400005 	ldr	x5, [x0]
/home/zliu/ubuntu-optee-rpi3/RPi3_OPTEE_3.1/optee_os/lib/libutils/ext/snprintk.c:389
    6610:	52800020 	mov	w0, #0x1                   	// #1
/home/zliu/ubuntu-optee-rpi3/RPi3_OPTEE_3.1/optee_os/lib/libutils/ext/snprintk.c:385
    6614:	b6f80065 	tbz	x5, #63, 6620 <__vsnprintf+0x470>
/home/zliu/ubuntu-optee-rpi3/RPi3_OPTEE_3.1/optee_os/lib/libutils/ext/snprintk.c:386
    6618:	cb0503e5 	neg	x5, x5
/home/zliu/ubuntu-optee-rpi3/RPi3_OPTEE_3.1/optee_os/lib/libutils/ext/snprintk.c:387
    661c:	528005a1 	mov	w1, #0x2d                  	// #45
/home/zliu/ubuntu-optee-rpi3/RPi3_OPTEE_3.1/optee_os/lib/libutils/ext/snprintk.c:489
    6620:	3100049f 	cmn	w4, #0x1
    6624:	12157aa2 	and	w2, w21, #0xfffffbff
    6628:	1a951055 	csel	w21, w2, w21, ne  // ne = any
/home/zliu/ubuntu-optee-rpi3/RPi3_OPTEE_3.1/optee_os/lib/libutils/ext/snprintk.c:497
    662c:	f10000bf 	cmp	x5, #0x0
    6630:	7a400880 	ccmp	w4, #0x0, #0x0, eq  // eq = none
/home/zliu/ubuntu-optee-rpi3/RPi3_OPTEE_3.1/optee_os/lib/libutils/ext/snprintk.c:496
    6634:	91009703 	add	x3, x24, #0x25
/home/zliu/ubuntu-optee-rpi3/RPi3_OPTEE_3.1/optee_os/lib/libutils/ext/snprintk.c:497
    6638:	54000260 	b.eq	6684 <__vsnprintf+0x4d4>  // b.none
/home/zliu/ubuntu-optee-rpi3/RPi3_OPTEE_3.1/optee_os/lib/libutils/ext/snprintk.c:503
    663c:	7100041f 	cmp	w0, #0x1
    6640:	54002c60 	b.eq	6bcc <__vsnprintf+0xa1c>  // b.none
    6644:	7100081f 	cmp	w0, #0x2
    6648:	54002e40 	b.eq	6c10 <__vsnprintf+0xa60>  // b.none
    664c:	91009700 	add	x0, x24, #0x25
/home/zliu/ubuntu-optee-rpi3/RPi3_OPTEE_3.1/optee_os/lib/libutils/ext/snprintk.c:506
    6650:	120008a2 	and	w2, w5, #0x7
    6654:	d1000403 	sub	x3, x0, #0x1
    6658:	1100c042 	add	w2, w2, #0x30
    665c:	381ff002 	sturb	w2, [x0, #-1]
/home/zliu/ubuntu-optee-rpi3/RPi3_OPTEE_3.1/optee_os/lib/libutils/ext/snprintk.c:507
    6660:	d343fca5 	lsr	x5, x5, #3
/home/zliu/ubuntu-optee-rpi3/RPi3_OPTEE_3.1/optee_os/lib/libutils/ext/snprintk.c:508
    6664:	b5002c45 	cbnz	x5, 6bec <__vsnprintf+0xa3c>
/home/zliu/ubuntu-optee-rpi3/RPi3_OPTEE_3.1/optee_os/lib/libutils/ext/snprintk.c:510
    6668:	7100c05f 	cmp	w2, #0x30
    666c:	1a9f07e2 	cset	w2, ne  // ne = any
    6670:	6a0202bf 	tst	w21, w2
    6674:	54000080 	b.eq	6684 <__vsnprintf+0x4d4>  // b.none
/home/zliu/ubuntu-optee-rpi3/RPi3_OPTEE_3.1/optee_os/lib/libutils/ext/snprintk.c:511
    6678:	52800602 	mov	w2, #0x30                  	// #48
    667c:	381ff062 	sturb	w2, [x3, #-1]
    6680:	d1000803 	sub	x3, x0, #0x2
/home/zliu/ubuntu-optee-rpi3/RPi3_OPTEE_3.1/optee_os/lib/libutils/ext/snprintk.c:537
    6684:	91009702 	add	x2, x24, #0x25
    6688:	2a0403e0 	mov	w0, w4
    668c:	4b030044 	sub	w4, w2, w3
    6690:	140000a9 	b	6934 <__vsnprintf+0x784>
/home/zliu/ubuntu-optee-rpi3/RPi3_OPTEE_3.1/optee_os/lib/libutils/ext/snprintk.c:384
    6694:	3747fb35 	tbnz	w21, #8, 65f8 <__vsnprintf+0x448>
    6698:	374ffb15 	tbnz	w21, #9, 65f8 <__vsnprintf+0x448>
    669c:	372ffaf5 	tbnz	w21, #5, 65f8 <__vsnprintf+0x448>
    66a0:	3727fad5 	tbnz	w21, #4, 65f8 <__vsnprintf+0x448>
    66a4:	36300295 	tbz	w21, #6, 66f4 <__vsnprintf+0x544>
    66a8:	37f801a0 	tbnz	w0, #31, 66dc <__vsnprintf+0x52c>
    66ac:	91002e62 	add	x2, x19, #0xb
    66b0:	2a0003f4 	mov	w20, w0
    66b4:	aa1303e0 	mov	x0, x19
    66b8:	927df053 	and	x19, x2, #0xfffffffffffffff8
    66bc:	79800005 	ldrsh	x5, [x0]
    66c0:	17ffffd4 	b	6610 <__vsnprintf+0x460>
    66c4:	11002014 	add	w20, w0, #0x8
    66c8:	8b20c380 	add	x0, x28, w0, sxtw
    66cc:	7100029f 	cmp	w20, #0x0
    66d0:	54fff9ed 	b.le	660c <__vsnprintf+0x45c>
    66d4:	91003e62 	add	x2, x19, #0xf
    66d8:	17ffffcb 	b	6604 <__vsnprintf+0x454>
    66dc:	11002014 	add	w20, w0, #0x8
    66e0:	8b20c380 	add	x0, x28, w0, sxtw
    66e4:	7100029f 	cmp	w20, #0x0
    66e8:	54fffead 	b.le	66bc <__vsnprintf+0x50c>
    66ec:	91002e62 	add	x2, x19, #0xb
    66f0:	17fffff1 	b	66b4 <__vsnprintf+0x504>
    66f4:	37f800e0 	tbnz	w0, #31, 6710 <__vsnprintf+0x560>
    66f8:	91002e62 	add	x2, x19, #0xb
    66fc:	2a0003f4 	mov	w20, w0
    6700:	aa1303e0 	mov	x0, x19
    6704:	927df053 	and	x19, x2, #0xfffffffffffffff8
    6708:	b9800005 	ldrsw	x5, [x0]
    670c:	17ffffc1 	b	6610 <__vsnprintf+0x460>
    6710:	11002014 	add	w20, w0, #0x8
    6714:	8b20c380 	add	x0, x28, w0, sxtw
    6718:	7100029f 	cmp	w20, #0x0
    671c:	54ffff6d 	b.le	6708 <__vsnprintf+0x558>
    6720:	91002e62 	add	x2, x19, #0xb
    6724:	17fffff7 	b	6700 <__vsnprintf+0x550>
/home/zliu/ubuntu-optee-rpi3/RPi3_OPTEE_3.1/optee_os/lib/libutils/ext/snprintk.c:392
    6728:	36380155 	tbz	w21, #7, 6750 <__vsnprintf+0x5a0>
/home/zliu/ubuntu-optee-rpi3/RPi3_OPTEE_3.1/optee_os/lib/libutils/ext/snprintk.c:401
    672c:	37f802c0 	tbnz	w0, #31, 6784 <__vsnprintf+0x5d4>
    6730:	91003e61 	add	x1, x19, #0xf
    6734:	2a0003f4 	mov	w20, w0
    6738:	aa1303e0 	mov	x0, x19
    673c:	927df033 	and	x19, x1, #0xfffffffffffffff8
    6740:	f9400000 	ldr	x0, [x0]
    6744:	93407f61 	sxtw	x1, w27
    6748:	f9000001 	str	x1, [x0]
    674c:	17fffead 	b	6200 <__vsnprintf+0x50>
/home/zliu/ubuntu-optee-rpi3/RPi3_OPTEE_3.1/optee_os/lib/libutils/ext/snprintk.c:394
    6750:	3747fef5 	tbnz	w21, #8, 672c <__vsnprintf+0x57c>
/home/zliu/ubuntu-optee-rpi3/RPi3_OPTEE_3.1/optee_os/lib/libutils/ext/snprintk.c:396
    6754:	374ffed5 	tbnz	w21, #9, 672c <__vsnprintf+0x57c>
/home/zliu/ubuntu-optee-rpi3/RPi3_OPTEE_3.1/optee_os/lib/libutils/ext/snprintk.c:398
    6758:	372ffeb5 	tbnz	w21, #5, 672c <__vsnprintf+0x57c>
/home/zliu/ubuntu-optee-rpi3/RPi3_OPTEE_3.1/optee_os/lib/libutils/ext/snprintk.c:400
    675c:	3727fe95 	tbnz	w21, #4, 672c <__vsnprintf+0x57c>
/home/zliu/ubuntu-optee-rpi3/RPi3_OPTEE_3.1/optee_os/lib/libutils/ext/snprintk.c:402
    6760:	363002b5 	tbz	w21, #6, 67b4 <__vsnprintf+0x604>
/home/zliu/ubuntu-optee-rpi3/RPi3_OPTEE_3.1/optee_os/lib/libutils/ext/snprintk.c:403
    6764:	37f801c0 	tbnz	w0, #31, 679c <__vsnprintf+0x5ec>
    6768:	91003e61 	add	x1, x19, #0xf
    676c:	2a0003f4 	mov	w20, w0
    6770:	aa1303e0 	mov	x0, x19
    6774:	927df033 	and	x19, x1, #0xfffffffffffffff8
    6778:	f9400000 	ldr	x0, [x0]
    677c:	7900001b 	strh	w27, [x0]
    6780:	17fffea0 	b	6200 <__vsnprintf+0x50>
/home/zliu/ubuntu-optee-rpi3/RPi3_OPTEE_3.1/optee_os/lib/libutils/ext/snprintk.c:401
    6784:	11002014 	add	w20, w0, #0x8
    6788:	8b20c380 	add	x0, x28, w0, sxtw
    678c:	7100029f 	cmp	w20, #0x0
    6790:	54fffd8d 	b.le	6740 <__vsnprintf+0x590>
    6794:	91003e61 	add	x1, x19, #0xf
    6798:	17ffffe8 	b	6738 <__vsnprintf+0x588>
/home/zliu/ubuntu-optee-rpi3/RPi3_OPTEE_3.1/optee_os/lib/libutils/ext/snprintk.c:403
    679c:	11002014 	add	w20, w0, #0x8
    67a0:	8b20c380 	add	x0, x28, w0, sxtw
    67a4:	7100029f 	cmp	w20, #0x0
    67a8:	54fffe8d 	b.le	6778 <__vsnprintf+0x5c8>
    67ac:	91003e61 	add	x1, x19, #0xf
    67b0:	17fffff0 	b	6770 <__vsnprintf+0x5c0>
/home/zliu/ubuntu-optee-rpi3/RPi3_OPTEE_3.1/optee_os/lib/libutils/ext/snprintk.c:405
    67b4:	37f80100 	tbnz	w0, #31, 67d4 <__vsnprintf+0x624>
    67b8:	91003e61 	add	x1, x19, #0xf
    67bc:	2a0003f4 	mov	w20, w0
    67c0:	aa1303e0 	mov	x0, x19
    67c4:	927df033 	and	x19, x1, #0xfffffffffffffff8
    67c8:	f9400000 	ldr	x0, [x0]
    67cc:	b900001b 	str	w27, [x0]
    67d0:	17fffe8c 	b	6200 <__vsnprintf+0x50>
    67d4:	11002014 	add	w20, w0, #0x8
    67d8:	8b20c380 	add	x0, x28, w0, sxtw
    67dc:	7100029f 	cmp	w20, #0x0
    67e0:	54ffff4d 	b.le	67c8 <__vsnprintf+0x618>
    67e4:	91003e61 	add	x1, x19, #0xf
    67e8:	17fffff6 	b	67c0 <__vsnprintf+0x610>
/home/zliu/ubuntu-optee-rpi3/RPi3_OPTEE_3.1/optee_os/lib/libutils/ext/snprintk.c:411
    67ec:	3747d9b5 	tbnz	w21, #8, 6320 <__vsnprintf+0x170>
    67f0:	374fd995 	tbnz	w21, #9, 6320 <__vsnprintf+0x170>
    67f4:	372fd975 	tbnz	w21, #5, 6320 <__vsnprintf+0x170>
    67f8:	3727d955 	tbnz	w21, #4, 6320 <__vsnprintf+0x170>
    67fc:	36300295 	tbz	w21, #6, 684c <__vsnprintf+0x69c>
    6800:	37f801a0 	tbnz	w0, #31, 6834 <__vsnprintf+0x684>
    6804:	91002e61 	add	x1, x19, #0xb
    6808:	2a0003f4 	mov	w20, w0
    680c:	aa1303e0 	mov	x0, x19
    6810:	927df033 	and	x19, x1, #0xfffffffffffffff8
    6814:	79400005 	ldrh	w5, [x0]
    6818:	17fffec8 	b	6338 <__vsnprintf+0x188>
    681c:	11002014 	add	w20, w0, #0x8
    6820:	8b20c380 	add	x0, x28, w0, sxtw
    6824:	7100029f 	cmp	w20, #0x0
    6828:	54ffd86d 	b.le	6334 <__vsnprintf+0x184>
    682c:	91003e61 	add	x1, x19, #0xf
    6830:	17fffebf 	b	632c <__vsnprintf+0x17c>
    6834:	11002014 	add	w20, w0, #0x8
    6838:	8b20c380 	add	x0, x28, w0, sxtw
    683c:	7100029f 	cmp	w20, #0x0
    6840:	54fffead 	b.le	6814 <__vsnprintf+0x664>
    6844:	91002e61 	add	x1, x19, #0xb
    6848:	17fffff1 	b	680c <__vsnprintf+0x65c>
    684c:	37f800e0 	tbnz	w0, #31, 6868 <__vsnprintf+0x6b8>
    6850:	91002e61 	add	x1, x19, #0xb
    6854:	2a0003f4 	mov	w20, w0
    6858:	aa1303e0 	mov	x0, x19
    685c:	927df033 	and	x19, x1, #0xfffffffffffffff8
    6860:	b9400005 	ldr	w5, [x0]
    6864:	17fffeb5 	b	6338 <__vsnprintf+0x188>
    6868:	11002014 	add	w20, w0, #0x8
    686c:	8b20c380 	add	x0, x28, w0, sxtw
    6870:	7100029f 	cmp	w20, #0x0
    6874:	54ffff6d 	b.le	6860 <__vsnprintf+0x6b0>
    6878:	91002e61 	add	x1, x19, #0xb
    687c:	17fffff7 	b	6858 <__vsnprintf+0x6a8>
/home/zliu/ubuntu-optee-rpi3/RPi3_OPTEE_3.1/optee_os/lib/libutils/ext/snprintk.c:415
    6880:	b9407fa1 	ldr	w1, [x29, #124]
    6884:	34000b81 	cbz	w1, 69f4 <__vsnprintf+0x844>
    6888:	39400321 	ldrb	w1, [x25]
    688c:	7101543f 	cmp	w1, #0x55
    6890:	54000b21 	b.ne	69f4 <__vsnprintf+0x844>  // b.any
    6894:	39400721 	ldrb	w1, [x25, #1]
    6898:	7101b03f 	cmp	w1, #0x6c
    689c:	54000ac1 	b.ne	69f4 <__vsnprintf+0x844>  // b.any
/home/zliu/ubuntu-optee-rpi3/RPi3_OPTEE_3.1/optee_os/lib/libutils/ext/snprintk.c:420
    68a0:	91000b39 	add	x25, x25, #0x2
/home/zliu/ubuntu-optee-rpi3/RPi3_OPTEE_3.1/optee_os/lib/libutils/ext/snprintk.c:421
    68a4:	37f809c0 	tbnz	w0, #31, 69dc <__vsnprintf+0x82c>
    68a8:	91003e61 	add	x1, x19, #0xf
    68ac:	2a0003f4 	mov	w20, w0
    68b0:	aa1303e0 	mov	x0, x19
    68b4:	927df033 	and	x19, x1, #0xfffffffffffffff8
    68b8:	f9400000 	ldr	x0, [x0]
uuid2str():
/home/zliu/ubuntu-optee-rpi3/RPi3_OPTEE_3.1/optee_os/lib/libutils/ext/snprintk.c:223
    68bc:	d0000022 	adrp	x2, c000 <__func__.3927+0x294>
    68c0:	b90073aa 	str	w10, [x29, #112]
    68c4:	9116c042 	add	x2, x2, #0x5b0
    68c8:	b9007ba8 	str	w8, [x29, #120]
    68cc:	39403c01 	ldrb	w1, [x0, #15]
    68d0:	79400804 	ldrh	w4, [x0, #4]
    68d4:	39402407 	ldrb	w7, [x0, #9]
    68d8:	39402006 	ldrb	w6, [x0, #8]
    68dc:	79400c05 	ldrh	w5, [x0, #6]
    68e0:	b9002be1 	str	w1, [sp, #40]
    68e4:	39403801 	ldrb	w1, [x0, #14]
    68e8:	b90023e1 	str	w1, [sp, #32]
    68ec:	39403401 	ldrb	w1, [x0, #13]
    68f0:	b9001be1 	str	w1, [sp, #24]
    68f4:	39403001 	ldrb	w1, [x0, #12]
    68f8:	b90013e1 	str	w1, [sp, #16]
    68fc:	39402c01 	ldrb	w1, [x0, #11]
    6900:	b9000be1 	str	w1, [sp, #8]
    6904:	39402801 	ldrb	w1, [x0, #10]
    6908:	b90003e1 	str	w1, [sp]
    690c:	d28004a1 	mov	x1, #0x25                  	// #37
    6910:	b9400003 	ldr	w3, [x0]
    6914:	aa1803e0 	mov	x0, x24
    6918:	94000125 	bl	6dac <snprintk>
    691c:	2a0003e4 	mov	w4, w0
    6920:	b94073aa 	ldr	w10, [x29, #112]
kprintf():
/home/zliu/ubuntu-optee-rpi3/RPi3_OPTEE_3.1/optee_os/lib/libutils/ext/snprintk.c:423
    6924:	aa1803e3 	mov	x3, x24
    6928:	b9407ba8 	ldr	w8, [x29, #120]
/home/zliu/ubuntu-optee-rpi3/RPi3_OPTEE_3.1/optee_os/lib/libutils/ext/snprintk.c:285
    692c:	52800000 	mov	w0, #0x0                   	// #0
/home/zliu/ubuntu-optee-rpi3/RPi3_OPTEE_3.1/optee_os/lib/libutils/ext/snprintk.c:424
    6930:	52800001 	mov	w1, #0x0                   	// #0
/home/zliu/ubuntu-optee-rpi3/RPi3_OPTEE_3.1/optee_os/lib/libutils/ext/snprintk.c:565
    6934:	6b04001f 	cmp	w0, w4
    6938:	1a84a006 	csel	w6, w0, w4, ge  // ge = tcont
/home/zliu/ubuntu-optee-rpi3/RPi3_OPTEE_3.1/optee_os/lib/libutils/ext/snprintk.c:566
    693c:	34001781 	cbz	w1, 6c2c <__vsnprintf+0xa7c>
/home/zliu/ubuntu-optee-rpi3/RPi3_OPTEE_3.1/optee_os/lib/libutils/ext/snprintk.c:567
    6940:	110004c6 	add	w6, w6, #0x1
/home/zliu/ubuntu-optee-rpi3/RPi3_OPTEE_3.1/optee_os/lib/libutils/ext/snprintk.c:572
    6944:	6b06015f 	cmp	w10, w6
    6948:	1a86a142 	csel	w2, w10, w6, ge  // ge = tcont
    694c:	0b02037b 	add	w27, w27, w2
/home/zliu/ubuntu-optee-rpi3/RPi3_OPTEE_3.1/optee_os/lib/libutils/ext/snprintk.c:575
    6950:	52808082 	mov	w2, #0x404                 	// #1028
    6954:	6a0202a2 	ands	w2, w21, w2
    6958:	540000a1 	b.ne	696c <__vsnprintf+0x7bc>  // b.any
/home/zliu/ubuntu-optee-rpi3/RPi3_OPTEE_3.1/optee_os/lib/libutils/ext/snprintk.c:576
    695c:	4b060145 	sub	w5, w10, w6
/home/zliu/ubuntu-optee-rpi3/RPi3_OPTEE_3.1/optee_os/lib/libutils/ext/snprintk.c:578
    6960:	52800407 	mov	w7, #0x20                  	// #32
/home/zliu/ubuntu-optee-rpi3/RPi3_OPTEE_3.1/optee_os/lib/libutils/ext/snprintk.c:577
    6964:	710000bf 	cmp	w5, #0x0
    6968:	540016ac 	b.gt	6c3c <__vsnprintf+0xa8c>
/home/zliu/ubuntu-optee-rpi3/RPi3_OPTEE_3.1/optee_os/lib/libutils/ext/snprintk.c:582
    696c:	34001801 	cbz	w1, 6c6c <__vsnprintf+0xabc>
/home/zliu/ubuntu-optee-rpi3/RPi3_OPTEE_3.1/optee_os/lib/libutils/ext/snprintk.c:583
    6970:	b5001756 	cbnz	x22, 6c58 <__vsnprintf+0xaa8>
/home/zliu/ubuntu-optee-rpi3/RPi3_OPTEE_3.1/optee_os/lib/libutils/ext/snprintk.c:586
    6974:	d2800016 	mov	x22, #0x0                   	// #0
/home/zliu/ubuntu-optee-rpi3/RPi3_OPTEE_3.1/optee_os/lib/libutils/ext/snprintk.c:590
    6978:	7110005f 	cmp	w2, #0x400
    697c:	540000a1 	b.ne	6990 <__vsnprintf+0x7e0>  // b.any
/home/zliu/ubuntu-optee-rpi3/RPi3_OPTEE_3.1/optee_os/lib/libutils/ext/snprintk.c:591
    6980:	4b060141 	sub	w1, w10, w6
/home/zliu/ubuntu-optee-rpi3/RPi3_OPTEE_3.1/optee_os/lib/libutils/ext/snprintk.c:593
    6984:	52800602 	mov	w2, #0x30                  	// #48
/home/zliu/ubuntu-optee-rpi3/RPi3_OPTEE_3.1/optee_os/lib/libutils/ext/snprintk.c:592
    6988:	7100003f 	cmp	w1, #0x0
    698c:	540018ec 	b.gt	6ca8 <__vsnprintf+0xaf8>
/home/zliu/ubuntu-optee-rpi3/RPi3_OPTEE_3.1/optee_os/lib/libutils/ext/snprintk.c:597
    6990:	4b040000 	sub	w0, w0, w4
/home/zliu/ubuntu-optee-rpi3/RPi3_OPTEE_3.1/optee_os/lib/libutils/ext/snprintk.c:599
    6994:	52800601 	mov	w1, #0x30                  	// #48
/home/zliu/ubuntu-optee-rpi3/RPi3_OPTEE_3.1/optee_os/lib/libutils/ext/snprintk.c:598
    6998:	7100001f 	cmp	w0, #0x0
    699c:	5400194c 	b.gt	6cc4 <__vsnprintf+0xb14>
    69a0:	8b244064 	add	x4, x3, w4, uxtw
/home/zliu/ubuntu-optee-rpi3/RPi3_OPTEE_3.1/optee_os/lib/libutils/ext/snprintk.c:602
    69a4:	eb04007f 	cmp	x3, x4
    69a8:	540019c1 	b.ne	6ce0 <__vsnprintf+0xb30>  // b.any
/home/zliu/ubuntu-optee-rpi3/RPi3_OPTEE_3.1/optee_os/lib/libutils/ext/snprintk.c:605
    69ac:	3617c2b5 	tbz	w21, #2, 6200 <__vsnprintf+0x50>
/home/zliu/ubuntu-optee-rpi3/RPi3_OPTEE_3.1/optee_os/lib/libutils/ext/snprintk.c:606
    69b0:	4b06014a 	sub	w10, w10, w6
/home/zliu/ubuntu-optee-rpi3/RPi3_OPTEE_3.1/optee_os/lib/libutils/ext/snprintk.c:608
    69b4:	52800400 	mov	w0, #0x20                  	// #32
/home/zliu/ubuntu-optee-rpi3/RPi3_OPTEE_3.1/optee_os/lib/libutils/ext/snprintk.c:607
    69b8:	7100015f 	cmp	w10, #0x0
    69bc:	54ffc22d 	b.le	6200 <__vsnprintf+0x50>
/home/zliu/ubuntu-optee-rpi3/RPi3_OPTEE_3.1/optee_os/lib/libutils/ext/snprintk.c:608
    69c0:	b40000b6 	cbz	x22, 69d4 <__vsnprintf+0x824>
    69c4:	eb16035f 	cmp	x26, x22
    69c8:	54000069 	b.ls	69d4 <__vsnprintf+0x824>  // b.plast
    69cc:	390002c0 	strb	w0, [x22]
    69d0:	910006d6 	add	x22, x22, #0x1
    69d4:	5100054a 	sub	w10, w10, #0x1
    69d8:	17fffff8 	b	69b8 <__vsnprintf+0x808>
/home/zliu/ubuntu-optee-rpi3/RPi3_OPTEE_3.1/optee_os/lib/libutils/ext/snprintk.c:421
    69dc:	11002014 	add	w20, w0, #0x8
    69e0:	8b20c380 	add	x0, x28, w0, sxtw
    69e4:	7100029f 	cmp	w20, #0x0
    69e8:	54fff68d 	b.le	68b8 <__vsnprintf+0x708>
    69ec:	91003e61 	add	x1, x19, #0xf
    69f0:	17ffffb0 	b	68b0 <__vsnprintf+0x700>
/home/zliu/ubuntu-optee-rpi3/RPi3_OPTEE_3.1/optee_os/lib/libutils/ext/snprintk.c:435
    69f4:	37f801c0 	tbnz	w0, #31, 6a2c <__vsnprintf+0x87c>
    69f8:	91003e61 	add	x1, x19, #0xf
    69fc:	2a0003f4 	mov	w20, w0
    6a00:	aa1303e0 	mov	x0, x19
    6a04:	927df033 	and	x19, x1, #0xfffffffffffffff8
/home/zliu/ubuntu-optee-rpi3/RPi3_OPTEE_3.1/optee_os/lib/libutils/ext/snprintk.c:437
    6a08:	90000037 	adrp	x23, a000 <__mpa_abs_cmp+0x5c>
    6a0c:	913c42f7 	add	x23, x23, #0xf10
/home/zliu/ubuntu-optee-rpi3/RPi3_OPTEE_3.1/optee_os/lib/libutils/ext/snprintk.c:435
    6a10:	f9400005 	ldr	x5, [x0]
/home/zliu/ubuntu-optee-rpi3/RPi3_OPTEE_3.1/optee_os/lib/libutils/ext/snprintk.c:438
    6a14:	321f02b5 	orr	w21, w21, #0x2
/home/zliu/ubuntu-optee-rpi3/RPi3_OPTEE_3.1/optee_os/lib/libutils/ext/snprintk.c:437
    6a18:	910062f7 	add	x23, x23, #0x18
/home/zliu/ubuntu-optee-rpi3/RPi3_OPTEE_3.1/optee_os/lib/libutils/ext/snprintk.c:482
    6a1c:	52800001 	mov	w1, #0x0                   	// #0
/home/zliu/ubuntu-optee-rpi3/RPi3_OPTEE_3.1/optee_os/lib/libutils/ext/snprintk.c:439
    6a20:	52800f08 	mov	w8, #0x78                  	// #120
/home/zliu/ubuntu-optee-rpi3/RPi3_OPTEE_3.1/optee_os/lib/libutils/ext/snprintk.c:436
    6a24:	52800040 	mov	w0, #0x2                   	// #2
    6a28:	17fffefe 	b	6620 <__vsnprintf+0x470>
/home/zliu/ubuntu-optee-rpi3/RPi3_OPTEE_3.1/optee_os/lib/libutils/ext/snprintk.c:435
    6a2c:	11002014 	add	w20, w0, #0x8
    6a30:	8b20c380 	add	x0, x28, w0, sxtw
    6a34:	7100029f 	cmp	w20, #0x0
    6a38:	54fffe8d 	b.le	6a08 <__vsnprintf+0x858>
    6a3c:	91003e61 	add	x1, x19, #0xf
    6a40:	17fffff0 	b	6a00 <__vsnprintf+0x850>
/home/zliu/ubuntu-optee-rpi3/RPi3_OPTEE_3.1/optee_os/lib/libutils/ext/snprintk.c:442
    6a44:	11002014 	add	w20, w0, #0x8
    6a48:	8b20c380 	add	x0, x28, w0, sxtw
    6a4c:	7100029f 	cmp	w20, #0x0
    6a50:	54ffcbcd 	b.le	63c8 <__vsnprintf+0x218>
    6a54:	91003e61 	add	x1, x19, #0xf
    6a58:	17fffe5a 	b	63c0 <__vsnprintf+0x210>
/home/zliu/ubuntu-optee-rpi3/RPi3_OPTEE_3.1/optee_os/lib/libutils/ext/snprintk.c:460
    6a5c:	aa0303e0 	mov	x0, x3
    6a60:	b9006fa8 	str	w8, [x29, #108]
    6a64:	f9003ba3 	str	x3, [x29, #112]
    6a68:	b9007baa 	str	w10, [x29, #120]
    6a6c:	97fffdca 	bl	6194 <strlen>
/home/zliu/ubuntu-optee-rpi3/RPi3_OPTEE_3.1/optee_os/lib/libutils/ext/snprintk.c:461
    6a70:	52800001 	mov	w1, #0x0                   	// #0
/home/zliu/ubuntu-optee-rpi3/RPi3_OPTEE_3.1/optee_os/lib/libutils/ext/snprintk.c:460
    6a74:	2a0003e4 	mov	w4, w0
    6a78:	b9406fa8 	ldr	w8, [x29, #108]
/home/zliu/ubuntu-optee-rpi3/RPi3_OPTEE_3.1/optee_os/lib/libutils/ext/snprintk.c:285
    6a7c:	52800000 	mov	w0, #0x0                   	// #0
    6a80:	b9407baa 	ldr	w10, [x29, #120]
    6a84:	f9403ba3 	ldr	x3, [x29, #112]
    6a88:	17ffffab 	b	6934 <__vsnprintf+0x784>
/home/zliu/ubuntu-optee-rpi3/RPi3_OPTEE_3.1/optee_os/lib/libutils/ext/snprintk.c:464
    6a8c:	321c02b5 	orr	w21, w21, #0x10
    6a90:	17fffe6c 	b	6440 <__vsnprintf+0x290>
/home/zliu/ubuntu-optee-rpi3/RPi3_OPTEE_3.1/optee_os/lib/libutils/ext/snprintk.c:467
    6a94:	3747cd95 	tbnz	w21, #8, 6444 <__vsnprintf+0x294>
    6a98:	374fcd75 	tbnz	w21, #9, 6444 <__vsnprintf+0x294>
    6a9c:	372fcd55 	tbnz	w21, #5, 6444 <__vsnprintf+0x294>
    6aa0:	3727cd35 	tbnz	w21, #4, 6444 <__vsnprintf+0x294>
    6aa4:	36300295 	tbz	w21, #6, 6af4 <__vsnprintf+0x944>
    6aa8:	37f801a0 	tbnz	w0, #31, 6adc <__vsnprintf+0x92c>
    6aac:	91002e61 	add	x1, x19, #0xb
    6ab0:	2a0003f4 	mov	w20, w0
    6ab4:	aa1303e0 	mov	x0, x19
    6ab8:	927df033 	and	x19, x1, #0xfffffffffffffff8
    6abc:	79400005 	ldrh	w5, [x0]
    6ac0:	17fffe67 	b	645c <__vsnprintf+0x2ac>
    6ac4:	11002014 	add	w20, w0, #0x8
    6ac8:	8b20c380 	add	x0, x28, w0, sxtw
    6acc:	7100029f 	cmp	w20, #0x0
    6ad0:	54ffcc4d 	b.le	6458 <__vsnprintf+0x2a8>
    6ad4:	91003e61 	add	x1, x19, #0xf
    6ad8:	17fffe5e 	b	6450 <__vsnprintf+0x2a0>
    6adc:	11002014 	add	w20, w0, #0x8
    6ae0:	8b20c380 	add	x0, x28, w0, sxtw
    6ae4:	7100029f 	cmp	w20, #0x0
    6ae8:	54fffead 	b.le	6abc <__vsnprintf+0x90c>
    6aec:	91002e61 	add	x1, x19, #0xb
    6af0:	17fffff1 	b	6ab4 <__vsnprintf+0x904>
    6af4:	37f800e0 	tbnz	w0, #31, 6b10 <__vsnprintf+0x960>
    6af8:	91002e61 	add	x1, x19, #0xb
    6afc:	2a0003f4 	mov	w20, w0
    6b00:	aa1303e0 	mov	x0, x19
    6b04:	927df033 	and	x19, x1, #0xfffffffffffffff8
    6b08:	b9400005 	ldr	w5, [x0]
    6b0c:	17fffe54 	b	645c <__vsnprintf+0x2ac>
    6b10:	11002014 	add	w20, w0, #0x8
    6b14:	8b20c380 	add	x0, x28, w0, sxtw
    6b18:	7100029f 	cmp	w20, #0x0
    6b1c:	54ffff6d 	b.le	6b08 <__vsnprintf+0x958>
    6b20:	91002e61 	add	x1, x19, #0xb
    6b24:	17fffff7 	b	6b00 <__vsnprintf+0x950>
/home/zliu/ubuntu-optee-rpi3/RPi3_OPTEE_3.1/optee_os/lib/libutils/ext/snprintk.c:474
    6b28:	90000037 	adrp	x23, a000 <__mpa_abs_cmp+0x5c>
    6b2c:	913c42f7 	add	x23, x23, #0xf10
    6b30:	910062f7 	add	x23, x23, #0x18
    6b34:	17fffe4e 	b	646c <__vsnprintf+0x2bc>
/home/zliu/ubuntu-optee-rpi3/RPi3_OPTEE_3.1/optee_os/lib/libutils/ext/snprintk.c:475
    6b38:	3747c9d5 	tbnz	w21, #8, 6470 <__vsnprintf+0x2c0>
    6b3c:	374fc9b5 	tbnz	w21, #9, 6470 <__vsnprintf+0x2c0>
    6b40:	372fc995 	tbnz	w21, #5, 6470 <__vsnprintf+0x2c0>
    6b44:	3727c975 	tbnz	w21, #4, 6470 <__vsnprintf+0x2c0>
    6b48:	36300295 	tbz	w21, #6, 6b98 <__vsnprintf+0x9e8>
    6b4c:	37f801a0 	tbnz	w0, #31, 6b80 <__vsnprintf+0x9d0>
    6b50:	91002e61 	add	x1, x19, #0xb
    6b54:	2a0003f4 	mov	w20, w0
    6b58:	aa1303e0 	mov	x0, x19
    6b5c:	927df033 	and	x19, x1, #0xfffffffffffffff8
    6b60:	79400005 	ldrh	w5, [x0]
    6b64:	17fffe49 	b	6488 <__vsnprintf+0x2d8>
    6b68:	11002014 	add	w20, w0, #0x8
    6b6c:	8b20c380 	add	x0, x28, w0, sxtw
    6b70:	7100029f 	cmp	w20, #0x0
    6b74:	54ffc88d 	b.le	6484 <__vsnprintf+0x2d4>
    6b78:	91003e61 	add	x1, x19, #0xf
    6b7c:	17fffe40 	b	647c <__vsnprintf+0x2cc>
    6b80:	11002014 	add	w20, w0, #0x8
    6b84:	8b20c380 	add	x0, x28, w0, sxtw
    6b88:	7100029f 	cmp	w20, #0x0
    6b8c:	54fffead 	b.le	6b60 <__vsnprintf+0x9b0>
    6b90:	91002e61 	add	x1, x19, #0xb
    6b94:	17fffff1 	b	6b58 <__vsnprintf+0x9a8>
    6b98:	37f800e0 	tbnz	w0, #31, 6bb4 <__vsnprintf+0xa04>
    6b9c:	91002e61 	add	x1, x19, #0xb
    6ba0:	2a0003f4 	mov	w20, w0
    6ba4:	aa1303e0 	mov	x0, x19
    6ba8:	927df033 	and	x19, x1, #0xfffffffffffffff8
    6bac:	b9400005 	ldr	w5, [x0]
    6bb0:	17fffe36 	b	6488 <__vsnprintf+0x2d8>
    6bb4:	11002014 	add	w20, w0, #0x8
    6bb8:	8b20c380 	add	x0, x28, w0, sxtw
    6bbc:	7100029f 	cmp	w20, #0x0
    6bc0:	54ffff6d 	b.le	6bac <__vsnprintf+0x9fc>
    6bc4:	91002e61 	add	x1, x19, #0xb
    6bc8:	17fffff7 	b	6ba4 <__vsnprintf+0x9f4>
/home/zliu/ubuntu-optee-rpi3/RPi3_OPTEE_3.1/optee_os/lib/libutils/ext/snprintk.c:503
    6bcc:	91009700 	add	x0, x24, #0x25
/home/zliu/ubuntu-optee-rpi3/RPi3_OPTEE_3.1/optee_os/lib/libutils/ext/snprintk.c:517
    6bd0:	d2800146 	mov	x6, #0xa                   	// #10
/home/zliu/ubuntu-optee-rpi3/RPi3_OPTEE_3.1/optee_os/lib/libutils/ext/snprintk.c:516
    6bd4:	f10024bf 	cmp	x5, #0x9
    6bd8:	d1000403 	sub	x3, x0, #0x1
    6bdc:	540000c8 	b.hi	6bf4 <__vsnprintf+0xa44>  // b.pmore
/home/zliu/ubuntu-optee-rpi3/RPi3_OPTEE_3.1/optee_os/lib/libutils/ext/snprintk.c:520
    6be0:	1100c0a2 	add	w2, w5, #0x30
    6be4:	381ff002 	sturb	w2, [x0, #-1]
    6be8:	17fffea7 	b	6684 <__vsnprintf+0x4d4>
/home/zliu/ubuntu-optee-rpi3/RPi3_OPTEE_3.1/optee_os/lib/libutils/ext/snprintk.c:508
    6bec:	aa0303e0 	mov	x0, x3
    6bf0:	17fffe98 	b	6650 <__vsnprintf+0x4a0>
/home/zliu/ubuntu-optee-rpi3/RPi3_OPTEE_3.1/optee_os/lib/libutils/ext/snprintk.c:517
    6bf4:	aa0303e0 	mov	x0, x3
    6bf8:	9ac608a3 	udiv	x3, x5, x6
    6bfc:	9b069462 	msub	x2, x3, x6, x5
/home/zliu/ubuntu-optee-rpi3/RPi3_OPTEE_3.1/optee_os/lib/libutils/ext/snprintk.c:518
    6c00:	aa0303e5 	mov	x5, x3
/home/zliu/ubuntu-optee-rpi3/RPi3_OPTEE_3.1/optee_os/lib/libutils/ext/snprintk.c:517
    6c04:	1100c042 	add	w2, w2, #0x30
    6c08:	39000002 	strb	w2, [x0]
    6c0c:	17fffff2 	b	6bd4 <__vsnprintf+0xa24>
/home/zliu/ubuntu-optee-rpi3/RPi3_OPTEE_3.1/optee_os/lib/libutils/ext/snprintk.c:503
    6c10:	91009703 	add	x3, x24, #0x25
/home/zliu/ubuntu-optee-rpi3/RPi3_OPTEE_3.1/optee_os/lib/libutils/ext/snprintk.c:525
    6c14:	92400ca0 	and	x0, x5, #0xf
/home/zliu/ubuntu-optee-rpi3/RPi3_OPTEE_3.1/optee_os/lib/libutils/ext/snprintk.c:526
    6c18:	d344fca5 	lsr	x5, x5, #4
/home/zliu/ubuntu-optee-rpi3/RPi3_OPTEE_3.1/optee_os/lib/libutils/ext/snprintk.c:525
    6c1c:	38606ae0 	ldrb	w0, [x23, x0]
    6c20:	381ffc60 	strb	w0, [x3, #-1]!
/home/zliu/ubuntu-optee-rpi3/RPi3_OPTEE_3.1/optee_os/lib/libutils/ext/snprintk.c:527
    6c24:	b5ffff85 	cbnz	x5, 6c14 <__vsnprintf+0xa64>
    6c28:	17fffe97 	b	6684 <__vsnprintf+0x4d4>
/home/zliu/ubuntu-optee-rpi3/RPi3_OPTEE_3.1/optee_os/lib/libutils/ext/snprintk.c:569
    6c2c:	110008c2 	add	w2, w6, #0x2
    6c30:	f27f02bf 	tst	x21, #0x2
    6c34:	1a861046 	csel	w6, w2, w6, ne  // ne = any
    6c38:	17ffff43 	b	6944 <__vsnprintf+0x794>
/home/zliu/ubuntu-optee-rpi3/RPi3_OPTEE_3.1/optee_os/lib/libutils/ext/snprintk.c:578
    6c3c:	b40000b6 	cbz	x22, 6c50 <__vsnprintf+0xaa0>
    6c40:	eb16035f 	cmp	x26, x22
    6c44:	54000069 	b.ls	6c50 <__vsnprintf+0xaa0>  // b.plast
    6c48:	390002c7 	strb	w7, [x22]
    6c4c:	910006d6 	add	x22, x22, #0x1
    6c50:	510004a5 	sub	w5, w5, #0x1
    6c54:	17ffff44 	b	6964 <__vsnprintf+0x7b4>
/home/zliu/ubuntu-optee-rpi3/RPi3_OPTEE_3.1/optee_os/lib/libutils/ext/snprintk.c:583
    6c58:	eb16035f 	cmp	x26, x22
    6c5c:	54ffe8e9 	b.ls	6978 <__vsnprintf+0x7c8>  // b.plast
    6c60:	390002c1 	strb	w1, [x22]
    6c64:	910006d6 	add	x22, x22, #0x1
    6c68:	17ffff44 	b	6978 <__vsnprintf+0x7c8>
/home/zliu/ubuntu-optee-rpi3/RPi3_OPTEE_3.1/optee_os/lib/libutils/ext/snprintk.c:584
    6c6c:	360fe875 	tbz	w21, #1, 6978 <__vsnprintf+0x7c8>
/home/zliu/ubuntu-optee-rpi3/RPi3_OPTEE_3.1/optee_os/lib/libutils/ext/snprintk.c:585
    6c70:	b4ffe836 	cbz	x22, 6974 <__vsnprintf+0x7c4>
    6c74:	eb16035f 	cmp	x26, x22
    6c78:	54ffe809 	b.ls	6978 <__vsnprintf+0x7c8>  // b.plast
    6c7c:	52800601 	mov	w1, #0x30                  	// #48
    6c80:	390002c1 	strb	w1, [x22]
/home/zliu/ubuntu-optee-rpi3/RPi3_OPTEE_3.1/optee_os/lib/libutils/ext/snprintk.c:586
    6c84:	b10006c1 	adds	x1, x22, #0x1
    6c88:	54ffe760 	b.eq	6974 <__vsnprintf+0x7c4>  // b.none
    6c8c:	eb01035f 	cmp	x26, x1
    6c90:	54000089 	b.ls	6ca0 <__vsnprintf+0xaf0>  // b.plast
    6c94:	390006c8 	strb	w8, [x22, #1]
    6c98:	91000ad6 	add	x22, x22, #0x2
    6c9c:	17ffff37 	b	6978 <__vsnprintf+0x7c8>
    6ca0:	aa0103f6 	mov	x22, x1
    6ca4:	17ffff35 	b	6978 <__vsnprintf+0x7c8>
/home/zliu/ubuntu-optee-rpi3/RPi3_OPTEE_3.1/optee_os/lib/libutils/ext/snprintk.c:593
    6ca8:	b40000b6 	cbz	x22, 6cbc <__vsnprintf+0xb0c>
    6cac:	eb16035f 	cmp	x26, x22
    6cb0:	54000069 	b.ls	6cbc <__vsnprintf+0xb0c>  // b.plast
    6cb4:	390002c2 	strb	w2, [x22]
    6cb8:	910006d6 	add	x22, x22, #0x1
    6cbc:	51000421 	sub	w1, w1, #0x1
    6cc0:	17ffff32 	b	6988 <__vsnprintf+0x7d8>
/home/zliu/ubuntu-optee-rpi3/RPi3_OPTEE_3.1/optee_os/lib/libutils/ext/snprintk.c:599
    6cc4:	b40000b6 	cbz	x22, 6cd8 <__vsnprintf+0xb28>
    6cc8:	eb16035f 	cmp	x26, x22
    6ccc:	54000069 	b.ls	6cd8 <__vsnprintf+0xb28>  // b.plast
    6cd0:	390002c1 	strb	w1, [x22]
    6cd4:	910006d6 	add	x22, x22, #0x1
    6cd8:	51000400 	sub	w0, w0, #0x1
    6cdc:	17ffff2f 	b	6998 <__vsnprintf+0x7e8>
/home/zliu/ubuntu-optee-rpi3/RPi3_OPTEE_3.1/optee_os/lib/libutils/ext/snprintk.c:603
    6ce0:	b40000d6 	cbz	x22, 6cf8 <__vsnprintf+0xb48>
    6ce4:	eb16035f 	cmp	x26, x22
    6ce8:	54000089 	b.ls	6cf8 <__vsnprintf+0xb48>  // b.plast
    6cec:	39400060 	ldrb	w0, [x3]
    6cf0:	910006d6 	add	x22, x22, #0x1
    6cf4:	381ff2c0 	sturb	w0, [x22, #-1]
/home/zliu/ubuntu-optee-rpi3/RPi3_OPTEE_3.1/optee_os/lib/libutils/ext/snprintk.c:602
    6cf8:	91000463 	add	x3, x3, #0x1
    6cfc:	17ffff2a 	b	69a4 <__vsnprintf+0x7f4>
__vsnprintf():
/home/zliu/ubuntu-optee-rpi3/RPi3_OPTEE_3.1/optee_os/lib/libutils/ext/snprintk.c:143
    6d00:	f94047a0 	ldr	x0, [x29, #136]
    6d04:	f100001f 	cmp	x0, #0x0
    6d08:	f94043a0 	ldr	x0, [x29, #128]
    6d0c:	fa401804 	ccmp	x0, #0x0, #0x4, ne  // ne = any
    6d10:	540000c0 	b.eq	6d28 <__vsnprintf+0xb78>  // b.none
/home/zliu/ubuntu-optee-rpi3/RPi3_OPTEE_3.1/optee_os/lib/libutils/ext/snprintk.c:145
    6d14:	f94043a1 	ldr	x1, [x29, #128]
    6d18:	93407f60 	sxtw	x0, w27
    6d1c:	eb00003f 	cmp	x1, x0
    6d20:	54000168 	b.hi	6d4c <__vsnprintf+0xb9c>  // b.pmore
/home/zliu/ubuntu-optee-rpi3/RPi3_OPTEE_3.1/optee_os/lib/libutils/ext/snprintk.c:146
    6d24:	381ff35f 	sturb	wzr, [x26, #-1]
/home/zliu/ubuntu-optee-rpi3/RPi3_OPTEE_3.1/optee_os/lib/libutils/ext/snprintk.c:151
    6d28:	2a1b03e0 	mov	w0, w27
    6d2c:	a94453f3 	ldp	x19, x20, [sp, #64]
    6d30:	a9455bf5 	ldp	x21, x22, [sp, #80]
    6d34:	a94663f7 	ldp	x23, x24, [sp, #96]
    6d38:	a9476bf9 	ldp	x25, x26, [sp, #112]
    6d3c:	a94873fb 	ldp	x27, x28, [sp, #128]
    6d40:	a9437bfd 	ldp	x29, x30, [sp, #48]
    6d44:	9103c3ff 	add	sp, sp, #0xf0
    6d48:	d65f03c0 	ret
/home/zliu/ubuntu-optee-rpi3/RPi3_OPTEE_3.1/optee_os/lib/libutils/ext/snprintk.c:148
    6d4c:	f94047a1 	ldr	x1, [x29, #136]
    6d50:	3820683f 	strb	wzr, [x1, x0]
/home/zliu/ubuntu-optee-rpi3/RPi3_OPTEE_3.1/optee_os/lib/libutils/ext/snprintk.c:150
    6d54:	17fffff5 	b	6d28 <__vsnprintf+0xb78>

0000000000006d58 <vsnprintk>:
vsnprintk():
/home/zliu/ubuntu-optee-rpi3/RPi3_OPTEE_3.1/optee_os/lib/libutils/ext/snprintk.c:129
    6d58:	a9bb7bfd 	stp	x29, x30, [sp, #-80]!
    6d5c:	910003fd 	mov	x29, sp
    6d60:	a90153f3 	stp	x19, x20, [sp, #16]
    6d64:	aa0003f3 	mov	x19, x0
    6d68:	f90013f5 	str	x21, [sp, #32]
    6d6c:	aa0103f4 	mov	x20, x1
    6d70:	aa0203f5 	mov	x21, x2
/home/zliu/ubuntu-optee-rpi3/RPi3_OPTEE_3.1/optee_os/lib/libutils/ext/snprintk.c:130
    6d74:	aa0303e1 	mov	x1, x3
    6d78:	9100c3a0 	add	x0, x29, #0x30
    6d7c:	d2800402 	mov	x2, #0x20                  	// #32
    6d80:	97fffce3 	bl	610c <memcpy>
    6d84:	aa0003e3 	mov	x3, x0
    6d88:	aa1503e2 	mov	x2, x21
    6d8c:	aa1403e1 	mov	x1, x20
    6d90:	52800024 	mov	w4, #0x1                   	// #1
    6d94:	aa1303e0 	mov	x0, x19
    6d98:	97fffd06 	bl	61b0 <__vsnprintf>
/home/zliu/ubuntu-optee-rpi3/RPi3_OPTEE_3.1/optee_os/lib/libutils/ext/snprintk.c:131
    6d9c:	f94013f5 	ldr	x21, [sp, #32]
    6da0:	a94153f3 	ldp	x19, x20, [sp, #16]
    6da4:	a8c57bfd 	ldp	x29, x30, [sp], #80
    6da8:	d65f03c0 	ret

0000000000006dac <snprintk>:
snprintk():
/home/zliu/ubuntu-optee-rpi3/RPi3_OPTEE_3.1/optee_os/lib/libutils/ext/snprintk.c:112
    6dac:	a9b07bfd 	stp	x29, x30, [sp, #-256]!
    6db0:	910003fd 	mov	x29, sp
    6db4:	a90d93a3 	stp	x3, x4, [x29, #216]
/home/zliu/ubuntu-optee-rpi3/RPi3_OPTEE_3.1/optee_os/lib/libutils/ext/snprintk.c:116
    6db8:	910403a3 	add	x3, x29, #0x100
    6dbc:	a9030fa3 	stp	x3, x3, [x29, #48]
    6dc0:	910343a3 	add	x3, x29, #0xd0
    6dc4:	f90023a3 	str	x3, [x29, #64]
    6dc8:	128004e3 	mov	w3, #0xffffffd8            	// #-40
    6dcc:	b9004ba3 	str	w3, [x29, #72]
    6dd0:	12800fe3 	mov	w3, #0xffffff80            	// #-128
    6dd4:	b9004fa3 	str	w3, [x29, #76]
/home/zliu/ubuntu-optee-rpi3/RPi3_OPTEE_3.1/optee_os/lib/libutils/ext/snprintk.c:117
    6dd8:	910043a3 	add	x3, x29, #0x10
/home/zliu/ubuntu-optee-rpi3/RPi3_OPTEE_3.1/optee_os/lib/libutils/ext/snprintk.c:112
    6ddc:	a90e9ba5 	stp	x5, x6, [x29, #232]
/home/zliu/ubuntu-optee-rpi3/RPi3_OPTEE_3.1/optee_os/lib/libutils/ext/snprintk.c:117
    6de0:	a94317a4 	ldp	x4, x5, [x29, #48]
    6de4:	a90117a4 	stp	x4, x5, [x29, #16]
    6de8:	a94417a4 	ldp	x4, x5, [x29, #64]
/home/zliu/ubuntu-optee-rpi3/RPi3_OPTEE_3.1/optee_os/lib/libutils/ext/snprintk.c:112
    6dec:	3d8017a0 	str	q0, [x29, #80]
    6df0:	3d801ba1 	str	q1, [x29, #96]
    6df4:	3d801fa2 	str	q2, [x29, #112]
    6df8:	3d8023a3 	str	q3, [x29, #128]
    6dfc:	3d8027a4 	str	q4, [x29, #144]
    6e00:	3d802ba5 	str	q5, [x29, #160]
    6e04:	3d802fa6 	str	q6, [x29, #176]
    6e08:	3d8033a7 	str	q7, [x29, #192]
    6e0c:	f9007fa7 	str	x7, [x29, #248]
/home/zliu/ubuntu-optee-rpi3/RPi3_OPTEE_3.1/optee_os/lib/libutils/ext/snprintk.c:117
    6e10:	a90217a4 	stp	x4, x5, [x29, #32]
    6e14:	97ffffd1 	bl	6d58 <vsnprintk>
/home/zliu/ubuntu-optee-rpi3/RPi3_OPTEE_3.1/optee_os/lib/libutils/ext/snprintk.c:121
    6e18:	a8d07bfd 	ldp	x29, x30, [sp], #256
    6e1c:	d65f03c0 	ret

0000000000006e20 <buf_compare_ct>:
buf_compare_ct():
/home/zliu/ubuntu-optee-rpi3/RPi3_OPTEE_3.1/optee_os/lib/libutils/ext/buf_compare_ct.c:13
    6e20:	d2800004 	mov	x4, #0x0                   	// #0
/home/zliu/ubuntu-optee-rpi3/RPi3_OPTEE_3.1/optee_os/lib/libutils/ext/buf_compare_ct.c:9
    6e24:	52800003 	mov	w3, #0x0                   	// #0
/home/zliu/ubuntu-optee-rpi3/RPi3_OPTEE_3.1/optee_os/lib/libutils/ext/buf_compare_ct.c:13
    6e28:	eb04005f 	cmp	x2, x4
    6e2c:	540000c1 	b.ne	6e44 <buf_compare_ct+0x24>  // b.any
/home/zliu/ubuntu-optee-rpi3/RPi3_OPTEE_3.1/optee_os/lib/libutils/ext/buf_compare_ct.c:19
    6e30:	2a831063 	orr	w3, w3, w3, asr #4
/home/zliu/ubuntu-optee-rpi3/RPi3_OPTEE_3.1/optee_os/lib/libutils/ext/buf_compare_ct.c:20
    6e34:	2a830863 	orr	w3, w3, w3, asr #2
/home/zliu/ubuntu-optee-rpi3/RPi3_OPTEE_3.1/optee_os/lib/libutils/ext/buf_compare_ct.c:21
    6e38:	2a830463 	orr	w3, w3, w3, asr #1
/home/zliu/ubuntu-optee-rpi3/RPi3_OPTEE_3.1/optee_os/lib/libutils/ext/buf_compare_ct.c:25
    6e3c:	12000060 	and	w0, w3, #0x1
    6e40:	d65f03c0 	ret
/home/zliu/ubuntu-optee-rpi3/RPi3_OPTEE_3.1/optee_os/lib/libutils/ext/buf_compare_ct.c:14
    6e44:	38646805 	ldrb	w5, [x0, x4]
    6e48:	38646826 	ldrb	w6, [x1, x4]
    6e4c:	91000484 	add	x4, x4, #0x1
    6e50:	4a0600a5 	eor	w5, w5, w6
    6e54:	12001ca5 	and	w5, w5, #0xff
    6e58:	2a050063 	orr	w3, w3, w5
    6e5c:	17fffff3 	b	6e28 <buf_compare_ct+0x8>

0000000000006e60 <trace_set_level>:
trace_set_level():
/home/zliu/ubuntu-optee-rpi3/RPi3_OPTEE_3.1/optee_os/lib/libutils/ext/trace.c:44
    6e60:	51000401 	sub	w1, w0, #0x1
    6e64:	71000c3f 	cmp	w1, #0x3
    6e68:	d0000021 	adrp	x1, c000 <__func__.3927+0x294>
    6e6c:	54000088 	b.hi	6e7c <trace_set_level+0x1c>  // b.pmore
/home/zliu/ubuntu-optee-rpi3/RPi3_OPTEE_3.1/optee_os/lib/libutils/ext/trace.c:47
    6e70:	f9448021 	ldr	x1, [x1, #2304]
    6e74:	b9000020 	str	w0, [x1]
    6e78:	d65f03c0 	ret
    6e7c:	52800080 	mov	w0, #0x4                   	// #4
    6e80:	17fffffc 	b	6e70 <trace_set_level+0x10>

0000000000006e84 <trace_get_level>:
trace_get_level():
/home/zliu/ubuntu-optee-rpi3/RPi3_OPTEE_3.1/optee_os/lib/libutils/ext/trace.c:53
    6e84:	d0000020 	adrp	x0, c000 <__func__.3927+0x294>
    6e88:	f9448000 	ldr	x0, [x0, #2304]
    6e8c:	b9400000 	ldr	w0, [x0]
    6e90:	d65f03c0 	ret

0000000000006e94 <trace_printf>:
trace_printf():
/home/zliu/ubuntu-optee-rpi3/RPi3_OPTEE_3.1/optee_os/lib/libutils/ext/trace.c:93
    6e94:	d108c3ff 	sub	sp, sp, #0x230
    6e98:	a9007bfd 	stp	x29, x30, [sp]
    6e9c:	910003fd 	mov	x29, sp
    6ea0:	f9010fa5 	str	x5, [x29, #536]
    6ea4:	910403a5 	add	x5, x29, #0x100
    6ea8:	a90363f7 	stp	x23, x24, [sp, #48]
/home/zliu/ubuntu-optee-rpi3/RPi3_OPTEE_3.1/optee_os/lib/libutils/ext/trace.c:100
    6eac:	72001c78 	ands	w24, w3, #0xff
/home/zliu/ubuntu-optee-rpi3/RPi3_OPTEE_3.1/optee_os/lib/libutils/ext/trace.c:93
    6eb0:	a90153f3 	stp	x19, x20, [sp, #16]
    6eb4:	a9025bf5 	stp	x21, x22, [sp, #32]
    6eb8:	a9046bf9 	stp	x25, x26, [sp, #64]
    6ebc:	f90113a6 	str	x6, [x29, #544]
    6ec0:	f90117a7 	str	x7, [x29, #552]
    6ec4:	3d8024a0 	str	q0, [x5, #144]
    6ec8:	3d8028a1 	str	q1, [x5, #160]
    6ecc:	3d802ca2 	str	q2, [x5, #176]
    6ed0:	3d8030a3 	str	q3, [x5, #192]
    6ed4:	3d8034a4 	str	q4, [x5, #208]
    6ed8:	3d8038a5 	str	q5, [x5, #224]
    6edc:	3d803ca6 	str	q6, [x5, #240]
    6ee0:	910803a5 	add	x5, x29, #0x200
    6ee4:	3d8000a7 	str	q7, [x5]
/home/zliu/ubuntu-optee-rpi3/RPi3_OPTEE_3.1/optee_os/lib/libutils/ext/trace.c:100
    6ee8:	54000d60 	b.eq	7094 <trace_printf+0x200>  // b.none
/home/zliu/ubuntu-optee-rpi3/RPi3_OPTEE_3.1/optee_os/lib/libutils/ext/trace.c:100 (discriminator 1)
    6eec:	d0000025 	adrp	x5, c000 <__func__.3927+0x294>
    6ef0:	f94480a5 	ldr	x5, [x5, #2304]
    6ef4:	b94000a3 	ldr	w3, [x5]
    6ef8:	6b02007f 	cmp	w3, w2
    6efc:	54000beb 	b.lt	7078 <trace_printf+0x1e4>  // b.tstop
trace_level_to_string():
/home/zliu/ubuntu-optee-rpi3/RPi3_OPTEE_3.1/optee_os/lib/libutils/ext/trace.c:70
    6f00:	51000443 	sub	w3, w2, #0x1
    6f04:	71000c7f 	cmp	w3, #0x3
/home/zliu/ubuntu-optee-rpi3/RPi3_OPTEE_3.1/optee_os/lib/libutils/ext/trace.c:73
    6f08:	90000023 	adrp	x3, a000 <__mpa_abs_cmp+0x5c>
/home/zliu/ubuntu-optee-rpi3/RPi3_OPTEE_3.1/optee_os/lib/libutils/ext/trace.c:70
    6f0c:	1a9f9045 	csel	w5, w2, wzr, ls  // ls = plast
/home/zliu/ubuntu-optee-rpi3/RPi3_OPTEE_3.1/optee_os/lib/libutils/ext/trace.c:73
    6f10:	913d0063 	add	x3, x3, #0xf40
    6f14:	3865c863 	ldrb	w3, [x3, w5, sxtw]
trace_printf():
/home/zliu/ubuntu-optee-rpi3/RPi3_OPTEE_3.1/optee_os/lib/libutils/ext/trace.c:104
    6f18:	910243b4 	add	x20, x29, #0x90
    6f1c:	2a0203fa 	mov	w26, w2
    6f20:	2a0103f9 	mov	w25, w1
    6f24:	aa0003f6 	mov	x22, x0
    6f28:	d0000022 	adrp	x2, c000 <__func__.3927+0x294>
    6f2c:	aa0403f7 	mov	x23, x4
    6f30:	91178442 	add	x2, x2, #0x5e1
    6f34:	d2802001 	mov	x1, #0x100                 	// #256
    6f38:	aa1403e0 	mov	x0, x20
    6f3c:	97ffff9c 	bl	6dac <snprintk>
/home/zliu/ubuntu-optee-rpi3/RPi3_OPTEE_3.1/optee_os/lib/libutils/ext/trace.c:106
    6f40:	37f809c0 	tbnz	w0, #31, 7078 <trace_printf+0x1e4>
/home/zliu/ubuntu-optee-rpi3/RPi3_OPTEE_3.1/optee_os/lib/libutils/ext/trace.c:111
    6f44:	d0000025 	adrp	x5, c000 <__func__.3927+0x294>
/home/zliu/ubuntu-optee-rpi3/RPi3_OPTEE_3.1/optee_os/lib/libutils/ext/trace.c:108
    6f48:	93407c13 	sxtw	x19, w0
/home/zliu/ubuntu-optee-rpi3/RPi3_OPTEE_3.1/optee_os/lib/libutils/ext/trace.c:111
    6f4c:	d0000022 	adrp	x2, c000 <__func__.3927+0x294>
    6f50:	d2802001 	mov	x1, #0x100                 	// #256
    6f54:	f94488a3 	ldr	x3, [x5, #2320]
    6f58:	91179442 	add	x2, x2, #0x5e5
    6f5c:	cb130021 	sub	x1, x1, x19
    6f60:	8b130280 	add	x0, x20, x19
    6f64:	97ffff92 	bl	6dac <snprintk>
/home/zliu/ubuntu-optee-rpi3/RPi3_OPTEE_3.1/optee_os/lib/libutils/ext/trace.c:113
    6f68:	37f80880 	tbnz	w0, #31, 7078 <trace_printf+0x1e4>
/home/zliu/ubuntu-optee-rpi3/RPi3_OPTEE_3.1/optee_os/lib/libutils/ext/trace.c:115
    6f6c:	8b20c273 	add	x19, x19, w0, sxtw
/home/zliu/ubuntu-optee-rpi3/RPi3_OPTEE_3.1/optee_os/lib/libutils/ext/trace.c:118
    6f70:	340000b8 	cbz	w24, 6f84 <trace_printf+0xf0>
/home/zliu/ubuntu-optee-rpi3/RPi3_OPTEE_3.1/optee_os/lib/libutils/ext/trace.c:118 (discriminator 1)
    6f74:	52800340 	mov	w0, #0x1a                  	// #26
/home/zliu/ubuntu-optee-rpi3/RPi3_OPTEE_3.1/optee_os/lib/libutils/ext/trace.c:119 (discriminator 1)
    6f78:	12800004 	mov	w4, #0xffffffff            	// #-1
/home/zliu/ubuntu-optee-rpi3/RPi3_OPTEE_3.1/optee_os/lib/libutils/ext/trace.c:118 (discriminator 1)
    6f7c:	1ada2401 	lsr	w1, w0, w26
    6f80:	36000061 	tbz	w1, #0, 6f8c <trace_printf+0xf8>
/home/zliu/ubuntu-optee-rpi3/RPi3_OPTEE_3.1/optee_os/lib/libutils/ext/trace.c:121
    6f84:	97fff7b5 	bl	4e58 <trace_ext_get_thread_id>
    6f88:	2a0003e4 	mov	w4, w0
/home/zliu/ubuntu-optee-rpi3/RPi3_OPTEE_3.1/optee_os/lib/libutils/ext/trace.c:123
    6f8c:	d2802001 	mov	x1, #0x100                 	// #256
    6f90:	8b130280 	add	x0, x20, x19
    6f94:	cb130021 	sub	x1, x1, x19
print_thread_id():
/home/zliu/ubuntu-optee-rpi3/RPi3_OPTEE_3.1/optee_os/lib/libutils/ext/trace.c:84
    6f98:	37f80824 	tbnz	w4, #31, 709c <trace_printf+0x208>
/home/zliu/ubuntu-optee-rpi3/RPi3_OPTEE_3.1/optee_os/lib/libutils/ext/trace.c:85
    6f9c:	d0000022 	adrp	x2, c000 <__func__.3927+0x294>
    6fa0:	52800023 	mov	w3, #0x1                   	// #1
    6fa4:	9117a442 	add	x2, x2, #0x5e9
    6fa8:	97ffff81 	bl	6dac <snprintk>
trace_printf():
/home/zliu/ubuntu-optee-rpi3/RPi3_OPTEE_3.1/optee_os/lib/libutils/ext/trace.c:125
    6fac:	37f80660 	tbnz	w0, #31, 7078 <trace_printf+0x1e4>
/home/zliu/ubuntu-optee-rpi3/RPi3_OPTEE_3.1/optee_os/lib/libutils/ext/trace.c:127
    6fb0:	8b20c273 	add	x19, x19, w0, sxtw
/home/zliu/ubuntu-optee-rpi3/RPi3_OPTEE_3.1/optee_os/lib/libutils/ext/trace.c:130
    6fb4:	34000098 	cbz	w24, 6fc4 <trace_printf+0x130>
/home/zliu/ubuntu-optee-rpi3/RPi3_OPTEE_3.1/optee_os/lib/libutils/ext/trace.c:130 (discriminator 1)
    6fb8:	52800342 	mov	w2, #0x1a                  	// #26
    6fbc:	1ada2455 	lsr	w21, w2, w26
    6fc0:	36000195 	tbz	w21, #0, 6ff0 <trace_printf+0x15c>
/home/zliu/ubuntu-optee-rpi3/RPi3_OPTEE_3.1/optee_os/lib/libutils/ext/trace.c:133
    6fc4:	b4000176 	cbz	x22, 6ff0 <trace_printf+0x15c>
/home/zliu/ubuntu-optee-rpi3/RPi3_OPTEE_3.1/optee_os/lib/libutils/ext/trace.c:134
    6fc8:	d0000022 	adrp	x2, c000 <__func__.3927+0x294>
    6fcc:	d2802001 	mov	x1, #0x100                 	// #256
    6fd0:	2a1903e4 	mov	w4, w25
    6fd4:	aa1603e3 	mov	x3, x22
    6fd8:	9117d042 	add	x2, x2, #0x5f4
    6fdc:	cb130021 	sub	x1, x1, x19
    6fe0:	8b130280 	add	x0, x20, x19
    6fe4:	97ffff72 	bl	6dac <snprintk>
/home/zliu/ubuntu-optee-rpi3/RPi3_OPTEE_3.1/optee_os/lib/libutils/ext/trace.c:136
    6fe8:	37f80480 	tbnz	w0, #31, 7078 <trace_printf+0x1e4>
/home/zliu/ubuntu-optee-rpi3/RPi3_OPTEE_3.1/optee_os/lib/libutils/ext/trace.c:138
    6fec:	8b20c273 	add	x19, x19, w0, sxtw
/home/zliu/ubuntu-optee-rpi3/RPi3_OPTEE_3.1/optee_os/lib/libutils/ext/trace.c:141
    6ff0:	9108c3a0 	add	x0, x29, #0x230
    6ff4:	a90703a0 	stp	x0, x0, [x29, #112]
    6ff8:	910843a0 	add	x0, x29, #0x210
    6ffc:	f90043a0 	str	x0, [x29, #128]
    7000:	128002e0 	mov	w0, #0xffffffe8            	// #-24
    7004:	b9008ba0 	str	w0, [x29, #136]
    7008:	12800fe0 	mov	w0, #0xffffff80            	// #-128
    700c:	b9008fa0 	str	w0, [x29, #140]
/home/zliu/ubuntu-optee-rpi3/RPi3_OPTEE_3.1/optee_os/lib/libutils/ext/trace.c:142
    7010:	a94707a0 	ldp	x0, x1, [x29, #112]
    7014:	a90507a0 	stp	x0, x1, [x29, #80]
    7018:	a94807a0 	ldp	x0, x1, [x29, #128]
    701c:	a90607a0 	stp	x0, x1, [x29, #96]
    7020:	d2802001 	mov	x1, #0x100                 	// #256
    7024:	cb130021 	sub	x1, x1, x19
    7028:	8b130280 	add	x0, x20, x19
    702c:	910143a3 	add	x3, x29, #0x50
    7030:	aa1703e2 	mov	x2, x23
    7034:	97ffff49 	bl	6d58 <vsnprintk>
/home/zliu/ubuntu-optee-rpi3/RPi3_OPTEE_3.1/optee_os/lib/libutils/ext/trace.c:145
    7038:	7100001f 	cmp	w0, #0x0
    703c:	8b20c261 	add	x1, x19, w0, sxtw
    7040:	9a93c033 	csel	x19, x1, x19, gt
    7044:	d2801fc0 	mov	x0, #0xfe                  	// #254
    7048:	f103fa7f 	cmp	x19, #0xfe
    704c:	9a809273 	csel	x19, x19, x0, ls  // ls = plast
/home/zliu/ubuntu-optee-rpi3/RPi3_OPTEE_3.1/optee_os/lib/libutils/ext/trace.c:150
    7050:	52800140 	mov	w0, #0xa                   	// #10
    7054:	38336a80 	strb	w0, [x20, x19]
/home/zliu/ubuntu-optee-rpi3/RPi3_OPTEE_3.1/optee_os/lib/libutils/ext/trace.c:151
    7058:	b4000093 	cbz	x19, 7068 <trace_printf+0x1d4>
/home/zliu/ubuntu-optee-rpi3/RPi3_OPTEE_3.1/optee_os/lib/libutils/ext/trace.c:151 (discriminator 1)
    705c:	38736a80 	ldrb	w0, [x20, x19]
    7060:	7100281f 	cmp	w0, #0xa
    7064:	540002a0 	b.eq	70b8 <trace_printf+0x224>  // b.none
/home/zliu/ubuntu-optee-rpi3/RPi3_OPTEE_3.1/optee_os/lib/libutils/ext/trace.c:154
    7068:	91024ba0 	add	x0, x29, #0x92
    706c:	3833681f 	strb	wzr, [x0, x19]
/home/zliu/ubuntu-optee-rpi3/RPi3_OPTEE_3.1/optee_os/lib/libutils/ext/trace.c:156
    7070:	aa1403e0 	mov	x0, x20
    7074:	97fff76f 	bl	4e30 <trace_ext_puts>
/home/zliu/ubuntu-optee-rpi3/RPi3_OPTEE_3.1/optee_os/lib/libutils/ext/trace.c:157
    7078:	a94153f3 	ldp	x19, x20, [sp, #16]
    707c:	a9425bf5 	ldp	x21, x22, [sp, #32]
    7080:	a94363f7 	ldp	x23, x24, [sp, #48]
    7084:	a9446bf9 	ldp	x25, x26, [sp, #64]
    7088:	a9407bfd 	ldp	x29, x30, [sp]
    708c:	9108c3ff 	add	sp, sp, #0x230
    7090:	d65f03c0 	ret
trace_level_to_string():
/home/zliu/ubuntu-optee-rpi3/RPi3_OPTEE_3.1/optee_os/lib/libutils/ext/trace.c:68
    7094:	528009a3 	mov	w3, #0x4d                  	// #77
    7098:	17ffffa0 	b	6f18 <trace_printf+0x84>
print_thread_id():
/home/zliu/ubuntu-optee-rpi3/RPi3_OPTEE_3.1/optee_os/lib/libutils/ext/trace.c:87
    709c:	b0000024 	adrp	x4, c000 <__func__.3927+0x294>
    70a0:	52800023 	mov	w3, #0x1                   	// #1
    70a4:	9101d884 	add	x4, x4, #0x76
    70a8:	b0000022 	adrp	x2, c000 <__func__.3927+0x294>
    70ac:	9117bc42 	add	x2, x2, #0x5ef
    70b0:	97ffff3f 	bl	6dac <snprintk>
    70b4:	17ffffbe 	b	6fac <trace_printf+0x118>
trace_printf():
/home/zliu/ubuntu-optee-rpi3/RPi3_OPTEE_3.1/optee_os/lib/libutils/ext/trace.c:152
    70b8:	d1000673 	sub	x19, x19, #0x1
    70bc:	17ffffe7 	b	7058 <trace_printf+0x1c4>

00000000000070c0 <dhex_dump>:
dhex_dump():
/home/zliu/ubuntu-optee-rpi3/RPi3_OPTEE_3.1/optee_os/lib/libutils/ext/trace.c:268
    70c0:	d65f03c0 	ret

00000000000070c4 <memchr>:
memchr():
/home/zliu/ubuntu-optee-rpi3/RPi3_OPTEE_3.1/optee_os/lib/libutils/isoc/newlib/memchr.c:109
    70c4:	12001c21 	and	w1, w1, #0xff
    70c8:	8b020002 	add	x2, x0, x2
/home/zliu/ubuntu-optee-rpi3/RPi3_OPTEE_3.1/optee_os/lib/libutils/isoc/newlib/memchr.c:153
    70cc:	eb02001f 	cmp	x0, x2
    70d0:	54000061 	b.ne	70dc <memchr+0x18>  // b.any
/home/zliu/ubuntu-optee-rpi3/RPi3_OPTEE_3.1/optee_os/lib/libutils/isoc/newlib/memchr.c:159
    70d4:	d2800000 	mov	x0, #0x0                   	// #0
/home/zliu/ubuntu-optee-rpi3/RPi3_OPTEE_3.1/optee_os/lib/libutils/isoc/newlib/memchr.c:160
    70d8:	d65f03c0 	ret
/home/zliu/ubuntu-optee-rpi3/RPi3_OPTEE_3.1/optee_os/lib/libutils/isoc/newlib/memchr.c:154
    70dc:	39400003 	ldrb	w3, [x0]
    70e0:	6b01007f 	cmp	w3, w1
    70e4:	54ffffa0 	b.eq	70d8 <memchr+0x14>  // b.none
/home/zliu/ubuntu-optee-rpi3/RPi3_OPTEE_3.1/optee_os/lib/libutils/isoc/newlib/memchr.c:156
    70e8:	91000400 	add	x0, x0, #0x1
    70ec:	17fffff8 	b	70cc <memchr+0x8>

00000000000070f0 <__mpa_set_unused_digits_to_zero>:
__mpa_set_unused_digits_to_zero():
/home/zliu/ubuntu-optee-rpi3/RPi3_OPTEE_3.1/optee_os/lib/libmpa/mpa_misc.c:60
    70f0:	b9400401 	ldr	w1, [x0, #4]
/home/zliu/ubuntu-optee-rpi3/RPi3_OPTEE_3.1/optee_os/lib/libmpa/mpa_misc.c:61
    70f4:	b8408402 	ldr	w2, [x0], #8
/home/zliu/ubuntu-optee-rpi3/RPi3_OPTEE_3.1/optee_os/lib/libmpa/mpa_misc.c:60
    70f8:	7100003f 	cmp	w1, #0x0
    70fc:	5a81a423 	cneg	w3, w1, lt  // lt = tstop
/home/zliu/ubuntu-optee-rpi3/RPi3_OPTEE_3.1/optee_os/lib/libmpa/mpa_misc.c:61
    7100:	52800001 	mov	w1, #0x0                   	// #0
    7104:	4b030042 	sub	w2, w2, w3
    7108:	8b23c800 	add	x0, x0, w3, sxtw #2
    710c:	d37e7442 	ubfiz	x2, x2, #2, #30
    7110:	17fffc1a 	b	6178 <memset>

0000000000007114 <mpa_wipe>:
mpa_wipe():
/home/zliu/ubuntu-optee-rpi3/RPi3_OPTEE_3.1/optee_os/lib/libmpa/mpa_misc.c:78
    7114:	a9be7bfd 	stp	x29, x30, [sp, #-32]!
/home/zliu/ubuntu-optee-rpi3/RPi3_OPTEE_3.1/optee_os/lib/libmpa/mpa_misc.c:79
    7118:	52800001 	mov	w1, #0x0                   	// #0
/home/zliu/ubuntu-optee-rpi3/RPi3_OPTEE_3.1/optee_os/lib/libmpa/mpa_misc.c:78
    711c:	910003fd 	mov	x29, sp
    7120:	f9000bf3 	str	x19, [sp, #16]
    7124:	aa0003f3 	mov	x19, x0
/home/zliu/ubuntu-optee-rpi3/RPi3_OPTEE_3.1/optee_os/lib/libmpa/mpa_misc.c:79
    7128:	b8408402 	ldr	w2, [x0], #8
    712c:	d37e7442 	ubfiz	x2, x2, #2, #30
    7130:	97fffc12 	bl	6178 <memset>
/home/zliu/ubuntu-optee-rpi3/RPi3_OPTEE_3.1/optee_os/lib/libmpa/mpa_misc.c:80
    7134:	b900067f 	str	wzr, [x19, #4]
/home/zliu/ubuntu-optee-rpi3/RPi3_OPTEE_3.1/optee_os/lib/libmpa/mpa_misc.c:81
    7138:	f9400bf3 	ldr	x19, [sp, #16]
    713c:	a8c27bfd 	ldp	x29, x30, [sp], #32
    7140:	d65f03c0 	ret

0000000000007144 <mpa_copy>:
mpa_copy():
/home/zliu/ubuntu-optee-rpi3/RPi3_OPTEE_3.1/optee_os/lib/libmpa/mpa_misc.c:94
    7144:	eb01001f 	cmp	x0, x1
    7148:	54000260 	b.eq	7194 <mpa_copy+0x50>  // b.none
/home/zliu/ubuntu-optee-rpi3/RPi3_OPTEE_3.1/optee_os/lib/libmpa/mpa_misc.c:93
    714c:	a9be7bfd 	stp	x29, x30, [sp, #-32]!
    7150:	910003fd 	mov	x29, sp
    7154:	a90153f3 	stp	x19, x20, [sp, #16]
    7158:	aa0103f3 	mov	x19, x1
    715c:	aa0003f4 	mov	x20, x0
/home/zliu/ubuntu-optee-rpi3/RPi3_OPTEE_3.1/optee_os/lib/libmpa/mpa_misc.c:97
    7160:	91002021 	add	x1, x1, #0x8
    7164:	91002000 	add	x0, x0, #0x8
    7168:	b9400662 	ldr	w2, [x19, #4]
    716c:	7100005f 	cmp	w2, #0x0
    7170:	5a82a442 	cneg	w2, w2, lt  // lt = tstop
    7174:	531e7442 	lsl	w2, w2, #2
    7178:	93407c42 	sxtw	x2, w2
    717c:	97fffbe4 	bl	610c <memcpy>
/home/zliu/ubuntu-optee-rpi3/RPi3_OPTEE_3.1/optee_os/lib/libmpa/mpa_misc.c:98
    7180:	b9400660 	ldr	w0, [x19, #4]
    7184:	b9000680 	str	w0, [x20, #4]
/home/zliu/ubuntu-optee-rpi3/RPi3_OPTEE_3.1/optee_os/lib/libmpa/mpa_misc.c:99
    7188:	a94153f3 	ldp	x19, x20, [sp, #16]
    718c:	a8c27bfd 	ldp	x29, x30, [sp], #32
    7190:	d65f03c0 	ret
    7194:	d65f03c0 	ret

0000000000007198 <mpa_abs>:
mpa_abs():
/home/zliu/ubuntu-optee-rpi3/RPi3_OPTEE_3.1/optee_os/lib/libmpa/mpa_misc.c:107
    7198:	a9be7bfd 	stp	x29, x30, [sp, #-32]!
    719c:	910003fd 	mov	x29, sp
    71a0:	f9000bf3 	str	x19, [sp, #16]
    71a4:	aa0003f3 	mov	x19, x0
/home/zliu/ubuntu-optee-rpi3/RPi3_OPTEE_3.1/optee_os/lib/libmpa/mpa_misc.c:108
    71a8:	97ffffe7 	bl	7144 <mpa_copy>
/home/zliu/ubuntu-optee-rpi3/RPi3_OPTEE_3.1/optee_os/lib/libmpa/mpa_misc.c:109
    71ac:	b9400660 	ldr	w0, [x19, #4]
    71b0:	36f80060 	tbz	w0, #31, 71bc <mpa_abs+0x24>
/home/zliu/ubuntu-optee-rpi3/RPi3_OPTEE_3.1/optee_os/lib/libmpa/mpa_misc.c:109 (discriminator 1)
    71b4:	4b0003e0 	neg	w0, w0
    71b8:	b9000660 	str	w0, [x19, #4]
/home/zliu/ubuntu-optee-rpi3/RPi3_OPTEE_3.1/optee_os/lib/libmpa/mpa_misc.c:110
    71bc:	f9400bf3 	ldr	x19, [sp, #16]
    71c0:	a8c27bfd 	ldp	x29, x30, [sp], #32
    71c4:	d65f03c0 	ret

00000000000071c8 <mpa_highest_bit_index>:
mpa_highest_bit_index():
/home/zliu/ubuntu-optee-rpi3/RPi3_OPTEE_3.1/optee_os/lib/libmpa/mpa_misc.c:124
    71c8:	b9400401 	ldr	w1, [x0, #4]
    71cc:	7100003f 	cmp	w1, #0x0
    71d0:	540001a0 	b.eq	7204 <mpa_highest_bit_index+0x3c>  // b.none
/home/zliu/ubuntu-optee-rpi3/RPi3_OPTEE_3.1/optee_os/lib/libmpa/mpa_misc.c:127
    71d4:	5a81a421 	cneg	w1, w1, lt  // lt = tstop
    71d8:	51000421 	sub	w1, w1, #0x1
    71dc:	8b21c800 	add	x0, x0, w1, sxtw #2
    71e0:	b9400802 	ldr	w2, [x0, #8]
/home/zliu/ubuntu-optee-rpi3/RPi3_OPTEE_3.1/optee_os/lib/libmpa/mpa_misc.c:129
    71e4:	52800000 	mov	w0, #0x0                   	// #0
/home/zliu/ubuntu-optee-rpi3/RPi3_OPTEE_3.1/optee_os/lib/libmpa/mpa_misc.c:130
    71e8:	53017c42 	lsr	w2, w2, #1
/home/zliu/ubuntu-optee-rpi3/RPi3_OPTEE_3.1/optee_os/lib/libmpa/mpa_misc.c:131
    71ec:	34000082 	cbz	w2, 71fc <mpa_highest_bit_index+0x34>
/home/zliu/ubuntu-optee-rpi3/RPi3_OPTEE_3.1/optee_os/lib/libmpa/mpa_misc.c:129 (discriminator 2)
    71f0:	11000400 	add	w0, w0, #0x1
    71f4:	7100801f 	cmp	w0, #0x20
    71f8:	54ffff81 	b.ne	71e8 <mpa_highest_bit_index+0x20>  // b.any
/home/zliu/ubuntu-optee-rpi3/RPi3_OPTEE_3.1/optee_os/lib/libmpa/mpa_misc.c:134
    71fc:	0b011400 	add	w0, w0, w1, lsl #5
    7200:	d65f03c0 	ret
/home/zliu/ubuntu-optee-rpi3/RPi3_OPTEE_3.1/optee_os/lib/libmpa/mpa_misc.c:125
    7204:	12800000 	mov	w0, #0xffffffff            	// #-1
/home/zliu/ubuntu-optee-rpi3/RPi3_OPTEE_3.1/optee_os/lib/libmpa/mpa_misc.c:135
    7208:	d65f03c0 	ret

000000000000720c <mpa_get_bit>:
mpa_get_bit():
/home/zliu/ubuntu-optee-rpi3/RPi3_OPTEE_3.1/optee_os/lib/libmpa/mpa_misc.c:154
    720c:	b9400402 	ldr	w2, [x0, #4]
/home/zliu/ubuntu-optee-rpi3/RPi3_OPTEE_3.1/optee_os/lib/libmpa/mpa_misc.c:151
    7210:	53057c23 	lsr	w3, w1, #5
/home/zliu/ubuntu-optee-rpi3/RPi3_OPTEE_3.1/optee_os/lib/libmpa/mpa_misc.c:154
    7214:	7100005f 	cmp	w2, #0x0
    7218:	5a82a442 	cneg	w2, w2, lt  // lt = tstop
    721c:	6b02007f 	cmp	w3, w2
    7220:	54000148 	b.hi	7248 <mpa_get_bit+0x3c>  // b.pmore
/home/zliu/ubuntu-optee-rpi3/RPi3_OPTEE_3.1/optee_os/lib/libmpa/mpa_misc.c:157
    7224:	d37e6863 	ubfiz	x3, x3, #2, #27
/home/zliu/ubuntu-optee-rpi3/RPi3_OPTEE_3.1/optee_os/lib/libmpa/mpa_misc.c:156
    7228:	12001021 	and	w1, w1, #0x1f
/home/zliu/ubuntu-optee-rpi3/RPi3_OPTEE_3.1/optee_os/lib/libmpa/mpa_misc.c:157
    722c:	8b030000 	add	x0, x0, x3
/home/zliu/ubuntu-optee-rpi3/RPi3_OPTEE_3.1/optee_os/lib/libmpa/mpa_misc.c:156
    7230:	d2800022 	mov	x2, #0x1                   	// #1
    7234:	9ac12041 	lsl	x1, x2, x1
/home/zliu/ubuntu-optee-rpi3/RPi3_OPTEE_3.1/optee_os/lib/libmpa/mpa_misc.c:157
    7238:	b9400800 	ldr	w0, [x0, #8]
    723c:	ea00003f 	tst	x1, x0
    7240:	1a9f07e0 	cset	w0, ne  // ne = any
    7244:	d65f03c0 	ret
    7248:	52800000 	mov	w0, #0x0                   	// #0
/home/zliu/ubuntu-optee-rpi3/RPi3_OPTEE_3.1/optee_os/lib/libmpa/mpa_misc.c:158
    724c:	d65f03c0 	ret

0000000000007250 <mpa_can_hold>:
mpa_can_hold():
/home/zliu/ubuntu-optee-rpi3/RPi3_OPTEE_3.1/optee_os/lib/libmpa/mpa_misc.c:168
    7250:	b9400421 	ldr	w1, [x1, #4]
    7254:	b9400000 	ldr	w0, [x0]
    7258:	7100003f 	cmp	w1, #0x0
    725c:	5a81a421 	cneg	w1, w1, lt  // lt = tstop
    7260:	6b01001f 	cmp	w0, w1
/home/zliu/ubuntu-optee-rpi3/RPi3_OPTEE_3.1/optee_os/lib/libmpa/mpa_misc.c:169
    7264:	1a9f37e0 	cset	w0, cs  // cs = hs, nlast
    7268:	d65f03c0 	ret

000000000000726c <mpa_parity>:
mpa_parity():
/home/zliu/ubuntu-optee-rpi3/RPi3_OPTEE_3.1/optee_os/lib/libmpa/mpa_misc.c:179
    726c:	b9400800 	ldr	w0, [x0, #8]
/home/zliu/ubuntu-optee-rpi3/RPi3_OPTEE_3.1/optee_os/lib/libmpa/mpa_misc.c:180
    7270:	12000000 	and	w0, w0, #0x1
    7274:	d65f03c0 	ret

0000000000007278 <mpa_constant_one>:
mpa_constant_one():
/home/zliu/ubuntu-optee-rpi3/RPi3_OPTEE_3.1/optee_os/lib/libmpa/mpa_misc.c:190
    7278:	f0000000 	adrp	x0, a000 <__mpa_abs_cmp+0x5c>
    727c:	913d2000 	add	x0, x0, #0xf48
    7280:	d65f03c0 	ret

0000000000007284 <__mpa_montgomery_mul_add>:
__mpa_montgomery_mul_add():
/home/zliu/ubuntu-optee-rpi3/RPi3_OPTEE_3.1/optee_os/lib/libmpa/mpa_montgomery.c:57
    7284:	34000222 	cbz	w2, 72c8 <__mpa_montgomery_mul_add+0x44>
/home/zliu/ubuntu-optee-rpi3/RPi3_OPTEE_3.1/optee_os/lib/libmpa/mpa_montgomery.c:59
    7288:	91002007 	add	x7, x0, #0x8
    728c:	d2800025 	mov	x5, #0x1                   	// #1
/home/zliu/ubuntu-optee-rpi3/RPi3_OPTEE_3.1/optee_os/lib/libmpa/mpa_montgomery.c:60
    7290:	aa0703e3 	mov	x3, x7
/home/zliu/ubuntu-optee-rpi3/RPi3_OPTEE_3.1/optee_os/lib/libmpa/mpa_montgomery.c:61
    7294:	52800004 	mov	w4, #0x0                   	// #0
/home/zliu/ubuntu-optee-rpi3/RPi3_OPTEE_3.1/optee_os/lib/libmpa/mpa_montgomery.c:62
    7298:	b9400428 	ldr	w8, [x1, #4]
    729c:	510004a6 	sub	w6, w5, #0x1
    72a0:	910004a5 	add	x5, x5, #0x1
    72a4:	6b0800df 	cmp	w6, w8
    72a8:	5400012b 	b.lt	72cc <__mpa_montgomery_mul_add+0x48>  // b.tstop
/home/zliu/ubuntu-optee-rpi3/RPi3_OPTEE_3.1/optee_os/lib/libmpa/mpa_montgomery.c:69
    72ac:	350001e4 	cbnz	w4, 72e8 <__mpa_montgomery_mul_add+0x64>
/home/zliu/ubuntu-optee-rpi3/RPi3_OPTEE_3.1/optee_os/lib/libmpa/mpa_montgomery.c:74
    72b0:	cb070063 	sub	x3, x3, x7
/home/zliu/ubuntu-optee-rpi3/RPi3_OPTEE_3.1/optee_os/lib/libmpa/mpa_montgomery.c:75
    72b4:	b9400401 	ldr	w1, [x0, #4]
/home/zliu/ubuntu-optee-rpi3/RPi3_OPTEE_3.1/optee_os/lib/libmpa/mpa_montgomery.c:74
    72b8:	9342fc63 	asr	x3, x3, #2
/home/zliu/ubuntu-optee-rpi3/RPi3_OPTEE_3.1/optee_os/lib/libmpa/mpa_montgomery.c:75
    72bc:	6b01007f 	cmp	w3, w1
    72c0:	5400004d 	b.le	72c8 <__mpa_montgomery_mul_add+0x44>
/home/zliu/ubuntu-optee-rpi3/RPi3_OPTEE_3.1/optee_os/lib/libmpa/mpa_montgomery.c:76
    72c4:	b9000403 	str	w3, [x0, #4]
    72c8:	d65f03c0 	ret
/home/zliu/ubuntu-optee-rpi3/RPi3_OPTEE_3.1/optee_os/lib/libmpa/mpa_montgomery.c:63
    72cc:	b9400066 	ldr	w6, [x3]
    72d0:	8b2440c4 	add	x4, x6, w4, uxtw
    72d4:	b8657826 	ldr	w6, [x1, x5, lsl #2]
    72d8:	9ba210c4 	umaddl	x4, w6, w2, x4
/home/zliu/ubuntu-optee-rpi3/RPi3_OPTEE_3.1/optee_os/lib/libmpa/mpa_montgomery.c:66
    72dc:	b8004464 	str	w4, [x3], #4
/home/zliu/ubuntu-optee-rpi3/RPi3_OPTEE_3.1/optee_os/lib/libmpa/mpa_montgomery.c:67
    72e0:	d360fc84 	lsr	x4, x4, #32
    72e4:	17ffffed 	b	7298 <__mpa_montgomery_mul_add+0x14>
/home/zliu/ubuntu-optee-rpi3/RPi3_OPTEE_3.1/optee_os/lib/libmpa/mpa_montgomery.c:70
    72e8:	b9400061 	ldr	w1, [x3]
    72ec:	8b244024 	add	x4, x1, w4, uxtw
/home/zliu/ubuntu-optee-rpi3/RPi3_OPTEE_3.1/optee_os/lib/libmpa/mpa_montgomery.c:71
    72f0:	b8004464 	str	w4, [x3], #4
/home/zliu/ubuntu-optee-rpi3/RPi3_OPTEE_3.1/optee_os/lib/libmpa/mpa_montgomery.c:72
    72f4:	d360fc84 	lsr	x4, x4, #32
    72f8:	17ffffed 	b	72ac <__mpa_montgomery_mul_add+0x28>

00000000000072fc <__mpa_montgomery_sub_ack>:
__mpa_montgomery_sub_ack():
/home/zliu/ubuntu-optee-rpi3/RPi3_OPTEE_3.1/optee_os/lib/libmpa/mpa_montgomery.c:98
    72fc:	91002002 	add	x2, x0, #0x8
/home/zliu/ubuntu-optee-rpi3/RPi3_OPTEE_3.1/optee_os/lib/libmpa/mpa_montgomery.c:101
    7300:	d2800026 	mov	x6, #0x1                   	// #1
/home/zliu/ubuntu-optee-rpi3/RPi3_OPTEE_3.1/optee_os/lib/libmpa/mpa_montgomery.c:99
    7304:	52800004 	mov	w4, #0x0                   	// #0
/home/zliu/ubuntu-optee-rpi3/RPi3_OPTEE_3.1/optee_os/lib/libmpa/mpa_montgomery.c:101
    7308:	b9400423 	ldr	w3, [x1, #4]
    730c:	510004c5 	sub	w5, w6, #0x1
    7310:	910004c6 	add	x6, x6, #0x1
    7314:	6b05007f 	cmp	w3, w5
    7318:	540000cc 	b.gt	7330 <__mpa_montgomery_sub_ack+0x34>
/home/zliu/ubuntu-optee-rpi3/RPi3_OPTEE_3.1/optee_os/lib/libmpa/mpa_montgomery.c:110
    731c:	350001a4 	cbnz	w4, 7350 <__mpa_montgomery_sub_ack+0x54>
/home/zliu/ubuntu-optee-rpi3/RPi3_OPTEE_3.1/optee_os/lib/libmpa/mpa_montgomery.c:116
    7320:	b9400401 	ldr	w1, [x0, #4]
    7324:	6b0100bf 	cmp	w5, w1
    7328:	5400026a 	b.ge	7374 <__mpa_montgomery_sub_ack+0x78>  // b.tcont
    732c:	d65f03c0 	ret
/home/zliu/ubuntu-optee-rpi3/RPi3_OPTEE_3.1/optee_os/lib/libmpa/mpa_montgomery.c:102
    7330:	b8667825 	ldr	w5, [x1, x6, lsl #2]
    7334:	b9400043 	ldr	w3, [x2]
    7338:	cb050063 	sub	x3, x3, x5
    733c:	cb244063 	sub	x3, x3, w4, uxtw
/home/zliu/ubuntu-optee-rpi3/RPi3_OPTEE_3.1/optee_os/lib/libmpa/mpa_montgomery.c:104
    7340:	b8004443 	str	w3, [x2], #4
/home/zliu/ubuntu-optee-rpi3/RPi3_OPTEE_3.1/optee_os/lib/libmpa/mpa_montgomery.c:105
    7344:	d360fc63 	lsr	x3, x3, #32
    7348:	4b0303e4 	neg	w4, w3
    734c:	17ffffef 	b	7308 <__mpa_montgomery_sub_ack+0xc>
/home/zliu/ubuntu-optee-rpi3/RPi3_OPTEE_3.1/optee_os/lib/libmpa/mpa_montgomery.c:111
    7350:	b9400041 	ldr	w1, [x2]
/home/zliu/ubuntu-optee-rpi3/RPi3_OPTEE_3.1/optee_os/lib/libmpa/mpa_montgomery.c:114
    7354:	110004a5 	add	w5, w5, #0x1
/home/zliu/ubuntu-optee-rpi3/RPi3_OPTEE_3.1/optee_os/lib/libmpa/mpa_montgomery.c:111
    7358:	cb244023 	sub	x3, x1, w4, uxtw
/home/zliu/ubuntu-optee-rpi3/RPi3_OPTEE_3.1/optee_os/lib/libmpa/mpa_montgomery.c:112
    735c:	b8004443 	str	w3, [x2], #4
/home/zliu/ubuntu-optee-rpi3/RPi3_OPTEE_3.1/optee_os/lib/libmpa/mpa_montgomery.c:113
    7360:	d360fc63 	lsr	x3, x3, #32
    7364:	4b0303e4 	neg	w4, w3
    7368:	17ffffed 	b	731c <__mpa_montgomery_sub_ack+0x20>
/home/zliu/ubuntu-optee-rpi3/RPi3_OPTEE_3.1/optee_os/lib/libmpa/mpa_montgomery.c:119
    736c:	51000421 	sub	w1, w1, #0x1
    7370:	b9000401 	str	w1, [x0, #4]
/home/zliu/ubuntu-optee-rpi3/RPi3_OPTEE_3.1/optee_os/lib/libmpa/mpa_montgomery.c:118
    7374:	b9400401 	ldr	w1, [x0, #4]
    7378:	7100003f 	cmp	w1, #0x0
    737c:	5400006d 	b.le	7388 <__mpa_montgomery_sub_ack+0x8c>
/home/zliu/ubuntu-optee-rpi3/RPi3_OPTEE_3.1/optee_os/lib/libmpa/mpa_montgomery.c:118 (discriminator 1)
    7380:	b85fcc43 	ldr	w3, [x2, #-4]!
    7384:	34ffff43 	cbz	w3, 736c <__mpa_montgomery_sub_ack+0x70>
    7388:	d65f03c0 	ret

000000000000738c <__mpa_montgomery_mul>:
__mpa_montgomery_mul():
/home/zliu/ubuntu-optee-rpi3/RPi3_OPTEE_3.1/optee_os/lib/libmpa/mpa_montgomery.c:138
    738c:	a9bb7bfd 	stp	x29, x30, [sp, #-80]!
    7390:	910003fd 	mov	x29, sp
    7394:	a90363f7 	stp	x23, x24, [sp, #48]
    7398:	aa0103f7 	mov	x23, x1
    739c:	a9046bf9 	stp	x25, x26, [sp, #64]
    73a0:	910022f9 	add	x25, x23, #0x8
/home/zliu/ubuntu-optee-rpi3/RPi3_OPTEE_3.1/optee_os/lib/libmpa/mpa_montgomery.c:145
    73a4:	52800018 	mov	w24, #0x0                   	// #0
/home/zliu/ubuntu-optee-rpi3/RPi3_OPTEE_3.1/optee_os/lib/libmpa/mpa_montgomery.c:138
    73a8:	a90153f3 	stp	x19, x20, [sp, #16]
    73ac:	a9025bf5 	stp	x21, x22, [sp, #32]
    73b0:	aa0003f3 	mov	x19, x0
    73b4:	aa0203f6 	mov	x22, x2
    73b8:	aa0303f4 	mov	x20, x3
    73bc:	2a0403f5 	mov	w21, w4
/home/zliu/ubuntu-optee-rpi3/RPi3_OPTEE_3.1/optee_os/lib/libmpa/mpa_montgomery.c:143
    73c0:	97ffff55 	bl	7114 <mpa_wipe>
/home/zliu/ubuntu-optee-rpi3/RPi3_OPTEE_3.1/optee_os/lib/libmpa/mpa_montgomery.c:145 (discriminator 1)
    73c4:	b9400680 	ldr	w0, [x20, #4]
    73c8:	6b00031f 	cmp	w24, w0
    73cc:	540001ab 	b.lt	7400 <__mpa_montgomery_mul+0x74>  // b.tstop
/home/zliu/ubuntu-optee-rpi3/RPi3_OPTEE_3.1/optee_os/lib/libmpa/mpa_montgomery.c:162
    73d0:	aa1403e1 	mov	x1, x20
    73d4:	aa1303e0 	mov	x0, x19
    73d8:	94000af3 	bl	9fa4 <__mpa_abs_cmp>
    73dc:	37f805e0 	tbnz	w0, #31, 7498 <__mpa_montgomery_mul+0x10c>
/home/zliu/ubuntu-optee-rpi3/RPi3_OPTEE_3.1/optee_os/lib/libmpa/mpa_montgomery.c:163
    73e0:	aa1403e1 	mov	x1, x20
    73e4:	aa1303e0 	mov	x0, x19
/home/zliu/ubuntu-optee-rpi3/RPi3_OPTEE_3.1/optee_os/lib/libmpa/mpa_montgomery.c:164
    73e8:	a9425bf5 	ldp	x21, x22, [sp, #32]
    73ec:	a94153f3 	ldp	x19, x20, [sp, #16]
    73f0:	a94363f7 	ldp	x23, x24, [sp, #48]
    73f4:	a9446bf9 	ldp	x25, x26, [sp, #64]
    73f8:	a8c57bfd 	ldp	x29, x30, [sp], #80
/home/zliu/ubuntu-optee-rpi3/RPi3_OPTEE_3.1/optee_os/lib/libmpa/mpa_montgomery.c:163
    73fc:	17ffffc0 	b	72fc <__mpa_montgomery_sub_ack>
/home/zliu/ubuntu-optee-rpi3/RPi3_OPTEE_3.1/optee_os/lib/libmpa/mpa_montgomery.c:147
    7400:	b94006e1 	ldr	w1, [x23, #4]
    7404:	52800002 	mov	w2, #0x0                   	// #0
/home/zliu/ubuntu-optee-rpi3/RPi3_OPTEE_3.1/optee_os/lib/libmpa/mpa_montgomery.c:146
    7408:	b9400a69 	ldr	w9, [x19, #8]
/home/zliu/ubuntu-optee-rpi3/RPi3_OPTEE_3.1/optee_os/lib/libmpa/mpa_montgomery.c:147
    740c:	7100003f 	cmp	w1, #0x0
    7410:	5a81a421 	cneg	w1, w1, lt  // lt = tstop
    7414:	6b01031f 	cmp	w24, w1
    7418:	5400004a 	b.ge	7420 <__mpa_montgomery_mul+0x94>  // b.tcont
/home/zliu/ubuntu-optee-rpi3/RPi3_OPTEE_3.1/optee_os/lib/libmpa/mpa_montgomery.c:147 (discriminator 1)
    741c:	b9400322 	ldr	w2, [x25]
/home/zliu/ubuntu-optee-rpi3/RPi3_OPTEE_3.1/optee_os/lib/libmpa/mpa_montgomery.c:148
    7420:	b94006c1 	ldr	w1, [x22, #4]
    7424:	52800000 	mov	w0, #0x0                   	// #0
    7428:	34000041 	cbz	w1, 7430 <__mpa_montgomery_mul+0xa4>
/home/zliu/ubuntu-optee-rpi3/RPi3_OPTEE_3.1/optee_os/lib/libmpa/mpa_montgomery.c:148 (discriminator 1)
    742c:	b9400ac0 	ldr	w0, [x22, #8]
/home/zliu/ubuntu-optee-rpi3/RPi3_OPTEE_3.1/optee_os/lib/libmpa/mpa_montgomery.c:146
    7430:	1b002440 	madd	w0, w2, w0, w9
/home/zliu/ubuntu-optee-rpi3/RPi3_OPTEE_3.1/optee_os/lib/libmpa/mpa_montgomery.c:150
    7434:	aa1603e1 	mov	x1, x22
/home/zliu/ubuntu-optee-rpi3/RPi3_OPTEE_3.1/optee_os/lib/libmpa/mpa_montgomery.c:146
    7438:	1b157c1a 	mul	w26, w0, w21
/home/zliu/ubuntu-optee-rpi3/RPi3_OPTEE_3.1/optee_os/lib/libmpa/mpa_montgomery.c:150
    743c:	aa1303e0 	mov	x0, x19
    7440:	97ffff91 	bl	7284 <__mpa_montgomery_mul_add>
/home/zliu/ubuntu-optee-rpi3/RPi3_OPTEE_3.1/optee_os/lib/libmpa/mpa_montgomery.c:152
    7444:	2a1a03e2 	mov	w2, w26
    7448:	aa1403e1 	mov	x1, x20
    744c:	aa1303e0 	mov	x0, x19
    7450:	97ffff8d 	bl	7284 <__mpa_montgomery_mul_add>
/home/zliu/ubuntu-optee-rpi3/RPi3_OPTEE_3.1/optee_os/lib/libmpa/mpa_montgomery.c:155
    7454:	b9400660 	ldr	w0, [x19, #4]
    7458:	91002261 	add	x1, x19, #0x8
/home/zliu/ubuntu-optee-rpi3/RPi3_OPTEE_3.1/optee_os/lib/libmpa/mpa_montgomery.c:156
    745c:	52800002 	mov	w2, #0x0                   	// #0
/home/zliu/ubuntu-optee-rpi3/RPi3_OPTEE_3.1/optee_os/lib/libmpa/mpa_montgomery.c:155
    7460:	51000400 	sub	w0, w0, #0x1
    7464:	b9000660 	str	w0, [x19, #4]
    7468:	91001021 	add	x1, x1, #0x4
/home/zliu/ubuntu-optee-rpi3/RPi3_OPTEE_3.1/optee_os/lib/libmpa/mpa_montgomery.c:156 (discriminator 1)
    746c:	6b00005f 	cmp	w2, w0
    7470:	540000cb 	b.lt	7488 <__mpa_montgomery_mul+0xfc>  // b.tstop
/home/zliu/ubuntu-optee-rpi3/RPi3_OPTEE_3.1/optee_os/lib/libmpa/mpa_montgomery.c:158 (discriminator 2)
    7474:	8b20ca60 	add	x0, x19, w0, sxtw #2
/home/zliu/ubuntu-optee-rpi3/RPi3_OPTEE_3.1/optee_os/lib/libmpa/mpa_montgomery.c:145 (discriminator 2)
    7478:	11000718 	add	w24, w24, #0x1
    747c:	91001339 	add	x25, x25, #0x4
/home/zliu/ubuntu-optee-rpi3/RPi3_OPTEE_3.1/optee_os/lib/libmpa/mpa_montgomery.c:158 (discriminator 2)
    7480:	b900081f 	str	wzr, [x0, #8]
    7484:	17ffffd0 	b	73c4 <__mpa_montgomery_mul+0x38>
/home/zliu/ubuntu-optee-rpi3/RPi3_OPTEE_3.1/optee_os/lib/libmpa/mpa_montgomery.c:157 (discriminator 3)
    7488:	b9400023 	ldr	w3, [x1]
    748c:	11000442 	add	w2, w2, #0x1
    7490:	b81fc023 	stur	w3, [x1, #-4]
    7494:	17fffff5 	b	7468 <__mpa_montgomery_mul+0xdc>
/home/zliu/ubuntu-optee-rpi3/RPi3_OPTEE_3.1/optee_os/lib/libmpa/mpa_montgomery.c:164
    7498:	a94153f3 	ldp	x19, x20, [sp, #16]
    749c:	a9425bf5 	ldp	x21, x22, [sp, #32]
    74a0:	a94363f7 	ldp	x23, x24, [sp, #48]
    74a4:	a9446bf9 	ldp	x25, x26, [sp, #64]
    74a8:	a8c57bfd 	ldp	x29, x30, [sp], #80
    74ac:	d65f03c0 	ret

00000000000074b0 <mpa_compute_fmm_context>:
mpa_compute_fmm_context():
/home/zliu/ubuntu-optee-rpi3/RPi3_OPTEE_3.1/optee_os/lib/libmpa/mpa_montgomery.c:180
    74b0:	a9ba7bfd 	stp	x29, x30, [sp, #-96]!
    74b4:	910003fd 	mov	x29, sp
    74b8:	a90363f7 	stp	x23, x24, [sp, #48]
    74bc:	aa0203f8 	mov	x24, x2
/home/zliu/ubuntu-optee-rpi3/RPi3_OPTEE_3.1/optee_os/lib/libmpa/mpa_montgomery.c:194
    74c0:	b9400402 	ldr	w2, [x0, #4]
/home/zliu/ubuntu-optee-rpi3/RPi3_OPTEE_3.1/optee_os/lib/libmpa/mpa_montgomery.c:180
    74c4:	aa0303f7 	mov	x23, x3
    74c8:	a90153f3 	stp	x19, x20, [sp, #16]
    74cc:	aa0103f4 	mov	x20, x1
/home/zliu/ubuntu-optee-rpi3/RPi3_OPTEE_3.1/optee_os/lib/libmpa/mpa_montgomery.c:194
    74d0:	7100005f 	cmp	w2, #0x0
/home/zliu/ubuntu-optee-rpi3/RPi3_OPTEE_3.1/optee_os/lib/libmpa/mpa_montgomery.c:180
    74d4:	aa0403f3 	mov	x19, x4
    74d8:	a9025bf5 	stp	x21, x22, [sp, #32]
/home/zliu/ubuntu-optee-rpi3/RPi3_OPTEE_3.1/optee_os/lib/libmpa/mpa_montgomery.c:195
    74dc:	52800021 	mov	w1, #0x1                   	// #1
/home/zliu/ubuntu-optee-rpi3/RPi3_OPTEE_3.1/optee_os/lib/libmpa/mpa_montgomery.c:194
    74e0:	5a82a455 	cneg	w21, w2, lt  // lt = tstop
/home/zliu/ubuntu-optee-rpi3/RPi3_OPTEE_3.1/optee_os/lib/libmpa/mpa_montgomery.c:180
    74e4:	aa0003f6 	mov	x22, x0
/home/zliu/ubuntu-optee-rpi3/RPi3_OPTEE_3.1/optee_os/lib/libmpa/mpa_montgomery.c:195
    74e8:	aa1403e0 	mov	x0, x20
    74ec:	94000175 	bl	7ac0 <mpa_set_word>
/home/zliu/ubuntu-optee-rpi3/RPi3_OPTEE_3.1/optee_os/lib/libmpa/mpa_montgomery.c:196
    74f0:	531b6aa2 	lsl	w2, w21, #5
    74f4:	aa1403e1 	mov	x1, x20
    74f8:	aa1403e0 	mov	x0, x20
    74fc:	940007b8 	bl	93dc <mpa_shift_left>
/home/zliu/ubuntu-optee-rpi3/RPi3_OPTEE_3.1/optee_os/lib/libmpa/mpa_montgomery.c:197
    7500:	aa1603e2 	mov	x2, x22
    7504:	aa1403e1 	mov	x1, x20
    7508:	aa1403e0 	mov	x0, x20
    750c:	aa1303e3 	mov	x3, x19
    7510:	94000d78 	bl	aaf0 <mpa_mod>
/home/zliu/ubuntu-optee-rpi3/RPi3_OPTEE_3.1/optee_os/lib/libmpa/mpa_montgomery.c:203
    7514:	52800035 	mov	w21, #0x1                   	// #1
/home/zliu/ubuntu-optee-rpi3/RPi3_OPTEE_3.1/optee_os/lib/libmpa/mpa_montgomery.c:200
    7518:	aa1603e3 	mov	x3, x22
    751c:	aa1403e2 	mov	x2, x20
    7520:	aa1303e4 	mov	x4, x19
    7524:	aa1403e1 	mov	x1, x20
    7528:	aa1803e0 	mov	x0, x24
    752c:	94000db9 	bl	ac10 <mpa_mul_mod>
/home/zliu/ubuntu-optee-rpi3/RPi3_OPTEE_3.1/optee_os/lib/libmpa/mpa_montgomery.c:205
    7530:	b9400ac0 	ldr	w0, [x22, #8]
/home/zliu/ubuntu-optee-rpi3/RPi3_OPTEE_3.1/optee_os/lib/libmpa/mpa_montgomery.c:207
    7534:	910103b6 	add	x22, x29, #0x40
    7538:	aa1303e1 	mov	x1, x19
/home/zliu/ubuntu-optee-rpi3/RPi3_OPTEE_3.1/optee_os/lib/libmpa/mpa_montgomery.c:204
    753c:	290a57b5 	stp	w21, w21, [x29, #80]
/home/zliu/ubuntu-optee-rpi3/RPi3_OPTEE_3.1/optee_os/lib/libmpa/mpa_montgomery.c:205
    7540:	b9005ba0 	str	w0, [x29, #88]
/home/zliu/ubuntu-optee-rpi3/RPi3_OPTEE_3.1/optee_os/lib/libmpa/mpa_montgomery.c:208
    7544:	910123b8 	add	x24, x29, #0x48
/home/zliu/ubuntu-optee-rpi3/RPi3_OPTEE_3.1/optee_os/lib/libmpa/mpa_montgomery.c:207
    7548:	aa1603e0 	mov	x0, x22
    754c:	94000610 	bl	8d8c <mpa_alloc_static_temp_var>
/home/zliu/ubuntu-optee-rpi3/RPi3_OPTEE_3.1/optee_os/lib/libmpa/mpa_montgomery.c:208
    7550:	aa1303e1 	mov	x1, x19
    7554:	aa1803e0 	mov	x0, x24
    7558:	9400060d 	bl	8d8c <mpa_alloc_static_temp_var>
/home/zliu/ubuntu-optee-rpi3/RPi3_OPTEE_3.1/optee_os/lib/libmpa/mpa_montgomery.c:210
    755c:	b0000034 	adrp	x20, c000 <__func__.3927+0x294>
    7560:	a94403a1 	ldp	x1, x0, [x29, #64]
    7564:	aa1303e5 	mov	x5, x19
    7568:	f9449a94 	ldr	x20, [x20, #2352]
    756c:	910143a3 	add	x3, x29, #0x50
    7570:	d2800002 	mov	x2, #0x0                   	// #0
    7574:	aa1403e4 	mov	x4, x20
    7578:	94000544 	bl	8a88 <mpa_extended_gcd>
/home/zliu/ubuntu-optee-rpi3/RPi3_OPTEE_3.1/optee_os/lib/libmpa/mpa_montgomery.c:212
    757c:	f94027a0 	ldr	x0, [x29, #72]
    7580:	2a1503e1 	mov	w1, w21
    7584:	94000adb 	bl	a0f0 <mpa_cmp_short>
    7588:	2a0003f5 	mov	w21, w0
/home/zliu/ubuntu-optee-rpi3/RPi3_OPTEE_3.1/optee_os/lib/libmpa/mpa_montgomery.c:214
    758c:	35000160 	cbnz	w0, 75b8 <mpa_compute_fmm_context+0x108>
/home/zliu/ubuntu-optee-rpi3/RPi3_OPTEE_3.1/optee_os/lib/libmpa/mpa_montgomery.c:230
    7590:	f94023a1 	ldr	x1, [x29, #64]
    7594:	b9400420 	ldr	w0, [x1, #4]
    7598:	37f800a0 	tbnz	w0, #31, 75ac <mpa_compute_fmm_context+0xfc>
/home/zliu/ubuntu-optee-rpi3/RPi3_OPTEE_3.1/optee_os/lib/libmpa/mpa_montgomery.c:231
    759c:	aa1303e3 	mov	x3, x19
    75a0:	aa1403e2 	mov	x2, x20
    75a4:	aa0103e0 	mov	x0, x1
    75a8:	94000970 	bl	9b68 <mpa_sub>
/home/zliu/ubuntu-optee-rpi3/RPi3_OPTEE_3.1/optee_os/lib/libmpa/mpa_montgomery.c:235
    75ac:	f94023a0 	ldr	x0, [x29, #64]
    75b0:	b9400800 	ldr	w0, [x0, #8]
    75b4:	b90002e0 	str	w0, [x23]
/home/zliu/ubuntu-optee-rpi3/RPi3_OPTEE_3.1/optee_os/lib/libmpa/mpa_montgomery.c:239
    75b8:	aa1303e1 	mov	x1, x19
    75bc:	aa1803e0 	mov	x0, x24
    75c0:	940005f7 	bl	8d9c <mpa_free_static_temp_var>
/home/zliu/ubuntu-optee-rpi3/RPi3_OPTEE_3.1/optee_os/lib/libmpa/mpa_montgomery.c:240
    75c4:	aa1303e1 	mov	x1, x19
    75c8:	aa1603e0 	mov	x0, x22
    75cc:	940005f4 	bl	8d9c <mpa_free_static_temp_var>
/home/zliu/ubuntu-optee-rpi3/RPi3_OPTEE_3.1/optee_os/lib/libmpa/mpa_montgomery.c:242
    75d0:	710002bf 	cmp	w21, #0x0
/home/zliu/ubuntu-optee-rpi3/RPi3_OPTEE_3.1/optee_os/lib/libmpa/mpa_montgomery.c:245
    75d4:	a94153f3 	ldp	x19, x20, [sp, #16]
    75d8:	5a9f03e0 	csetm	w0, ne  // ne = any
    75dc:	a9425bf5 	ldp	x21, x22, [sp, #32]
    75e0:	a94363f7 	ldp	x23, x24, [sp, #48]
    75e4:	a8c67bfd 	ldp	x29, x30, [sp], #96
    75e8:	d65f03c0 	ret

00000000000075ec <mpa_montgomery_mul>:
mpa_montgomery_mul():
/home/zliu/ubuntu-optee-rpi3/RPi3_OPTEE_3.1/optee_os/lib/libmpa/mpa_montgomery.c:258
    75ec:	a9ba7bfd 	stp	x29, x30, [sp, #-96]!
    75f0:	910003fd 	mov	x29, sp
    75f4:	a90153f3 	stp	x19, x20, [sp, #16]
/home/zliu/ubuntu-optee-rpi3/RPi3_OPTEE_3.1/optee_os/lib/libmpa/mpa_montgomery.c:261
    75f8:	910163b3 	add	x19, x29, #0x58
/home/zliu/ubuntu-optee-rpi3/RPi3_OPTEE_3.1/optee_os/lib/libmpa/mpa_montgomery.c:258
    75fc:	aa0503f4 	mov	x20, x5
    7600:	a9025bf5 	stp	x21, x22, [sp, #32]
    7604:	a90363f7 	stp	x23, x24, [sp, #48]
    7608:	aa0003f5 	mov	x21, x0
    760c:	f90023f9 	str	x25, [sp, #64]
    7610:	aa0103f6 	mov	x22, x1
    7614:	aa0203f7 	mov	x23, x2
/home/zliu/ubuntu-optee-rpi3/RPi3_OPTEE_3.1/optee_os/lib/libmpa/mpa_montgomery.c:261
    7618:	aa0503e1 	mov	x1, x5
/home/zliu/ubuntu-optee-rpi3/RPi3_OPTEE_3.1/optee_os/lib/libmpa/mpa_montgomery.c:258
    761c:	aa0303f8 	mov	x24, x3
    7620:	2a0403f9 	mov	w25, w4
/home/zliu/ubuntu-optee-rpi3/RPi3_OPTEE_3.1/optee_os/lib/libmpa/mpa_montgomery.c:261
    7624:	aa1303e0 	mov	x0, x19
    7628:	940005d9 	bl	8d8c <mpa_alloc_static_temp_var>
/home/zliu/ubuntu-optee-rpi3/RPi3_OPTEE_3.1/optee_os/lib/libmpa/mpa_montgomery.c:263
    762c:	f9402fa0 	ldr	x0, [x29, #88]
    7630:	2a1903e4 	mov	w4, w25
    7634:	aa1803e3 	mov	x3, x24
    7638:	aa1703e2 	mov	x2, x23
    763c:	aa1603e1 	mov	x1, x22
    7640:	97ffff53 	bl	738c <__mpa_montgomery_mul>
/home/zliu/ubuntu-optee-rpi3/RPi3_OPTEE_3.1/optee_os/lib/libmpa/mpa_montgomery.c:265
    7644:	f9402fa1 	ldr	x1, [x29, #88]
    7648:	aa1503e0 	mov	x0, x21
    764c:	97fffebe 	bl	7144 <mpa_copy>
/home/zliu/ubuntu-optee-rpi3/RPi3_OPTEE_3.1/optee_os/lib/libmpa/mpa_montgomery.c:266
    7650:	aa1403e1 	mov	x1, x20
    7654:	aa1303e0 	mov	x0, x19
    7658:	940005d1 	bl	8d9c <mpa_free_static_temp_var>
/home/zliu/ubuntu-optee-rpi3/RPi3_OPTEE_3.1/optee_os/lib/libmpa/mpa_montgomery.c:267
    765c:	f94023f9 	ldr	x25, [sp, #64]
    7660:	a94153f3 	ldp	x19, x20, [sp, #16]
    7664:	a9425bf5 	ldp	x21, x22, [sp, #32]
    7668:	a94363f7 	ldp	x23, x24, [sp, #48]
    766c:	a8c67bfd 	ldp	x29, x30, [sp], #96
    7670:	d65f03c0 	ret

0000000000007674 <mpa_is_prob_prime>:
mpa_is_prob_prime():
/home/zliu/ubuntu-optee-rpi3/RPi3_OPTEE_3.1/optee_os/lib/libmpa/mpa_primetest.c:90
    7674:	a9b37bfd 	stp	x29, x30, [sp, #-208]!
    7678:	910003fd 	mov	x29, sp
    767c:	a9025bf5 	stp	x21, x22, [sp, #32]
    7680:	2a0103f6 	mov	w22, w1
is_small_prime():
/home/zliu/ubuntu-optee-rpi3/RPi3_OPTEE_3.1/optee_os/lib/libmpa/mpa_primetest.c:137
    7684:	b9400401 	ldr	w1, [x0, #4]
mpa_is_prob_prime():
/home/zliu/ubuntu-optee-rpi3/RPi3_OPTEE_3.1/optee_os/lib/libmpa/mpa_primetest.c:90
    7688:	a90153f3 	stp	x19, x20, [sp, #16]
    768c:	aa0003f4 	mov	x20, x0
is_small_prime():
/home/zliu/ubuntu-optee-rpi3/RPi3_OPTEE_3.1/optee_os/lib/libmpa/mpa_primetest.c:137
    7690:	7100003f 	cmp	w1, #0x0
mpa_is_prob_prime():
/home/zliu/ubuntu-optee-rpi3/RPi3_OPTEE_3.1/optee_os/lib/libmpa/mpa_primetest.c:90
    7694:	a90363f7 	stp	x23, x24, [sp, #48]
    7698:	a9046bf9 	stp	x25, x26, [sp, #64]
is_small_prime():
/home/zliu/ubuntu-optee-rpi3/RPi3_OPTEE_3.1/optee_os/lib/libmpa/mpa_primetest.c:137
    769c:	5a81a421 	cneg	w1, w1, lt  // lt = tstop
mpa_is_prob_prime():
/home/zliu/ubuntu-optee-rpi3/RPi3_OPTEE_3.1/optee_os/lib/libmpa/mpa_primetest.c:90
    76a0:	a90573fb 	stp	x27, x28, [sp, #80]
    76a4:	aa0203f3 	mov	x19, x2
is_small_prime():
/home/zliu/ubuntu-optee-rpi3/RPi3_OPTEE_3.1/optee_os/lib/libmpa/mpa_primetest.c:137
    76a8:	7100043f 	cmp	w1, #0x1
    76ac:	5400018d 	b.le	76dc <mpa_is_prob_prime+0x68>
/home/zliu/ubuntu-optee-rpi3/RPi3_OPTEE_3.1/optee_os/lib/libmpa/mpa_primetest.c:138
    76b0:	97fffeef 	bl	726c <mpa_parity>
    76b4:	35000d80 	cbnz	w0, 7864 <mpa_is_prob_prime+0x1f0>
    76b8:	52800019 	mov	w25, #0x0                   	// #0
mpa_is_prob_prime():
/home/zliu/ubuntu-optee-rpi3/RPi3_OPTEE_3.1/optee_os/lib/libmpa/mpa_primetest.c:108
    76bc:	2a1903e0 	mov	w0, w25
    76c0:	a94153f3 	ldp	x19, x20, [sp, #16]
    76c4:	a9425bf5 	ldp	x21, x22, [sp, #32]
    76c8:	a94363f7 	ldp	x23, x24, [sp, #48]
    76cc:	a9446bf9 	ldp	x25, x26, [sp, #64]
    76d0:	a94573fb 	ldp	x27, x28, [sp, #80]
    76d4:	a8cd7bfd 	ldp	x29, x30, [sp], #208
    76d8:	d65f03c0 	ret
is_small_prime():
/home/zliu/ubuntu-optee-rpi3/RPi3_OPTEE_3.1/optee_os/lib/libmpa/mpa_primetest.c:140
    76dc:	940000fe 	bl	7ad4 <mpa_get_word>
    76e0:	2a0003f5 	mov	w21, w0
/home/zliu/ubuntu-optee-rpi3/RPi3_OPTEE_3.1/optee_os/lib/libmpa/mpa_primetest.c:141
    76e4:	32000000 	orr	w0, w0, #0x1
    76e8:	7100041f 	cmp	w0, #0x1
    76ec:	54fffe60 	b.eq	76b8 <mpa_is_prob_prime+0x44>  // b.none
/home/zliu/ubuntu-optee-rpi3/RPi3_OPTEE_3.1/optee_os/lib/libmpa/mpa_primetest.c:144
    76f0:	52800039 	mov	w25, #0x1                   	// #1
/home/zliu/ubuntu-optee-rpi3/RPi3_OPTEE_3.1/optee_os/lib/libmpa/mpa_primetest.c:143
    76f4:	71000abf 	cmp	w21, #0x2
    76f8:	54fffe20 	b.eq	76bc <mpa_is_prob_prime+0x48>  // b.none
/home/zliu/ubuntu-optee-rpi3/RPi3_OPTEE_3.1/optee_os/lib/libmpa/mpa_primetest.c:145
    76fc:	3607fdf5 	tbz	w21, #0, 76b8 <mpa_is_prob_prime+0x44>
/home/zliu/ubuntu-optee-rpi3/RPi3_OPTEE_3.1/optee_os/lib/libmpa/mpa_primetest.c:149
    7700:	529869e1 	mov	w1, #0xc34f                	// #49999
    7704:	aa1403e0 	mov	x0, x20
    7708:	94000a7a 	bl	a0f0 <mpa_cmp_short>
    770c:	7100001f 	cmp	w0, #0x0
    7710:	54000aac 	b.gt	7864 <mpa_is_prob_prime+0x1f0>
/home/zliu/ubuntu-optee-rpi3/RPi3_OPTEE_3.1/optee_os/lib/libmpa/mpa_primetest.c:151
    7714:	51000eb5 	sub	w21, w21, #0x3
check_table():
/home/zliu/ubuntu-optee-rpi3/RPi3_OPTEE_3.1/optee_os/lib/libmpa/mpa_primetest.c:118
    7718:	f0000000 	adrp	x0, a000 <__mpa_abs_cmp+0x5c>
    771c:	913de000 	add	x0, x0, #0xf78
    7720:	d3467ea1 	ubfx	x1, x21, #6, #26
    7724:	d34116b5 	ubfx	x21, x21, #1, #5
    7728:	b8617802 	ldr	w2, [x0, x1, lsl #2]
    772c:	1ad52440 	lsr	w0, w2, w21
    7730:	0a190019 	and	w25, w0, w25
    7734:	17ffffe2 	b	76bc <mpa_is_prob_prime+0x48>
primality_test_miller_rabin():
/home/zliu/ubuntu-optee-rpi3/RPi3_OPTEE_3.1/optee_os/lib/libmpa/mpa_primetest.c:229
    7738:	f94057a1 	ldr	x1, [x29, #168]
    773c:	52800022 	mov	w2, #0x1                   	// #1
/home/zliu/ubuntu-optee-rpi3/RPi3_OPTEE_3.1/optee_os/lib/libmpa/mpa_primetest.c:230
    7740:	11000718 	add	w24, w24, #0x1
/home/zliu/ubuntu-optee-rpi3/RPi3_OPTEE_3.1/optee_os/lib/libmpa/mpa_primetest.c:229
    7744:	aa0103e0 	mov	x0, x1
    7748:	94000789 	bl	956c <mpa_shift_right>
    774c:	1400008e 	b	7984 <mpa_is_prob_prime+0x310>
/home/zliu/ubuntu-optee-rpi3/RPi3_OPTEE_3.1/optee_os/lib/libmpa/mpa_primetest.c:235
    7750:	36f803b7 	tbz	w23, #31, 77c4 <mpa_is_prob_prime+0x150>
/home/zliu/ubuntu-optee-rpi3/RPi3_OPTEE_3.1/optee_os/lib/libmpa/mpa_primetest.c:236
    7754:	f9403ba0 	ldr	x0, [x29, #112]
/home/zliu/ubuntu-optee-rpi3/RPi3_OPTEE_3.1/optee_os/lib/libmpa/mpa_primetest.c:238
    7758:	52800039 	mov	w25, #0x1                   	// #1
/home/zliu/ubuntu-optee-rpi3/RPi3_OPTEE_3.1/optee_os/lib/libmpa/mpa_primetest.c:236
    775c:	91312000 	add	x0, x0, #0xc48
    7760:	b8767801 	ldr	w1, [x0, x22, lsl #2]
    7764:	f94053a0 	ldr	x0, [x29, #160]
    7768:	940000ae 	bl	7a20 <mpa_set_S32>
/home/zliu/ubuntu-optee-rpi3/RPi3_OPTEE_3.1/optee_os/lib/libmpa/mpa_primetest.c:237
    776c:	f94053a1 	ldr	x1, [x29, #160]
    7770:	aa1403e0 	mov	x0, x20
    7774:	94000a45 	bl	a088 <mpa_cmp>
    7778:	34000220 	cbz	w0, 77bc <mpa_is_prob_prime+0x148>
/home/zliu/ubuntu-optee-rpi3/RPi3_OPTEE_3.1/optee_os/lib/libmpa/mpa_primetest.c:255
    777c:	b9409fa6 	ldr	w6, [x29, #156]
    7780:	aa1303e7 	mov	x7, x19
    7784:	a94a0ba1 	ldp	x1, x2, [x29, #160]
    7788:	aa1403e3 	mov	x3, x20
    778c:	a94b93a0 	ldp	x0, x4, [x29, #184]
/home/zliu/ubuntu-optee-rpi3/RPi3_OPTEE_3.1/optee_os/lib/libmpa/mpa_primetest.c:256
    7790:	52800019 	mov	w25, #0x0                   	// #0
/home/zliu/ubuntu-optee-rpi3/RPi3_OPTEE_3.1/optee_os/lib/libmpa/mpa_primetest.c:255
    7794:	f94067a5 	ldr	x5, [x29, #200]
    7798:	94000a77 	bl	a174 <mpa_exp_mod>
/home/zliu/ubuntu-optee-rpi3/RPi3_OPTEE_3.1/optee_os/lib/libmpa/mpa_primetest.c:259
    779c:	f9405fa0 	ldr	x0, [x29, #184]
    77a0:	52800021 	mov	w1, #0x1                   	// #1
    77a4:	94000a53 	bl	a0f0 <mpa_cmp_short>
/home/zliu/ubuntu-optee-rpi3/RPi3_OPTEE_3.1/optee_os/lib/libmpa/mpa_primetest.c:260
    77a8:	7100001f 	cmp	w0, #0x0
/home/zliu/ubuntu-optee-rpi3/RPi3_OPTEE_3.1/optee_os/lib/libmpa/mpa_primetest.c:259
    77ac:	2a0003e2 	mov	w2, w0
/home/zliu/ubuntu-optee-rpi3/RPi3_OPTEE_3.1/optee_os/lib/libmpa/mpa_primetest.c:260
    77b0:	7a400b24 	ccmp	w25, #0x0, #0x4, eq  // eq = none
    77b4:	540002ed 	b.le	7810 <mpa_is_prob_prime+0x19c>
/home/zliu/ubuntu-optee-rpi3/RPi3_OPTEE_3.1/optee_os/lib/libmpa/mpa_primetest.c:261
    77b8:	52800019 	mov	w25, #0x0                   	// #0
    77bc:	910006d6 	add	x22, x22, #0x1
    77c0:	1400007b 	b	79ac <mpa_is_prob_prime+0x338>
/home/zliu/ubuntu-optee-rpi3/RPi3_OPTEE_3.1/optee_os/lib/libmpa/mpa_primetest.c:247
    77c4:	f9405ba1 	ldr	x1, [x29, #176]
    77c8:	aa1303e3 	mov	x3, x19
    77cc:	52800022 	mov	w2, #0x1                   	// #1
    77d0:	aa0103e0 	mov	x0, x1
    77d4:	940009a6 	bl	9e6c <mpa_sub_word>
/home/zliu/ubuntu-optee-rpi3/RPi3_OPTEE_3.1/optee_os/lib/libmpa/mpa_primetest.c:249
    77d8:	f94053a0 	ldr	x0, [x29, #160]
    77dc:	f9405ba1 	ldr	x1, [x29, #176]
    77e0:	94000660 	bl	9160 <mpa_get_random>
/home/zliu/ubuntu-optee-rpi3/RPi3_OPTEE_3.1/optee_os/lib/libmpa/mpa_primetest.c:250
    77e4:	f9405ba1 	ldr	x1, [x29, #176]
    77e8:	aa1303e3 	mov	x3, x19
    77ec:	52800022 	mov	w2, #0x1                   	// #1
    77f0:	aa0103e0 	mov	x0, x1
    77f4:	9400094f 	bl	9d30 <mpa_add_word>
/home/zliu/ubuntu-optee-rpi3/RPi3_OPTEE_3.1/optee_os/lib/libmpa/mpa_primetest.c:252
    77f8:	f94053a1 	ldr	x1, [x29, #160]
    77fc:	aa1303e3 	mov	x3, x19
    7800:	52800042 	mov	w2, #0x2                   	// #2
    7804:	aa0103e0 	mov	x0, x1
    7808:	9400094a 	bl	9d30 <mpa_add_word>
    780c:	17ffffdc 	b	777c <mpa_is_prob_prime+0x108>
/home/zliu/ubuntu-optee-rpi3/RPi3_OPTEE_3.1/optee_os/lib/libmpa/mpa_primetest.c:265
    7810:	a94b03a1 	ldp	x1, x0, [x29, #176]
    7814:	b90067a2 	str	w2, [x29, #100]
    7818:	94000a1c 	bl	a088 <mpa_cmp>
    781c:	34000200 	cbz	w0, 785c <mpa_is_prob_prime+0x1e8>
/home/zliu/ubuntu-optee-rpi3/RPi3_OPTEE_3.1/optee_os/lib/libmpa/mpa_primetest.c:266
    7820:	b94067a2 	ldr	w2, [x29, #100]
    7824:	2a190042 	orr	w2, w2, w25
/home/zliu/ubuntu-optee-rpi3/RPi3_OPTEE_3.1/optee_os/lib/libmpa/mpa_primetest.c:265
    7828:	340001a2 	cbz	w2, 785c <mpa_is_prob_prime+0x1e8>
/home/zliu/ubuntu-optee-rpi3/RPi3_OPTEE_3.1/optee_os/lib/libmpa/mpa_primetest.c:271
    782c:	11000739 	add	w25, w25, #0x1
/home/zliu/ubuntu-optee-rpi3/RPi3_OPTEE_3.1/optee_os/lib/libmpa/mpa_primetest.c:272
    7830:	6b19031f 	cmp	w24, w25
    7834:	54fffc2d 	b.le	77b8 <mpa_is_prob_prime+0x144>
/home/zliu/ubuntu-optee-rpi3/RPi3_OPTEE_3.1/optee_os/lib/libmpa/mpa_primetest.c:273
    7838:	a94b93a1 	ldp	x1, x4, [x29, #184]
    783c:	aa1303e7 	mov	x7, x19
    7840:	b9409fa6 	ldr	w6, [x29, #156]
    7844:	aa1403e3 	mov	x3, x20
    7848:	f94037a2 	ldr	x2, [x29, #104]
    784c:	aa0103e0 	mov	x0, x1
    7850:	f94067a5 	ldr	x5, [x29, #200]
    7854:	94000a48 	bl	a174 <mpa_exp_mod>
    7858:	17ffffd1 	b	779c <mpa_is_prob_prime+0x128>
/home/zliu/ubuntu-optee-rpi3/RPi3_OPTEE_3.1/optee_os/lib/libmpa/mpa_primetest.c:265
    785c:	12800019 	mov	w25, #0xffffffff            	// #-1
    7860:	17ffffd7 	b	77bc <mpa_is_prob_prime+0x148>
has_small_factors():
/home/zliu/ubuntu-optee-rpi3/RPi3_OPTEE_3.1/optee_os/lib/libmpa/mpa_primetest.c:171
    7864:	910323b5 	add	x21, x29, #0xc8
    7868:	aa1303e1 	mov	x1, x19
    786c:	aa1503e0 	mov	x0, x21
    7870:	94000547 	bl	8d8c <mpa_alloc_static_temp_var>
/home/zliu/ubuntu-optee-rpi3/RPi3_OPTEE_3.1/optee_os/lib/libmpa/mpa_primetest.c:172
    7874:	f94067a0 	ldr	x0, [x29, #200]
    7878:	f0000018 	adrp	x24, a000 <__mpa_abs_cmp+0x5c>
    787c:	913de317 	add	x23, x24, #0xf78
    7880:	aa1303e3 	mov	x3, x19
    7884:	9131e2e2 	add	x2, x23, #0xc78
    7888:	aa1403e1 	mov	x1, x20
    788c:	94000437 	bl	8968 <mpa_gcd>
/home/zliu/ubuntu-optee-rpi3/RPi3_OPTEE_3.1/optee_os/lib/libmpa/mpa_primetest.c:173
    7890:	f94067a0 	ldr	x0, [x29, #200]
    7894:	52800021 	mov	w1, #0x1                   	// #1
    7898:	94000a16 	bl	a0f0 <mpa_cmp_short>
    789c:	2a0003f9 	mov	w25, w0
/home/zliu/ubuntu-optee-rpi3/RPi3_OPTEE_3.1/optee_os/lib/libmpa/mpa_primetest.c:174
    78a0:	aa1303e1 	mov	x1, x19
    78a4:	aa1503e0 	mov	x0, x21
    78a8:	9400053d 	bl	8d9c <mpa_free_static_temp_var>
    78ac:	f9003bb8 	str	x24, [x29, #112]
mpa_is_prob_prime():
/home/zliu/ubuntu-optee-rpi3/RPi3_OPTEE_3.1/optee_os/lib/libmpa/mpa_primetest.c:99
    78b0:	35fff059 	cbnz	w25, 76b8 <mpa_is_prob_prime+0x44>
primality_test_miller_rabin():
/home/zliu/ubuntu-optee-rpi3/RPi3_OPTEE_3.1/optee_os/lib/libmpa/mpa_primetest.c:203
    78b4:	910303a0 	add	x0, x29, #0xc0
    78b8:	aa1303e1 	mov	x1, x19
    78bc:	f90043a0 	str	x0, [x29, #128]
    78c0:	94000533 	bl	8d8c <mpa_alloc_static_temp_var>
/home/zliu/ubuntu-optee-rpi3/RPi3_OPTEE_3.1/optee_os/lib/libmpa/mpa_primetest.c:204
    78c4:	aa1303e1 	mov	x1, x19
    78c8:	aa1503e0 	mov	x0, x21
    78cc:	94000530 	bl	8d8c <mpa_alloc_static_temp_var>
/home/zliu/ubuntu-optee-rpi3/RPi3_OPTEE_3.1/optee_os/lib/libmpa/mpa_primetest.c:207
    78d0:	52800019 	mov	w25, #0x0                   	// #0
/home/zliu/ubuntu-optee-rpi3/RPi3_OPTEE_3.1/optee_os/lib/libmpa/mpa_primetest.c:206
    78d4:	a94c0ba1 	ldp	x1, x2, [x29, #192]
    78d8:	aa1303e4 	mov	x4, x19
    78dc:	910273a3 	add	x3, x29, #0x9c
    78e0:	aa1403e0 	mov	x0, x20
    78e4:	97fffef3 	bl	74b0 <mpa_compute_fmm_context>
    78e8:	3100041f 	cmn	w0, #0x1
    78ec:	540008c0 	b.eq	7a04 <mpa_is_prob_prime+0x390>  // b.none
/home/zliu/ubuntu-optee-rpi3/RPi3_OPTEE_3.1/optee_os/lib/libmpa/mpa_primetest.c:211
    78f0:	910283bc 	add	x28, x29, #0xa0
    78f4:	aa1303e1 	mov	x1, x19
    78f8:	aa1c03e0 	mov	x0, x28
/home/zliu/ubuntu-optee-rpi3/RPi3_OPTEE_3.1/optee_os/lib/libmpa/mpa_primetest.c:212
    78fc:	9102a3bb 	add	x27, x29, #0xa8
/home/zliu/ubuntu-optee-rpi3/RPi3_OPTEE_3.1/optee_os/lib/libmpa/mpa_primetest.c:211
    7900:	94000523 	bl	8d8c <mpa_alloc_static_temp_var>
/home/zliu/ubuntu-optee-rpi3/RPi3_OPTEE_3.1/optee_os/lib/libmpa/mpa_primetest.c:213
    7904:	9102c3ba 	add	x26, x29, #0xb0
/home/zliu/ubuntu-optee-rpi3/RPi3_OPTEE_3.1/optee_os/lib/libmpa/mpa_primetest.c:212
    7908:	aa1303e1 	mov	x1, x19
    790c:	aa1b03e0 	mov	x0, x27
    7910:	9400051f 	bl	8d8c <mpa_alloc_static_temp_var>
/home/zliu/ubuntu-optee-rpi3/RPi3_OPTEE_3.1/optee_os/lib/libmpa/mpa_primetest.c:213
    7914:	aa1303e1 	mov	x1, x19
    7918:	aa1a03e0 	mov	x0, x26
    791c:	9400051c 	bl	8d8c <mpa_alloc_static_temp_var>
/home/zliu/ubuntu-optee-rpi3/RPi3_OPTEE_3.1/optee_os/lib/libmpa/mpa_primetest.c:214
    7920:	9102e3a0 	add	x0, x29, #0xb8
    7924:	aa1303e1 	mov	x1, x19
    7928:	f9003fa0 	str	x0, [x29, #120]
    792c:	94000518 	bl	8d8c <mpa_alloc_static_temp_var>
/home/zliu/ubuntu-optee-rpi3/RPi3_OPTEE_3.1/optee_os/lib/libmpa/mpa_primetest.c:217
    7930:	9130e2e1 	add	x1, x23, #0xc38
    7934:	aa1403e0 	mov	x0, x20
    7938:	940009d4 	bl	a088 <mpa_cmp>
    793c:	2a0003f7 	mov	w23, w0
/home/zliu/ubuntu-optee-rpi3/RPi3_OPTEE_3.1/optee_os/lib/libmpa/mpa_primetest.c:216
    7940:	531f7c00 	lsr	w0, w0, #31
    7944:	b9008ba0 	str	w0, [x29, #136]
/home/zliu/ubuntu-optee-rpi3/RPi3_OPTEE_3.1/optee_os/lib/libmpa/mpa_primetest.c:220
    7948:	528000e0 	mov	w0, #0x7                   	// #7
    794c:	b9008fa0 	str	w0, [x29, #140]
/home/zliu/ubuntu-optee-rpi3/RPi3_OPTEE_3.1/optee_os/lib/libmpa/mpa_primetest.c:219
    7950:	37f800b7 	tbnz	w23, #31, 7964 <mpa_is_prob_prime+0x2f0>
/home/zliu/ubuntu-optee-rpi3/RPi3_OPTEE_3.1/optee_os/lib/libmpa/mpa_primetest.c:222
    7954:	110006d6 	add	w22, w22, #0x1
    7958:	52800040 	mov	w0, #0x2                   	// #2
    795c:	1ac00ec0 	sdiv	w0, w22, w0
    7960:	b9008fa0 	str	w0, [x29, #140]
/home/zliu/ubuntu-optee-rpi3/RPi3_OPTEE_3.1/optee_os/lib/libmpa/mpa_primetest.c:224
    7964:	f9405ba0 	ldr	x0, [x29, #176]
    7968:	aa1403e1 	mov	x1, x20
    796c:	aa1303e3 	mov	x3, x19
    7970:	52800022 	mov	w2, #0x1                   	// #1
/home/zliu/ubuntu-optee-rpi3/RPi3_OPTEE_3.1/optee_os/lib/libmpa/mpa_primetest.c:226
    7974:	52800018 	mov	w24, #0x0                   	// #0
/home/zliu/ubuntu-optee-rpi3/RPi3_OPTEE_3.1/optee_os/lib/libmpa/mpa_primetest.c:224
    7978:	9400093d 	bl	9e6c <mpa_sub_word>
/home/zliu/ubuntu-optee-rpi3/RPi3_OPTEE_3.1/optee_os/lib/libmpa/mpa_primetest.c:225
    797c:	a94a87a0 	ldp	x0, x1, [x29, #168]
    7980:	97fffdf1 	bl	7144 <mpa_copy>
/home/zliu/ubuntu-optee-rpi3/RPi3_OPTEE_3.1/optee_os/lib/libmpa/mpa_primetest.c:228
    7984:	f94057a0 	ldr	x0, [x29, #168]
    7988:	97fffe39 	bl	726c <mpa_parity>
    798c:	34ffed60 	cbz	w0, 7738 <mpa_is_prob_prime+0xc4>
/home/zliu/ubuntu-optee-rpi3/RPi3_OPTEE_3.1/optee_os/lib/libmpa/mpa_primetest.c:273
    7990:	f9403ba0 	ldr	x0, [x29, #112]
/home/zliu/ubuntu-optee-rpi3/RPi3_OPTEE_3.1/optee_os/lib/libmpa/mpa_primetest.c:228
    7994:	d2800016 	mov	x22, #0x0                   	// #0
    7998:	12800019 	mov	w25, #0xffffffff            	// #-1
/home/zliu/ubuntu-optee-rpi3/RPi3_OPTEE_3.1/optee_os/lib/libmpa/mpa_primetest.c:273
    799c:	913de000 	add	x0, x0, #0xf78
    79a0:	f9003ba0 	str	x0, [x29, #112]
    79a4:	9131a000 	add	x0, x0, #0xc68
    79a8:	f90037a0 	str	x0, [x29, #104]
/home/zliu/ubuntu-optee-rpi3/RPi3_OPTEE_3.1/optee_os/lib/libmpa/mpa_primetest.c:234
    79ac:	b9408fa1 	ldr	w1, [x29, #140]
    79b0:	3100073f 	cmn	w25, #0x1
    79b4:	1a9f17e0 	cset	w0, eq  // eq = none
    79b8:	6b16003f 	cmp	w1, w22
    79bc:	1a9fd7e1 	cset	w1, gt
    79c0:	6a01001f 	tst	w0, w1
    79c4:	54ffec61 	b.ne	7750 <mpa_is_prob_prime+0xdc>  // b.any
/home/zliu/ubuntu-optee-rpi3/RPi3_OPTEE_3.1/optee_os/lib/libmpa/mpa_primetest.c:281
    79c8:	b9408ba1 	ldr	w1, [x29, #136]
    79cc:	6a00003f 	tst	w1, w0
/home/zliu/ubuntu-optee-rpi3/RPi3_OPTEE_3.1/optee_os/lib/libmpa/mpa_primetest.c:283
    79d0:	aa1303e1 	mov	x1, x19
/home/zliu/ubuntu-optee-rpi3/RPi3_OPTEE_3.1/optee_os/lib/libmpa/mpa_primetest.c:281
    79d4:	1a9f0739 	csinc	w25, w25, wzr, eq  // eq = none
/home/zliu/ubuntu-optee-rpi3/RPi3_OPTEE_3.1/optee_os/lib/libmpa/mpa_primetest.c:283
    79d8:	aa1c03e0 	mov	x0, x28
    79dc:	940004f0 	bl	8d9c <mpa_free_static_temp_var>
/home/zliu/ubuntu-optee-rpi3/RPi3_OPTEE_3.1/optee_os/lib/libmpa/mpa_primetest.c:284
    79e0:	aa1303e1 	mov	x1, x19
    79e4:	aa1b03e0 	mov	x0, x27
    79e8:	940004ed 	bl	8d9c <mpa_free_static_temp_var>
/home/zliu/ubuntu-optee-rpi3/RPi3_OPTEE_3.1/optee_os/lib/libmpa/mpa_primetest.c:285
    79ec:	aa1303e1 	mov	x1, x19
    79f0:	aa1a03e0 	mov	x0, x26
    79f4:	940004ea 	bl	8d9c <mpa_free_static_temp_var>
/home/zliu/ubuntu-optee-rpi3/RPi3_OPTEE_3.1/optee_os/lib/libmpa/mpa_primetest.c:286
    79f8:	f9403fa0 	ldr	x0, [x29, #120]
    79fc:	aa1303e1 	mov	x1, x19
    7a00:	940004e7 	bl	8d9c <mpa_free_static_temp_var>
/home/zliu/ubuntu-optee-rpi3/RPi3_OPTEE_3.1/optee_os/lib/libmpa/mpa_primetest.c:288
    7a04:	f94043a0 	ldr	x0, [x29, #128]
    7a08:	aa1303e1 	mov	x1, x19
    7a0c:	940004e4 	bl	8d9c <mpa_free_static_temp_var>
/home/zliu/ubuntu-optee-rpi3/RPi3_OPTEE_3.1/optee_os/lib/libmpa/mpa_primetest.c:289
    7a10:	aa1303e1 	mov	x1, x19
    7a14:	aa1503e0 	mov	x0, x21
    7a18:	940004e1 	bl	8d9c <mpa_free_static_temp_var>
    7a1c:	17ffff28 	b	76bc <mpa_is_prob_prime+0x48>

0000000000007a20 <mpa_set_S32>:
mpa_set_S32():
/home/zliu/ubuntu-optee-rpi3/RPi3_OPTEE_3.1/optee_os/lib/libmpa/mpa_conv.c:38
    7a20:	7100003f 	cmp	w1, #0x0
    7a24:	54000100 	b.eq	7a44 <mpa_set_S32+0x24>  // b.none
/home/zliu/ubuntu-optee-rpi3/RPi3_OPTEE_3.1/optee_os/lib/libmpa/mpa_conv.c:39
    7a28:	52800022 	mov	w2, #0x1                   	// #1
    7a2c:	5a82a442 	cneg	w2, w2, lt  // lt = tstop
    7a30:	b9000402 	str	w2, [x0, #4]
/home/zliu/ubuntu-optee-rpi3/RPi3_OPTEE_3.1/optee_os/lib/libmpa/mpa_conv.c:42
    7a34:	7100003f 	cmp	w1, #0x0
    7a38:	5a81a421 	cneg	w1, w1, lt  // lt = tstop
    7a3c:	b9000801 	str	w1, [x0, #8]
    7a40:	d65f03c0 	ret
/home/zliu/ubuntu-optee-rpi3/RPi3_OPTEE_3.1/optee_os/lib/libmpa/mpa_conv.c:41
    7a44:	b900041f 	str	wzr, [x0, #4]
    7a48:	17fffffb 	b	7a34 <mpa_set_S32+0x14>

0000000000007a4c <mpa_get_S32>:
mpa_get_S32():
/home/zliu/ubuntu-optee-rpi3/RPi3_OPTEE_3.1/optee_os/lib/libmpa/mpa_conv.c:58
    7a4c:	b9400422 	ldr	w2, [x1, #4]
/home/zliu/ubuntu-optee-rpi3/RPi3_OPTEE_3.1/optee_os/lib/libmpa/mpa_conv.c:56
    7a50:	aa0003e4 	mov	x4, x0
/home/zliu/ubuntu-optee-rpi3/RPi3_OPTEE_3.1/optee_os/lib/libmpa/mpa_conv.c:58
    7a54:	7100005f 	cmp	w2, #0x0
    7a58:	5a82a440 	cneg	w0, w2, lt  // lt = tstop
    7a5c:	7100041f 	cmp	w0, #0x1
    7a60:	540002cc 	b.gt	7ab8 <mpa_get_S32+0x6c>
/home/zliu/ubuntu-optee-rpi3/RPi3_OPTEE_3.1/optee_os/lib/libmpa/mpa_conv.c:60
    7a64:	b9400823 	ldr	w3, [x1, #8]
    7a68:	52b00000 	mov	w0, #0x80000000            	// #-2147483648
    7a6c:	7100005f 	cmp	w2, #0x0
    7a70:	7a40b060 	ccmp	w3, w0, #0x0, lt  // lt = tstop
/home/zliu/ubuntu-optee-rpi3/RPi3_OPTEE_3.1/optee_os/lib/libmpa/mpa_conv.c:59
    7a74:	12800000 	mov	w0, #0xffffffff            	// #-1
/home/zliu/ubuntu-optee-rpi3/RPi3_OPTEE_3.1/optee_os/lib/libmpa/mpa_conv.c:60
    7a78:	54000088 	b.hi	7a88 <mpa_get_S32+0x3c>  // b.pmore
/home/zliu/ubuntu-optee-rpi3/RPi3_OPTEE_3.1/optee_os/lib/libmpa/mpa_conv.c:62
    7a7c:	36f80083 	tbz	w3, #31, 7a8c <mpa_get_S32+0x40>
/home/zliu/ubuntu-optee-rpi3/RPi3_OPTEE_3.1/optee_os/lib/libmpa/mpa_conv.c:65 (discriminator 1)
    7a80:	2a0003e1 	mov	w1, w0
/home/zliu/ubuntu-optee-rpi3/RPi3_OPTEE_3.1/optee_os/lib/libmpa/mpa_conv.c:62 (discriminator 1)
    7a84:	37f800c2 	tbnz	w2, #31, 7a9c <mpa_get_S32+0x50>
/home/zliu/ubuntu-optee-rpi3/RPi3_OPTEE_3.1/optee_os/lib/libmpa/mpa_conv.c:71
    7a88:	d65f03c0 	ret
/home/zliu/ubuntu-optee-rpi3/RPi3_OPTEE_3.1/optee_os/lib/libmpa/mpa_conv.c:65
    7a8c:	34000102 	cbz	w2, 7aac <mpa_get_S32+0x60>
/home/zliu/ubuntu-optee-rpi3/RPi3_OPTEE_3.1/optee_os/lib/libmpa/mpa_conv.c:65 (discriminator 4)
    7a90:	12800001 	mov	w1, #0xffffffff            	// #-1
    7a94:	6b01005f 	cmp	w2, w1
    7a98:	5a81d421 	cneg	w1, w1, gt
/home/zliu/ubuntu-optee-rpi3/RPi3_OPTEE_3.1/optee_os/lib/libmpa/mpa_conv.c:65 (discriminator 8)
    7a9c:	1b037c21 	mul	w1, w1, w3
/home/zliu/ubuntu-optee-rpi3/RPi3_OPTEE_3.1/optee_os/lib/libmpa/mpa_conv.c:66 (discriminator 8)
    7aa0:	52800000 	mov	w0, #0x0                   	// #0
/home/zliu/ubuntu-optee-rpi3/RPi3_OPTEE_3.1/optee_os/lib/libmpa/mpa_conv.c:65 (discriminator 8)
    7aa4:	b9000081 	str	w1, [x4]
/home/zliu/ubuntu-optee-rpi3/RPi3_OPTEE_3.1/optee_os/lib/libmpa/mpa_conv.c:66 (discriminator 8)
    7aa8:	d65f03c0 	ret
/home/zliu/ubuntu-optee-rpi3/RPi3_OPTEE_3.1/optee_os/lib/libmpa/mpa_conv.c:65
    7aac:	52800003 	mov	w3, #0x0                   	// #0
    7ab0:	52800021 	mov	w1, #0x1                   	// #1
    7ab4:	17fffffa 	b	7a9c <mpa_get_S32+0x50>
/home/zliu/ubuntu-optee-rpi3/RPi3_OPTEE_3.1/optee_os/lib/libmpa/mpa_conv.c:59
    7ab8:	12800000 	mov	w0, #0xffffffff            	// #-1
    7abc:	17fffff3 	b	7a88 <mpa_get_S32+0x3c>

0000000000007ac0 <mpa_set_word>:
mpa_set_word():
/home/zliu/ubuntu-optee-rpi3/RPi3_OPTEE_3.1/optee_os/lib/libmpa/mpa_conv.c:81
    7ac0:	7100003f 	cmp	w1, #0x0
/home/zliu/ubuntu-optee-rpi3/RPi3_OPTEE_3.1/optee_os/lib/libmpa/mpa_conv.c:80
    7ac4:	b9000801 	str	w1, [x0, #8]
/home/zliu/ubuntu-optee-rpi3/RPi3_OPTEE_3.1/optee_os/lib/libmpa/mpa_conv.c:81
    7ac8:	1a9f07e1 	cset	w1, ne  // ne = any
    7acc:	b9000401 	str	w1, [x0, #4]
    7ad0:	d65f03c0 	ret

0000000000007ad4 <mpa_get_word>:
mpa_get_word():
/home/zliu/ubuntu-optee-rpi3/RPi3_OPTEE_3.1/optee_os/lib/libmpa/mpa_conv.c:92
    7ad4:	b9400401 	ldr	w1, [x0, #4]
    7ad8:	34000061 	cbz	w1, 7ae4 <mpa_get_word+0x10>
/home/zliu/ubuntu-optee-rpi3/RPi3_OPTEE_3.1/optee_os/lib/libmpa/mpa_conv.c:92 (discriminator 1)
    7adc:	b9400800 	ldr	w0, [x0, #8]
    7ae0:	d65f03c0 	ret
/home/zliu/ubuntu-optee-rpi3/RPi3_OPTEE_3.1/optee_os/lib/libmpa/mpa_conv.c:92
    7ae4:	52800000 	mov	w0, #0x0                   	// #0
/home/zliu/ubuntu-optee-rpi3/RPi3_OPTEE_3.1/optee_os/lib/libmpa/mpa_conv.c:93
    7ae8:	d65f03c0 	ret

0000000000007aec <__mpa_div_dword>:
__mpa_div_dword():
/home/zliu/ubuntu-optee-rpi3/RPi3_OPTEE_3.1/optee_os/lib/libmpa/mpa_div.c:82
    7aec:	2a0003e0 	mov	w0, w0
__mpa_soft_div():
/home/zliu/ubuntu-optee-rpi3/RPi3_OPTEE_3.1/optee_os/lib/libmpa/mpa_div.c:47
    7af0:	2a0203e2 	mov	w2, w2
__mpa_div_dword():
/home/zliu/ubuntu-optee-rpi3/RPi3_OPTEE_3.1/optee_os/lib/libmpa/mpa_div.c:82
    7af4:	8b018001 	add	x1, x0, x1, lsl #32
__mpa_soft_div():
/home/zliu/ubuntu-optee-rpi3/RPi3_OPTEE_3.1/optee_os/lib/libmpa/mpa_div.c:46
    7af8:	d2800024 	mov	x4, #0x1                   	// #1
/home/zliu/ubuntu-optee-rpi3/RPi3_OPTEE_3.1/optee_os/lib/libmpa/mpa_div.c:49
    7afc:	b6f800c2 	tbz	x2, #63, 7b14 <__mpa_div_dword+0x28>
    7b00:	d2800000 	mov	x0, #0x0                   	// #0
/home/zliu/ubuntu-optee-rpi3/RPi3_OPTEE_3.1/optee_os/lib/libmpa/mpa_div.c:54
    7b04:	b50000e4 	cbnz	x4, 7b20 <__mpa_div_dword+0x34>
/home/zliu/ubuntu-optee-rpi3/RPi3_OPTEE_3.1/optee_os/lib/libmpa/mpa_div.c:63
    7b08:	b4000043 	cbz	x3, 7b10 <__mpa_div_dword+0x24>
/home/zliu/ubuntu-optee-rpi3/RPi3_OPTEE_3.1/optee_os/lib/libmpa/mpa_div.c:64
    7b0c:	b9000061 	str	w1, [x3]
__mpa_div_dword():
/home/zliu/ubuntu-optee-rpi3/RPi3_OPTEE_3.1/optee_os/lib/libmpa/mpa_div.c:90
    7b10:	d65f03c0 	ret
__mpa_soft_div():
/home/zliu/ubuntu-optee-rpi3/RPi3_OPTEE_3.1/optee_os/lib/libmpa/mpa_div.c:50
    7b14:	d37ff842 	lsl	x2, x2, #1
/home/zliu/ubuntu-optee-rpi3/RPi3_OPTEE_3.1/optee_os/lib/libmpa/mpa_div.c:51
    7b18:	d37ff884 	lsl	x4, x4, #1
    7b1c:	17fffff8 	b	7afc <__mpa_div_dword+0x10>
/home/zliu/ubuntu-optee-rpi3/RPi3_OPTEE_3.1/optee_os/lib/libmpa/mpa_div.c:55
    7b20:	eb02003f 	cmp	x1, x2
    7b24:	54000063 	b.cc	7b30 <__mpa_div_dword+0x44>  // b.lo, b.ul, b.last
/home/zliu/ubuntu-optee-rpi3/RPi3_OPTEE_3.1/optee_os/lib/libmpa/mpa_div.c:56
    7b28:	cb020021 	sub	x1, x1, x2
/home/zliu/ubuntu-optee-rpi3/RPi3_OPTEE_3.1/optee_os/lib/libmpa/mpa_div.c:57
    7b2c:	8b040000 	add	x0, x0, x4
/home/zliu/ubuntu-optee-rpi3/RPi3_OPTEE_3.1/optee_os/lib/libmpa/mpa_div.c:59
    7b30:	d341fc42 	lsr	x2, x2, #1
/home/zliu/ubuntu-optee-rpi3/RPi3_OPTEE_3.1/optee_os/lib/libmpa/mpa_div.c:60
    7b34:	d341fc84 	lsr	x4, x4, #1
    7b38:	17fffff3 	b	7b04 <__mpa_div_dword+0x18>

0000000000007b3c <__mpa_div_q_r_internal_word>:
__mpa_div_q_r_internal_word():
/home/zliu/ubuntu-optee-rpi3/RPi3_OPTEE_3.1/optee_os/lib/libmpa/mpa_div.c:270
    7b3c:	a9ba7bfd 	stp	x29, x30, [sp, #-96]!
    7b40:	910003fd 	mov	x29, sp
    7b44:	a9025bf5 	stp	x21, x22, [sp, #32]
    7b48:	aa0103f5 	mov	x21, x1
/home/zliu/ubuntu-optee-rpi3/RPi3_OPTEE_3.1/optee_os/lib/libmpa/mpa_div.c:278
    7b4c:	b9400441 	ldr	w1, [x2, #4]
/home/zliu/ubuntu-optee-rpi3/RPi3_OPTEE_3.1/optee_os/lib/libmpa/mpa_div.c:270
    7b50:	aa0203f6 	mov	x22, x2
    7b54:	a90153f3 	stp	x19, x20, [sp, #16]
    7b58:	2a0303f4 	mov	w20, w3
/home/zliu/ubuntu-optee-rpi3/RPi3_OPTEE_3.1/optee_os/lib/libmpa/mpa_div.c:278
    7b5c:	7100003f 	cmp	w1, #0x0
/home/zliu/ubuntu-optee-rpi3/RPi3_OPTEE_3.1/optee_os/lib/libmpa/mpa_div.c:270
    7b60:	a90363f7 	stp	x23, x24, [sp, #48]
    7b64:	a9046bf9 	stp	x25, x26, [sp, #64]
/home/zliu/ubuntu-optee-rpi3/RPi3_OPTEE_3.1/optee_os/lib/libmpa/mpa_div.c:278
    7b68:	5a81a421 	cneg	w1, w1, lt  // lt = tstop
    7b6c:	7100043f 	cmp	w1, #0x1
    7b70:	540001e1 	b.ne	7bac <__mpa_div_q_r_internal_word+0x70>  // b.any
/home/zliu/ubuntu-optee-rpi3/RPi3_OPTEE_3.1/optee_os/lib/libmpa/mpa_div.c:279
    7b74:	b9400841 	ldr	w1, [x2, #8]
    7b78:	1ac30821 	udiv	w1, w1, w3
    7b7c:	97ffffd1 	bl	7ac0 <mpa_set_word>
/home/zliu/ubuntu-optee-rpi3/RPi3_OPTEE_3.1/optee_os/lib/libmpa/mpa_div.c:280
    7b80:	b9400ac0 	ldr	w0, [x22, #8]
    7b84:	1ad40801 	udiv	w1, w0, w20
    7b88:	1b148021 	msub	w1, w1, w20, w0
    7b8c:	aa1503e0 	mov	x0, x21
    7b90:	97ffffcc 	bl	7ac0 <mpa_set_word>
/home/zliu/ubuntu-optee-rpi3/RPi3_OPTEE_3.1/optee_os/lib/libmpa/mpa_div.c:302
    7b94:	a94153f3 	ldp	x19, x20, [sp, #16]
    7b98:	a9425bf5 	ldp	x21, x22, [sp, #32]
    7b9c:	a94363f7 	ldp	x23, x24, [sp, #48]
    7ba0:	a9446bf9 	ldp	x25, x26, [sp, #64]
    7ba4:	a8c67bfd 	ldp	x29, x30, [sp], #96
    7ba8:	d65f03c0 	ret
/home/zliu/ubuntu-optee-rpi3/RPi3_OPTEE_3.1/optee_os/lib/libmpa/mpa_div.c:283
    7bac:	aa0203e1 	mov	x1, x2
    7bb0:	aa0003f3 	mov	x19, x0
    7bb4:	aa1503e0 	mov	x0, x21
    7bb8:	97fffd63 	bl	7144 <mpa_copy>
/home/zliu/ubuntu-optee-rpi3/RPi3_OPTEE_3.1/optee_os/lib/libmpa/mpa_div.c:284
    7bbc:	52800001 	mov	w1, #0x0                   	// #0
    7bc0:	aa1303e0 	mov	x0, x19
    7bc4:	97ffffbf 	bl	7ac0 <mpa_set_word>
/home/zliu/ubuntu-optee-rpi3/RPi3_OPTEE_3.1/optee_os/lib/libmpa/mpa_div.c:290
    7bc8:	910173ba 	add	x26, x29, #0x5c
/home/zliu/ubuntu-optee-rpi3/RPi3_OPTEE_3.1/optee_os/lib/libmpa/mpa_div.c:286
    7bcc:	b94006a1 	ldr	w1, [x21, #4]
    7bd0:	7100003f 	cmp	w1, #0x0
    7bd4:	5a81a421 	cneg	w1, w1, lt  // lt = tstop
    7bd8:	51000422 	sub	w2, w1, #0x1
/home/zliu/ubuntu-optee-rpi3/RPi3_OPTEE_3.1/optee_os/lib/libmpa/mpa_div.c:288
    7bdc:	93407c42 	sxtw	x2, w2
    7be0:	8b020aa0 	add	x0, x21, x2, lsl #2
    7be4:	91000843 	add	x3, x2, #0x2
    7be8:	d37ef477 	lsl	x23, x3, #2
    7bec:	cb21c063 	sub	x3, x3, w1, sxtw
    7bf0:	51000821 	sub	w1, w1, #0x2
    7bf4:	d37ef478 	lsl	x24, x3, #2
    7bf8:	937e7c21 	sbfiz	x1, x1, #2, #32
    7bfc:	b9400800 	ldr	w0, [x0, #8]
    7c00:	cb020821 	sub	x1, x1, x2, lsl #2
    7c04:	8b0102b9 	add	x25, x21, x1
/home/zliu/ubuntu-optee-rpi3/RPi3_OPTEE_3.1/optee_os/lib/libmpa/mpa_div.c:287
    7c08:	52800001 	mov	w1, #0x0                   	// #0
/home/zliu/ubuntu-optee-rpi3/RPi3_OPTEE_3.1/optee_os/lib/libmpa/mpa_div.c:289
    7c0c:	eb1802ff 	cmp	x23, x24
    7c10:	54000281 	b.ne	7c60 <__mpa_div_q_r_internal_word+0x124>  // b.any
/home/zliu/ubuntu-optee-rpi3/RPi3_OPTEE_3.1/optee_os/lib/libmpa/mpa_div.c:297
    7c14:	b9400aa0 	ldr	w0, [x21, #8]
    7c18:	7100001f 	cmp	w0, #0x0
    7c1c:	1a9f07e0 	cset	w0, ne  // ne = any
    7c20:	b90006a0 	str	w0, [x21, #4]
/home/zliu/ubuntu-optee-rpi3/RPi3_OPTEE_3.1/optee_os/lib/libmpa/mpa_div.c:298
    7c24:	b94006c0 	ldr	w0, [x22, #4]
    7c28:	7100001f 	cmp	w0, #0x0
    7c2c:	5a80a400 	cneg	w0, w0, lt  // lt = tstop
    7c30:	51000400 	sub	w0, w0, #0x1
    7c34:	93407c00 	sxtw	x0, w0
    7c38:	2a0003e1 	mov	w1, w0
/home/zliu/ubuntu-optee-rpi3/RPi3_OPTEE_3.1/optee_os/lib/libmpa/mpa_div.c:299
    7c3c:	3100041f 	cmn	w0, #0x1
    7c40:	540000a0 	b.eq	7c54 <__mpa_div_q_r_internal_word+0x118>  // b.none
    7c44:	d1000400 	sub	x0, x0, #0x1
/home/zliu/ubuntu-optee-rpi3/RPi3_OPTEE_3.1/optee_os/lib/libmpa/mpa_div.c:299 (discriminator 1)
    7c48:	8b000a62 	add	x2, x19, x0, lsl #2
    7c4c:	b9400c42 	ldr	w2, [x2, #12]
    7c50:	34ffff42 	cbz	w2, 7c38 <__mpa_div_q_r_internal_word+0xfc>
/home/zliu/ubuntu-optee-rpi3/RPi3_OPTEE_3.1/optee_os/lib/libmpa/mpa_div.c:301
    7c54:	11000420 	add	w0, w1, #0x1
    7c58:	b9000660 	str	w0, [x19, #4]
    7c5c:	17ffffce 	b	7b94 <__mpa_div_q_r_internal_word+0x58>
/home/zliu/ubuntu-optee-rpi3/RPi3_OPTEE_3.1/optee_os/lib/libmpa/mpa_div.c:290
    7c60:	aa1a03e3 	mov	x3, x26
    7c64:	2a1403e2 	mov	w2, w20
    7c68:	97ffffa1 	bl	7aec <__mpa_div_dword>
/home/zliu/ubuntu-optee-rpi3/RPi3_OPTEE_3.1/optee_os/lib/libmpa/mpa_div.c:291
    7c6c:	b8376a60 	str	w0, [x19, x23]
/home/zliu/ubuntu-optee-rpi3/RPi3_OPTEE_3.1/optee_os/lib/libmpa/mpa_div.c:292
    7c70:	b9405fa1 	ldr	w1, [x29, #92]
    7c74:	b8376aa1 	str	w1, [x21, x23]
/home/zliu/ubuntu-optee-rpi3/RPi3_OPTEE_3.1/optee_os/lib/libmpa/mpa_div.c:294
    7c78:	b8776b20 	ldr	w0, [x25, x23]
    7c7c:	d10012f7 	sub	x23, x23, #0x4
    7c80:	17ffffe3 	b	7c0c <__mpa_div_q_r_internal_word+0xd0>

0000000000007c84 <__mpa_div_q_r>:
__mpa_div_q_r():
/home/zliu/ubuntu-optee-rpi3/RPi3_OPTEE_3.1/optee_os/lib/libmpa/mpa_div.c:325
    7c84:	a9b07bfd 	stp	x29, x30, [sp, #-256]!
    7c88:	910003fd 	mov	x29, sp
    7c8c:	a90363f7 	stp	x23, x24, [sp, #48]
    7c90:	aa0103f8 	mov	x24, x1
/home/zliu/ubuntu-optee-rpi3/RPi3_OPTEE_3.1/optee_os/lib/libmpa/mpa_div.c:329
    7c94:	b9400441 	ldr	w1, [x2, #4]
/home/zliu/ubuntu-optee-rpi3/RPi3_OPTEE_3.1/optee_os/lib/libmpa/mpa_div.c:325
    7c98:	a90153f3 	stp	x19, x20, [sp, #16]
    7c9c:	a9025bf5 	stp	x21, x22, [sp, #32]
    7ca0:	a9046bf9 	stp	x25, x26, [sp, #64]
    7ca4:	a90573fb 	stp	x27, x28, [sp, #80]
/home/zliu/ubuntu-optee-rpi3/RPi3_OPTEE_3.1/optee_os/lib/libmpa/mpa_div.c:329
    7ca8:	35000181 	cbnz	w1, 7cd8 <__mpa_div_q_r+0x54>
/home/zliu/ubuntu-optee-rpi3/RPi3_OPTEE_3.1/optee_os/lib/libmpa/mpa_div.c:345
    7cac:	97ffff85 	bl	7ac0 <mpa_set_word>
/home/zliu/ubuntu-optee-rpi3/RPi3_OPTEE_3.1/optee_os/lib/libmpa/mpa_div.c:346
    7cb0:	52800001 	mov	w1, #0x0                   	// #0
    7cb4:	aa1803e0 	mov	x0, x24
    7cb8:	97ffff82 	bl	7ac0 <mpa_set_word>
/home/zliu/ubuntu-optee-rpi3/RPi3_OPTEE_3.1/optee_os/lib/libmpa/mpa_div.c:361
    7cbc:	a94153f3 	ldp	x19, x20, [sp, #16]
    7cc0:	a9425bf5 	ldp	x21, x22, [sp, #32]
    7cc4:	a94363f7 	ldp	x23, x24, [sp, #48]
    7cc8:	a9446bf9 	ldp	x25, x26, [sp, #64]
    7ccc:	a94573fb 	ldp	x27, x28, [sp, #80]
    7cd0:	a8d07bfd 	ldp	x29, x30, [sp], #256
    7cd4:	d65f03c0 	ret
    7cd8:	aa0003f3 	mov	x19, x0
/home/zliu/ubuntu-optee-rpi3/RPi3_OPTEE_3.1/optee_os/lib/libmpa/mpa_div.c:334
    7cdc:	b9400460 	ldr	w0, [x3, #4]
    7ce0:	aa0303f4 	mov	x20, x3
    7ce4:	34fffec0 	cbz	w0, 7cbc <__mpa_div_q_r+0x38>
    7ce8:	aa0203fa 	mov	x26, x2
    7cec:	aa0403f7 	mov	x23, x4
/home/zliu/ubuntu-optee-rpi3/RPi3_OPTEE_3.1/optee_os/lib/libmpa/mpa_div.c:341
    7cf0:	36f82ee1 	tbz	w1, #31, 82cc <__mpa_div_q_r+0x648>
/home/zliu/ubuntu-optee-rpi3/RPi3_OPTEE_3.1/optee_os/lib/libmpa/mpa_div.c:342
    7cf4:	7100001f 	cmp	w0, #0x0
    7cf8:	12800001 	mov	w1, #0xffffffff            	// #-1
    7cfc:	5a81a420 	cneg	w0, w1, lt  // lt = tstop
    7d00:	14000176 	b	82d8 <__mpa_div_q_r+0x654>
/home/zliu/ubuntu-optee-rpi3/RPi3_OPTEE_3.1/optee_os/lib/libmpa/mpa_div.c:349
    7d04:	54002d6d 	b.le	82b0 <__mpa_div_q_r+0x62c>
/home/zliu/ubuntu-optee-rpi3/RPi3_OPTEE_3.1/optee_os/lib/libmpa/mpa_div.c:350
    7d08:	b9400680 	ldr	w0, [x20, #4]
    7d0c:	7100001f 	cmp	w0, #0x0
    7d10:	5a80a400 	cneg	w0, w0, lt  // lt = tstop
    7d14:	7100041f 	cmp	w0, #0x1
    7d18:	54002c0d 	b.le	8298 <__mpa_div_q_r+0x614>
__mpa_div_q_r_internal():
/home/zliu/ubuntu-optee-rpi3/RPi3_OPTEE_3.1/optee_os/lib/libmpa/mpa_div.c:126
    7d1c:	9103a3a0 	add	x0, x29, #0xe8
    7d20:	aa1703e1 	mov	x1, x23
    7d24:	f9005fa0 	str	x0, [x29, #184]
    7d28:	94000419 	bl	8d8c <mpa_alloc_static_temp_var>
/home/zliu/ubuntu-optee-rpi3/RPi3_OPTEE_3.1/optee_os/lib/libmpa/mpa_div.c:127
    7d2c:	9103c3a0 	add	x0, x29, #0xf0
    7d30:	aa1703e1 	mov	x1, x23
    7d34:	f9005ba0 	str	x0, [x29, #176]
    7d38:	94000415 	bl	8d8c <mpa_alloc_static_temp_var>
/home/zliu/ubuntu-optee-rpi3/RPi3_OPTEE_3.1/optee_os/lib/libmpa/mpa_div.c:128
    7d3c:	f9407ba0 	ldr	x0, [x29, #240]
    7d40:	aa1403e1 	mov	x1, x20
    7d44:	97fffd00 	bl	7144 <mpa_copy>
/home/zliu/ubuntu-optee-rpi3/RPi3_OPTEE_3.1/optee_os/lib/libmpa/mpa_div.c:135
    7d48:	9103e3a0 	add	x0, x29, #0xf8
    7d4c:	aa1703e1 	mov	x1, x23
    7d50:	f90057a0 	str	x0, [x29, #168]
    7d54:	9400040e 	bl	8d8c <mpa_alloc_static_temp_var>
/home/zliu/ubuntu-optee-rpi3/RPi3_OPTEE_3.1/optee_os/lib/libmpa/mpa_div.c:136
    7d58:	f9407fa0 	ldr	x0, [x29, #248]
    7d5c:	aa1a03e1 	mov	x1, x26
    7d60:	97fffcf9 	bl	7144 <mpa_copy>
/home/zliu/ubuntu-optee-rpi3/RPi3_OPTEE_3.1/optee_os/lib/libmpa/mpa_div.c:137
    7d64:	f9407fa1 	ldr	x1, [x29, #248]
    7d68:	b9400420 	ldr	w0, [x1, #4]
    7d6c:	36f80060 	tbz	w0, #31, 7d78 <__mpa_div_q_r+0xf4>
    7d70:	4b0003e0 	neg	w0, w0
    7d74:	b9000420 	str	w0, [x1, #4]
/home/zliu/ubuntu-optee-rpi3/RPi3_OPTEE_3.1/optee_os/lib/libmpa/mpa_div.c:138
    7d78:	f9407ba2 	ldr	x2, [x29, #240]
    7d7c:	b9400440 	ldr	w0, [x2, #4]
    7d80:	36f80060 	tbz	w0, #31, 7d8c <__mpa_div_q_r+0x108>
    7d84:	4b0003e0 	neg	w0, w0
    7d88:	b9000440 	str	w0, [x2, #4]
/home/zliu/ubuntu-optee-rpi3/RPi3_OPTEE_3.1/optee_os/lib/libmpa/mpa_div.c:144
    7d8c:	b9400440 	ldr	w0, [x2, #4]
/home/zliu/ubuntu-optee-rpi3/RPi3_OPTEE_3.1/optee_os/lib/libmpa/mpa_div.c:143
    7d90:	52800019 	mov	w25, #0x0                   	// #0
/home/zliu/ubuntu-optee-rpi3/RPi3_OPTEE_3.1/optee_os/lib/libmpa/mpa_div.c:144
    7d94:	7100001f 	cmp	w0, #0x0
    7d98:	5a80a400 	cneg	w0, w0, lt  // lt = tstop
    7d9c:	51000400 	sub	w0, w0, #0x1
    7da0:	8b20c840 	add	x0, x2, w0, sxtw #2
    7da4:	52800002 	mov	w2, #0x0                   	// #0
    7da8:	b9400800 	ldr	w0, [x0, #8]
    7dac:	b900d7a0 	str	w0, [x29, #212]
/home/zliu/ubuntu-optee-rpi3/RPi3_OPTEE_3.1/optee_os/lib/libmpa/mpa_div.c:145
    7db0:	36f80fc0 	tbz	w0, #31, 7fa8 <__mpa_div_q_r+0x324>
    7db4:	34000042 	cbz	w2, 7dbc <__mpa_div_q_r+0x138>
    7db8:	b900d7a0 	str	w0, [x29, #212]
/home/zliu/ubuntu-optee-rpi3/RPi3_OPTEE_3.1/optee_os/lib/libmpa/mpa_div.c:149
    7dbc:	34000119 	cbz	w25, 7ddc <__mpa_div_q_r+0x158>
/home/zliu/ubuntu-optee-rpi3/RPi3_OPTEE_3.1/optee_os/lib/libmpa/mpa_div.c:150
    7dc0:	aa0103e0 	mov	x0, x1
    7dc4:	2a1903e2 	mov	w2, w25
    7dc8:	94000585 	bl	93dc <mpa_shift_left>
/home/zliu/ubuntu-optee-rpi3/RPi3_OPTEE_3.1/optee_os/lib/libmpa/mpa_div.c:151
    7dcc:	f9407ba1 	ldr	x1, [x29, #240]
    7dd0:	2a1903e2 	mov	w2, w25
    7dd4:	aa0103e0 	mov	x0, x1
    7dd8:	94000581 	bl	93dc <mpa_shift_left>
/home/zliu/ubuntu-optee-rpi3/RPi3_OPTEE_3.1/optee_os/lib/libmpa/mpa_div.c:154
    7ddc:	f9407fa0 	ldr	x0, [x29, #248]
    7de0:	b9400416 	ldr	w22, [x0, #4]
/home/zliu/ubuntu-optee-rpi3/RPi3_OPTEE_3.1/optee_os/lib/libmpa/mpa_div.c:155
    7de4:	f9407ba0 	ldr	x0, [x29, #240]
    7de8:	b9400400 	ldr	w0, [x0, #4]
    7dec:	b900cfa0 	str	w0, [x29, #204]
/home/zliu/ubuntu-optee-rpi3/RPi3_OPTEE_3.1/optee_os/lib/libmpa/mpa_div.c:156
    7df0:	2a0003e0 	mov	w0, w0
    7df4:	4b0002c0 	sub	w0, w22, w0
    7df8:	b900cba0 	str	w0, [x29, #200]
/home/zliu/ubuntu-optee-rpi3/RPi3_OPTEE_3.1/optee_os/lib/libmpa/mpa_div.c:158
    7dfc:	aa1303e0 	mov	x0, x19
    7e00:	97fffcc5 	bl	7114 <mpa_wipe>
/home/zliu/ubuntu-optee-rpi3/RPi3_OPTEE_3.1/optee_os/lib/libmpa/mpa_div.c:164
    7e04:	b940cba1 	ldr	w1, [x29, #200]
    7e08:	f9407ba0 	ldr	x0, [x29, #240]
    7e0c:	94000535 	bl	92e0 <__mpa_shift_words_left>
/home/zliu/ubuntu-optee-rpi3/RPi3_OPTEE_3.1/optee_os/lib/libmpa/mpa_div.c:170
    7e10:	a94f07a2 	ldp	x2, x1, [x29, #240]
/home/zliu/ubuntu-optee-rpi3/RPi3_OPTEE_3.1/optee_os/lib/libmpa/mpa_div.c:167
    7e14:	52800025 	mov	w5, #0x1                   	// #1
/home/zliu/ubuntu-optee-rpi3/RPi3_OPTEE_3.1/optee_os/lib/libmpa/mpa_div.c:166
    7e18:	b9400444 	ldr	w4, [x2, #4]
    7e1c:	7100009f 	cmp	w4, #0x0
    7e20:	5a84a484 	cneg	w4, w4, lt  // lt = tstop
    7e24:	51000483 	sub	w3, w4, #0x1
    7e28:	2a0403e0 	mov	w0, w4
    7e2c:	93407c63 	sxtw	x3, w3
    7e30:	91000863 	add	x3, x3, #0x2
    7e34:	d37ef463 	lsl	x3, x3, #2
/home/zliu/ubuntu-optee-rpi3/RPi3_OPTEE_3.1/optee_os/lib/libmpa/mpa_div.c:168
    7e38:	7100001f 	cmp	w0, #0x0
    7e3c:	1a9fd7e6 	cset	w6, gt
    7e40:	6a0500df 	tst	w6, w5
    7e44:	54000ba1 	b.ne	7fb8 <__mpa_div_q_r+0x334>  // b.any
/home/zliu/ubuntu-optee-rpi3/RPi3_OPTEE_3.1/optee_os/lib/libmpa/mpa_div.c:172
    7e48:	350002a5 	cbnz	w5, 7e9c <__mpa_div_q_r+0x218>
    7e4c:	b9400423 	ldr	w3, [x1, #4]
    7e50:	7100007f 	cmp	w3, #0x0
    7e54:	5a83a463 	cneg	w3, w3, lt  // lt = tstop
    7e58:	6b03001f 	cmp	w0, w3
    7e5c:	5400250a 	b.ge	82fc <__mpa_div_q_r+0x678>  // b.tcont
    7e60:	8b20c823 	add	x3, x1, w0, sxtw #2
    7e64:	6b00009f 	cmp	w4, w0
    7e68:	b9400863 	ldr	w3, [x3, #8]
    7e6c:	5400006d 	b.le	7e78 <__mpa_div_q_r+0x1f4>
    7e70:	8b20c840 	add	x0, x2, w0, sxtw #2
    7e74:	b9400805 	ldr	w5, [x0, #8]
    7e78:	6b0300bf 	cmp	w5, w3
    7e7c:	54000102 	b.cs	7e9c <__mpa_div_q_r+0x218>  // b.hs, b.nlast
/home/zliu/ubuntu-optee-rpi3/RPi3_OPTEE_3.1/optee_os/lib/libmpa/mpa_div.c:173
    7e80:	b940cba0 	ldr	w0, [x29, #200]
    7e84:	52800023 	mov	w3, #0x1                   	// #1
    7e88:	8b20ca60 	add	x0, x19, w0, sxtw #2
    7e8c:	b9000803 	str	w3, [x0, #8]
/home/zliu/ubuntu-optee-rpi3/RPi3_OPTEE_3.1/optee_os/lib/libmpa/mpa_div.c:174
    7e90:	aa1703e3 	mov	x3, x23
    7e94:	aa0103e0 	mov	x0, x1
    7e98:	94000734 	bl	9b68 <mpa_sub>
/home/zliu/ubuntu-optee-rpi3/RPi3_OPTEE_3.1/optee_os/lib/libmpa/mpa_div.c:178
    7e9c:	f9407fa0 	ldr	x0, [x29, #248]
    7ea0:	510006d6 	sub	w22, w22, #0x1
    7ea4:	b9400415 	ldr	w21, [x0, #4]
    7ea8:	b940cfa0 	ldr	w0, [x29, #204]
    7eac:	510006b4 	sub	w20, w21, #0x1
    7eb0:	51000ab5 	sub	w21, w21, #0x2
    7eb4:	93407e9b 	sxtw	x27, w20
    7eb8:	4b000294 	sub	w20, w20, w0
/home/zliu/ubuntu-optee-rpi3/RPi3_OPTEE_3.1/optee_os/lib/libmpa/mpa_div.c:196
    7ebc:	910353a0 	add	x0, x29, #0xd4
    7ec0:	f9003ba0 	str	x0, [x29, #112]
    7ec4:	910363a0 	add	x0, x29, #0xd8
    7ec8:	8b34ca74 	add	x20, x19, w20, sxtw #2
    7ecc:	f90053a0 	str	x0, [x29, #160]
/home/zliu/ubuntu-optee-rpi3/RPi3_OPTEE_3.1/optee_os/lib/libmpa/mpa_div.c:203
    7ed0:	910373a0 	add	x0, x29, #0xdc
    7ed4:	93407eb5 	sxtw	x21, w21
    7ed8:	f9004fa0 	str	x0, [x29, #152]
    7edc:	91002294 	add	x20, x20, #0x8
    7ee0:	910383a0 	add	x0, x29, #0xe0
    7ee4:	f90037a0 	str	x0, [x29, #104]
/home/zliu/ubuntu-optee-rpi3/RPi3_OPTEE_3.1/optee_os/lib/libmpa/mpa_div.c:207
    7ee8:	910393a0 	add	x0, x29, #0xe4
    7eec:	f9004ba0 	str	x0, [x29, #144]
/home/zliu/ubuntu-optee-rpi3/RPi3_OPTEE_3.1/optee_os/lib/libmpa/mpa_div.c:179
    7ef0:	b940cfa0 	ldr	w0, [x29, #204]
    7ef4:	2a1b03fc 	mov	w28, w27
    7ef8:	6b1b001f 	cmp	w0, w27
    7efc:	540007ed 	b.le	7ff8 <__mpa_div_q_r+0x374>
    7f00:	b980cba0 	ldrsw	x0, [x29, #200]
    7f04:	2a0003e1 	mov	w1, w0
/home/zliu/ubuntu-optee-rpi3/RPi3_OPTEE_3.1/optee_os/lib/libmpa/mpa_div.c:240
    7f08:	36f81be0 	tbz	w0, #31, 8284 <__mpa_div_q_r+0x600>
/home/zliu/ubuntu-optee-rpi3/RPi3_OPTEE_3.1/optee_os/lib/libmpa/mpa_div.c:242
    7f0c:	11000421 	add	w1, w1, #0x1
    7f10:	b9000661 	str	w1, [x19, #4]
/home/zliu/ubuntu-optee-rpi3/RPi3_OPTEE_3.1/optee_os/lib/libmpa/mpa_div.c:246
    7f14:	f9407fa1 	ldr	x1, [x29, #248]
    7f18:	2a1903e2 	mov	w2, w25
    7f1c:	aa0103e0 	mov	x0, x1
    7f20:	94000593 	bl	956c <mpa_shift_right>
/home/zliu/ubuntu-optee-rpi3/RPi3_OPTEE_3.1/optee_os/lib/libmpa/mpa_div.c:247
    7f24:	f9407fa1 	ldr	x1, [x29, #248]
    7f28:	aa1803e0 	mov	x0, x24
    7f2c:	97fffc86 	bl	7144 <mpa_copy>
/home/zliu/ubuntu-optee-rpi3/RPi3_OPTEE_3.1/optee_os/lib/libmpa/mpa_div.c:252
    7f30:	f9405fa0 	ldr	x0, [x29, #184]
    7f34:	aa1703e1 	mov	x1, x23
    7f38:	94000399 	bl	8d9c <mpa_free_static_temp_var>
/home/zliu/ubuntu-optee-rpi3/RPi3_OPTEE_3.1/optee_os/lib/libmpa/mpa_div.c:253
    7f3c:	f9405ba0 	ldr	x0, [x29, #176]
    7f40:	aa1703e1 	mov	x1, x23
    7f44:	94000396 	bl	8d9c <mpa_free_static_temp_var>
/home/zliu/ubuntu-optee-rpi3/RPi3_OPTEE_3.1/optee_os/lib/libmpa/mpa_div.c:254
    7f48:	f94057a0 	ldr	x0, [x29, #168]
    7f4c:	aa1703e1 	mov	x1, x23
    7f50:	94000393 	bl	8d9c <mpa_free_static_temp_var>
__mpa_div_q_r():
/home/zliu/ubuntu-optee-rpi3/RPi3_OPTEE_3.1/optee_os/lib/libmpa/mpa_div.c:359
    7f54:	b9400660 	ldr	w0, [x19, #4]
    7f58:	12800001 	mov	w1, #0xffffffff            	// #-1
    7f5c:	b940c3a2 	ldr	w2, [x29, #192]
    7f60:	6b01001f 	cmp	w0, w1
    7f64:	5a81d421 	cneg	w1, w1, gt
    7f68:	6b01005f 	cmp	w2, w1
    7f6c:	54000060 	b.eq	7f78 <__mpa_div_q_r+0x2f4>  // b.none
/home/zliu/ubuntu-optee-rpi3/RPi3_OPTEE_3.1/optee_os/lib/libmpa/mpa_div.c:359 (discriminator 5)
    7f70:	4b0003e0 	neg	w0, w0
    7f74:	b9000660 	str	w0, [x19, #4]
/home/zliu/ubuntu-optee-rpi3/RPi3_OPTEE_3.1/optee_os/lib/libmpa/mpa_div.c:360
    7f78:	b9400701 	ldr	w1, [x24, #4]
    7f7c:	12800000 	mov	w0, #0xffffffff            	// #-1
    7f80:	b9400743 	ldr	w3, [x26, #4]
    7f84:	6b00003f 	cmp	w1, w0
    7f88:	5a80d402 	cneg	w2, w0, gt
    7f8c:	6b00007f 	cmp	w3, w0
    7f90:	5a80d400 	cneg	w0, w0, gt
    7f94:	6b00005f 	cmp	w2, w0
    7f98:	54ffe920 	b.eq	7cbc <__mpa_div_q_r+0x38>  // b.none
/home/zliu/ubuntu-optee-rpi3/RPi3_OPTEE_3.1/optee_os/lib/libmpa/mpa_div.c:360 (discriminator 9)
    7f9c:	4b0103e1 	neg	w1, w1
    7fa0:	b9000701 	str	w1, [x24, #4]
    7fa4:	17ffff46 	b	7cbc <__mpa_div_q_r+0x38>
__mpa_div_q_r_internal():
/home/zliu/ubuntu-optee-rpi3/RPi3_OPTEE_3.1/optee_os/lib/libmpa/mpa_div.c:146
    7fa8:	11000739 	add	w25, w25, #0x1
/home/zliu/ubuntu-optee-rpi3/RPi3_OPTEE_3.1/optee_os/lib/libmpa/mpa_div.c:147
    7fac:	531f7800 	lsl	w0, w0, #1
    7fb0:	52800022 	mov	w2, #0x1                   	// #1
    7fb4:	17ffff7f 	b	7db0 <__mpa_div_q_r+0x12c>
/home/zliu/ubuntu-optee-rpi3/RPi3_OPTEE_3.1/optee_os/lib/libmpa/mpa_div.c:170
    7fb8:	b9400425 	ldr	w5, [x1, #4]
/home/zliu/ubuntu-optee-rpi3/RPi3_OPTEE_3.1/optee_os/lib/libmpa/mpa_div.c:169
    7fbc:	51000400 	sub	w0, w0, #0x1
/home/zliu/ubuntu-optee-rpi3/RPi3_OPTEE_3.1/optee_os/lib/libmpa/mpa_div.c:170
    7fc0:	52800006 	mov	w6, #0x0                   	// #0
    7fc4:	710000bf 	cmp	w5, #0x0
    7fc8:	5a85a4a5 	cneg	w5, w5, lt  // lt = tstop
    7fcc:	6b05001f 	cmp	w0, w5
    7fd0:	5400004a 	b.ge	7fd8 <__mpa_div_q_r+0x354>  // b.tcont
    7fd4:	b8636826 	ldr	w6, [x1, x3]
    7fd8:	52800005 	mov	w5, #0x0                   	// #0
    7fdc:	6b00009f 	cmp	w4, w0
    7fe0:	5400004d 	b.le	7fe8 <__mpa_div_q_r+0x364>
    7fe4:	b8636845 	ldr	w5, [x2, x3]
    7fe8:	6b0500df 	cmp	w6, w5
    7fec:	d1001063 	sub	x3, x3, #0x4
    7ff0:	1a9f17e5 	cset	w5, eq  // eq = none
    7ff4:	17ffff91 	b	7e38 <__mpa_div_q_r+0x1b4>
/home/zliu/ubuntu-optee-rpi3/RPi3_OPTEE_3.1/optee_os/lib/libmpa/mpa_div.c:180
    7ff8:	f9407fa5 	ldr	x5, [x29, #248]
    7ffc:	52800001 	mov	w1, #0x0                   	// #0
    8000:	b94004a0 	ldr	w0, [x5, #4]
    8004:	7100001f 	cmp	w0, #0x0
    8008:	5a80a403 	cneg	w3, w0, lt  // lt = tstop
    800c:	6b1b007f 	cmp	w3, w27
    8010:	5400006d 	b.le	801c <__mpa_div_q_r+0x398>
    8014:	8b3cc8a0 	add	x0, x5, w28, sxtw #2
    8018:	b9400801 	ldr	w1, [x0, #8]
/home/zliu/ubuntu-optee-rpi3/RPi3_OPTEE_3.1/optee_os/lib/libmpa/mpa_div.c:181
    801c:	f9407ba6 	ldr	x6, [x29, #240]
    8020:	110006c0 	add	w0, w22, #0x1
    8024:	b9008fa0 	str	w0, [x29, #140]
    8028:	110006c4 	add	w4, w22, #0x1
    802c:	52800002 	mov	w2, #0x0                   	// #0
    8030:	b94004c0 	ldr	w0, [x6, #4]
    8034:	7100001f 	cmp	w0, #0x0
    8038:	5a80a400 	cneg	w0, w0, lt  // lt = tstop
    803c:	6b04001f 	cmp	w0, w4
    8040:	5400006b 	b.lt	804c <__mpa_div_q_r+0x3c8>  // b.tstop
    8044:	8b36c8c6 	add	x6, x6, w22, sxtw #2
    8048:	b94008c2 	ldr	w2, [x6, #8]
    804c:	b940cfa0 	ldr	w0, [x29, #204]
/home/zliu/ubuntu-optee-rpi3/RPi3_OPTEE_3.1/optee_os/lib/libmpa/mpa_div.c:180
    8050:	6b02003f 	cmp	w1, w2
    8054:	4b000360 	sub	w0, w27, w0
    8058:	b900c7a0 	str	w0, [x29, #196]
    805c:	54000561 	b.ne	8108 <__mpa_div_q_r+0x484>  // b.any
/home/zliu/ubuntu-optee-rpi3/RPi3_OPTEE_3.1/optee_os/lib/libmpa/mpa_div.c:182
    8060:	8b20ca60 	add	x0, x19, w0, sxtw #2
    8064:	12800001 	mov	w1, #0xffffffff            	// #-1
    8068:	b9000801 	str	w1, [x0, #8]
/home/zliu/ubuntu-optee-rpi3/RPi3_OPTEE_3.1/optee_os/lib/libmpa/mpa_div.c:218
    806c:	510006a0 	sub	w0, w21, #0x1
    8070:	937e7c00 	sbfiz	x0, x0, #2, #32
    8074:	f90043a0 	str	x0, [x29, #128]
/home/zliu/ubuntu-optee-rpi3/RPi3_OPTEE_3.1/optee_os/lib/libmpa/mpa_div.c:203
    8078:	510006c0 	sub	w0, w22, #0x1
    807c:	93407c00 	sxtw	x0, w0
    8080:	f9003fa0 	str	x0, [x29, #120]
/home/zliu/ubuntu-optee-rpi3/RPi3_OPTEE_3.1/optee_os/lib/libmpa/mpa_div.c:197
    8084:	f9407ba3 	ldr	x3, [x29, #240]
/home/zliu/ubuntu-optee-rpi3/RPi3_OPTEE_3.1/optee_os/lib/libmpa/mpa_div.c:196
    8088:	b9408fa4 	ldr	w4, [x29, #140]
/home/zliu/ubuntu-optee-rpi3/RPi3_OPTEE_3.1/optee_os/lib/libmpa/mpa_div.c:193
    808c:	b900d7bf 	str	wzr, [x29, #212]
/home/zliu/ubuntu-optee-rpi3/RPi3_OPTEE_3.1/optee_os/lib/libmpa/mpa_div.c:194
    8090:	b900dfbf 	str	wzr, [x29, #220]
/home/zliu/ubuntu-optee-rpi3/RPi3_OPTEE_3.1/optee_os/lib/libmpa/mpa_div.c:197
    8094:	b9400461 	ldr	w1, [x3, #4]
/home/zliu/ubuntu-optee-rpi3/RPi3_OPTEE_3.1/optee_os/lib/libmpa/mpa_div.c:195
    8098:	b900e7bf 	str	wzr, [x29, #228]
/home/zliu/ubuntu-optee-rpi3/RPi3_OPTEE_3.1/optee_os/lib/libmpa/mpa_div.c:197
    809c:	7100003f 	cmp	w1, #0x0
/home/zliu/ubuntu-optee-rpi3/RPi3_OPTEE_3.1/optee_os/lib/libmpa/mpa_div.c:196
    80a0:	b9400280 	ldr	w0, [x20]
/home/zliu/ubuntu-optee-rpi3/RPi3_OPTEE_3.1/optee_os/lib/libmpa/mpa_div.c:197
    80a4:	5a81a422 	cneg	w2, w1, lt  // lt = tstop
/home/zliu/ubuntu-optee-rpi3/RPi3_OPTEE_3.1/optee_os/lib/libmpa/mpa_div.c:196
    80a8:	52800001 	mov	w1, #0x0                   	// #0
    80ac:	6b04005f 	cmp	w2, w4
    80b0:	5400006b 	b.lt	80bc <__mpa_div_q_r+0x438>  // b.tstop
    80b4:	8b36c863 	add	x3, x3, w22, sxtw #2
    80b8:	b9400861 	ldr	w1, [x3, #8]
    80bc:	f94053a2 	ldr	x2, [x29, #160]
    80c0:	f9403ba3 	ldr	x3, [x29, #112]
    80c4:	94000349 	bl	8de8 <__mpa_mul_add_word>
/home/zliu/ubuntu-optee-rpi3/RPi3_OPTEE_3.1/optee_os/lib/libmpa/mpa_div.c:200
    80c8:	f9407fa1 	ldr	x1, [x29, #248]
    80cc:	52800002 	mov	w2, #0x0                   	// #0
    80d0:	b9400420 	ldr	w0, [x1, #4]
    80d4:	7100001f 	cmp	w0, #0x0
    80d8:	5a80a400 	cneg	w0, w0, lt  // lt = tstop
    80dc:	6b00039f 	cmp	w28, w0
    80e0:	5400006a 	b.ge	80ec <__mpa_div_q_r+0x468>  // b.tcont
    80e4:	8b3cc821 	add	x1, x1, w28, sxtw #2
    80e8:	b9400822 	ldr	w2, [x1, #8]
    80ec:	b940d7a0 	ldr	w0, [x29, #212]
    80f0:	6b02001f 	cmp	w0, w2
    80f4:	54000209 	b.ls	8134 <__mpa_div_q_r+0x4b0>  // b.plast
/home/zliu/ubuntu-optee-rpi3/RPi3_OPTEE_3.1/optee_os/lib/libmpa/mpa_div.c:222
    80f8:	b9400280 	ldr	w0, [x20]
    80fc:	51000400 	sub	w0, w0, #0x1
    8100:	b9000280 	str	w0, [x20]
    8104:	17ffffe0 	b	8084 <__mpa_div_q_r+0x400>
/home/zliu/ubuntu-optee-rpi3/RPi3_OPTEE_3.1/optee_os/lib/libmpa/mpa_div.c:185
    8108:	52800000 	mov	w0, #0x0                   	// #0
    810c:	6b1c007f 	cmp	w3, w28
    8110:	5400006b 	b.lt	811c <__mpa_div_q_r+0x498>  // b.tstop
    8114:	8b35c8a5 	add	x5, x5, w21, sxtw #2
    8118:	b94008a0 	ldr	w0, [x5, #8]
    811c:	d2800003 	mov	x3, #0x0                   	// #0
    8120:	97fffe73 	bl	7aec <__mpa_div_dword>
/home/zliu/ubuntu-optee-rpi3/RPi3_OPTEE_3.1/optee_os/lib/libmpa/mpa_div.c:184
    8124:	b940c7a1 	ldr	w1, [x29, #196]
    8128:	8b21ca61 	add	x1, x19, w1, sxtw #2
    812c:	b9000820 	str	w0, [x1, #8]
    8130:	17ffffcf 	b	806c <__mpa_div_q_r+0x3e8>
/home/zliu/ubuntu-optee-rpi3/RPi3_OPTEE_3.1/optee_os/lib/libmpa/mpa_div.c:204
    8134:	f9407ba3 	ldr	x3, [x29, #240]
/home/zliu/ubuntu-optee-rpi3/RPi3_OPTEE_3.1/optee_os/lib/libmpa/mpa_div.c:203
    8138:	b9400280 	ldr	w0, [x20]
/home/zliu/ubuntu-optee-rpi3/RPi3_OPTEE_3.1/optee_os/lib/libmpa/mpa_div.c:204
    813c:	b9400461 	ldr	w1, [x3, #4]
    8140:	7100003f 	cmp	w1, #0x0
    8144:	5a81a422 	cneg	w2, w1, lt  // lt = tstop
/home/zliu/ubuntu-optee-rpi3/RPi3_OPTEE_3.1/optee_os/lib/libmpa/mpa_div.c:203
    8148:	52800001 	mov	w1, #0x0                   	// #0
    814c:	6b0202df 	cmp	w22, w2
    8150:	5400008c 	b.gt	8160 <__mpa_div_q_r+0x4dc>
    8154:	f9403fa1 	ldr	x1, [x29, #120]
    8158:	8b010863 	add	x3, x3, x1, lsl #2
    815c:	b9400861 	ldr	w1, [x3, #8]
    8160:	f94037a2 	ldr	x2, [x29, #104]
    8164:	f9404fa3 	ldr	x3, [x29, #152]
    8168:	94000320 	bl	8de8 <__mpa_mul_add_word>
/home/zliu/ubuntu-optee-rpi3/RPi3_OPTEE_3.1/optee_os/lib/libmpa/mpa_div.c:207
    816c:	295b07a0 	ldp	w0, w1, [x29, #216]
    8170:	a9490ba3 	ldp	x3, x2, [x29, #144]
    8174:	9400054f 	bl	96b0 <__mpa_full_adder>
/home/zliu/ubuntu-optee-rpi3/RPi3_OPTEE_3.1/optee_os/lib/libmpa/mpa_div.c:208
    8178:	b900dbbf 	str	wzr, [x29, #216]
/home/zliu/ubuntu-optee-rpi3/RPi3_OPTEE_3.1/optee_os/lib/libmpa/mpa_div.c:209
    817c:	f9404ba2 	ldr	x2, [x29, #144]
    8180:	b940d7a0 	ldr	w0, [x29, #212]
    8184:	b940e7a1 	ldr	w1, [x29, #228]
    8188:	f94053a3 	ldr	x3, [x29, #160]
    818c:	94000549 	bl	96b0 <__mpa_full_adder>
/home/zliu/ubuntu-optee-rpi3/RPi3_OPTEE_3.1/optee_os/lib/libmpa/mpa_div.c:210
    8190:	b940dba2 	ldr	w2, [x29, #216]
    8194:	35fffb22 	cbnz	w2, 80f8 <__mpa_div_q_r+0x474>
    8198:	f9407fa1 	ldr	x1, [x29, #248]
    819c:	52800003 	mov	w3, #0x0                   	// #0
    81a0:	b9400420 	ldr	w0, [x1, #4]
    81a4:	7100001f 	cmp	w0, #0x0
    81a8:	5a80a400 	cneg	w0, w0, lt  // lt = tstop
    81ac:	6b00039f 	cmp	w28, w0
    81b0:	5400006a 	b.ge	81bc <__mpa_div_q_r+0x538>  // b.tcont
    81b4:	8b3cc823 	add	x3, x1, w28, sxtw #2
    81b8:	b9400863 	ldr	w3, [x3, #8]
    81bc:	b940e7a5 	ldr	w5, [x29, #228]
    81c0:	6b0300bf 	cmp	w5, w3
    81c4:	54fff9a8 	b.hi	80f8 <__mpa_div_q_r+0x474>  // b.pmore
/home/zliu/ubuntu-optee-rpi3/RPi3_OPTEE_3.1/optee_os/lib/libmpa/mpa_div.c:212
    81c8:	54000243 	b.cc	8210 <__mpa_div_q_r+0x58c>  // b.lo, b.ul, b.last
/home/zliu/ubuntu-optee-rpi3/RPi3_OPTEE_3.1/optee_os/lib/libmpa/mpa_div.c:214
    81cc:	52800003 	mov	w3, #0x0                   	// #0
    81d0:	6b00039f 	cmp	w28, w0
    81d4:	5400006c 	b.gt	81e0 <__mpa_div_q_r+0x55c>
    81d8:	8b35c823 	add	x3, x1, w21, sxtw #2
    81dc:	b9400863 	ldr	w3, [x3, #8]
    81e0:	b940dfa5 	ldr	w5, [x29, #220]
    81e4:	6b0300bf 	cmp	w5, w3
    81e8:	54fff888 	b.hi	80f8 <__mpa_div_q_r+0x474>  // b.pmore
/home/zliu/ubuntu-optee-rpi3/RPi3_OPTEE_3.1/optee_os/lib/libmpa/mpa_div.c:216
    81ec:	54000123 	b.cc	8210 <__mpa_div_q_r+0x58c>  // b.lo, b.ul, b.last
/home/zliu/ubuntu-optee-rpi3/RPi3_OPTEE_3.1/optee_os/lib/libmpa/mpa_div.c:218
    81f0:	6b15001f 	cmp	w0, w21
    81f4:	5400008b 	b.lt	8204 <__mpa_div_q_r+0x580>  // b.tstop
    81f8:	f94043a0 	ldr	x0, [x29, #128]
    81fc:	8b000021 	add	x1, x1, x0
    8200:	b9400822 	ldr	w2, [x1, #8]
    8204:	b940e3a0 	ldr	w0, [x29, #224]
    8208:	6b02001f 	cmp	w0, w2
    820c:	54fff768 	b.hi	80f8 <__mpa_div_q_r+0x474>  // b.pmore
/home/zliu/ubuntu-optee-rpi3/RPi3_OPTEE_3.1/optee_os/lib/libmpa/mpa_div.c:226
    8210:	f9407ba0 	ldr	x0, [x29, #240]
    8214:	52800021 	mov	w1, #0x1                   	// #1
    8218:	94000458 	bl	9378 <__mpa_shift_words_right>
    821c:	b940c7a0 	ldr	w0, [x29, #196]
/home/zliu/ubuntu-optee-rpi3/RPi3_OPTEE_3.1/optee_os/lib/libmpa/mpa_div.c:228
    8220:	aa1703e3 	mov	x3, x23
    8224:	8b20ca7c 	add	x28, x19, w0, sxtw #2
    8228:	a94e87a0 	ldp	x0, x1, [x29, #232]
    822c:	b9400b82 	ldr	w2, [x28, #8]
    8230:	94000398 	bl	9090 <mpa_mul_word>
/home/zliu/ubuntu-optee-rpi3/RPi3_OPTEE_3.1/optee_os/lib/libmpa/mpa_div.c:229
    8234:	f9407fa1 	ldr	x1, [x29, #248]
    8238:	aa1703e3 	mov	x3, x23
    823c:	f94077a2 	ldr	x2, [x29, #232]
    8240:	aa0103e0 	mov	x0, x1
    8244:	94000649 	bl	9b68 <mpa_sub>
/home/zliu/ubuntu-optee-rpi3/RPi3_OPTEE_3.1/optee_os/lib/libmpa/mpa_div.c:230
    8248:	f9407fa1 	ldr	x1, [x29, #248]
    824c:	b9400420 	ldr	w0, [x1, #4]
    8250:	36f80100 	tbz	w0, #31, 8270 <__mpa_div_q_r+0x5ec>
/home/zliu/ubuntu-optee-rpi3/RPi3_OPTEE_3.1/optee_os/lib/libmpa/mpa_div.c:231
    8254:	f9407ba2 	ldr	x2, [x29, #240]
    8258:	aa0103e0 	mov	x0, x1
    825c:	aa1703e3 	mov	x3, x23
    8260:	940005dd 	bl	99d4 <mpa_add>
/home/zliu/ubuntu-optee-rpi3/RPi3_OPTEE_3.1/optee_os/lib/libmpa/mpa_div.c:232
    8264:	b9400b80 	ldr	w0, [x28, #8]
    8268:	51000400 	sub	w0, w0, #0x1
    826c:	b9000b80 	str	w0, [x28, #8]
    8270:	d100077b 	sub	x27, x27, #0x1
    8274:	d10006b5 	sub	x21, x21, #0x1
    8278:	d1001294 	sub	x20, x20, #0x4
    827c:	510006d6 	sub	w22, w22, #0x1
    8280:	17ffff1c 	b	7ef0 <__mpa_div_q_r+0x26c>
    8284:	d1000400 	sub	x0, x0, #0x1
/home/zliu/ubuntu-optee-rpi3/RPi3_OPTEE_3.1/optee_os/lib/libmpa/mpa_div.c:240
    8288:	8b000a62 	add	x2, x19, x0, lsl #2
    828c:	b9400c42 	ldr	w2, [x2, #12]
    8290:	34ffe3a2 	cbz	w2, 7f04 <__mpa_div_q_r+0x280>
    8294:	17ffff1e 	b	7f0c <__mpa_div_q_r+0x288>
__mpa_div_q_r():
/home/zliu/ubuntu-optee-rpi3/RPi3_OPTEE_3.1/optee_os/lib/libmpa/mpa_div.c:353
    8298:	b9400a83 	ldr	w3, [x20, #8]
    829c:	aa1a03e2 	mov	x2, x26
    82a0:	aa1803e1 	mov	x1, x24
    82a4:	aa1303e0 	mov	x0, x19
    82a8:	97fffe25 	bl	7b3c <__mpa_div_q_r_internal_word>
    82ac:	17ffff2a 	b	7f54 <__mpa_div_q_r+0x2d0>
/home/zliu/ubuntu-optee-rpi3/RPi3_OPTEE_3.1/optee_os/lib/libmpa/mpa_div.c:355
    82b0:	aa1303e0 	mov	x0, x19
    82b4:	52800001 	mov	w1, #0x0                   	// #0
    82b8:	97fffe02 	bl	7ac0 <mpa_set_word>
/home/zliu/ubuntu-optee-rpi3/RPi3_OPTEE_3.1/optee_os/lib/libmpa/mpa_div.c:356
    82bc:	aa1a03e1 	mov	x1, x26
    82c0:	aa1803e0 	mov	x0, x24
    82c4:	97fffba0 	bl	7144 <mpa_copy>
/home/zliu/ubuntu-optee-rpi3/RPi3_OPTEE_3.1/optee_os/lib/libmpa/mpa_div.c:357
    82c8:	17fffe7d 	b	7cbc <__mpa_div_q_r+0x38>
/home/zliu/ubuntu-optee-rpi3/RPi3_OPTEE_3.1/optee_os/lib/libmpa/mpa_div.c:342
    82cc:	12800001 	mov	w1, #0xffffffff            	// #-1
    82d0:	6b01001f 	cmp	w0, w1
    82d4:	5a81d420 	cneg	w0, w1, gt
    82d8:	b900c3a0 	str	w0, [x29, #192]
/home/zliu/ubuntu-optee-rpi3/RPi3_OPTEE_3.1/optee_os/lib/libmpa/mpa_div.c:343
    82dc:	aa1403e1 	mov	x1, x20
    82e0:	aa1a03e0 	mov	x0, x26
    82e4:	94000730 	bl	9fa4 <__mpa_abs_cmp>
/home/zliu/ubuntu-optee-rpi3/RPi3_OPTEE_3.1/optee_os/lib/libmpa/mpa_div.c:344
    82e8:	7100001f 	cmp	w0, #0x0
    82ec:	54ffd0c1 	b.ne	7d04 <__mpa_div_q_r+0x80>  // b.any
/home/zliu/ubuntu-optee-rpi3/RPi3_OPTEE_3.1/optee_os/lib/libmpa/mpa_div.c:345
    82f0:	52800021 	mov	w1, #0x1                   	// #1
    82f4:	aa1303e0 	mov	x0, x19
    82f8:	17fffe6d 	b	7cac <__mpa_div_q_r+0x28>
__mpa_div_q_r_internal():
/home/zliu/ubuntu-optee-rpi3/RPi3_OPTEE_3.1/optee_os/lib/libmpa/mpa_div.c:172
    82fc:	6b00009f 	cmp	w4, w0
    8300:	54ffdced 	b.le	7e9c <__mpa_div_q_r+0x218>
    8304:	52800003 	mov	w3, #0x0                   	// #0
    8308:	17fffeda 	b	7e70 <__mpa_div_q_r+0x1ec>

000000000000830c <mpa_div>:
mpa_div():
/home/zliu/ubuntu-optee-rpi3/RPi3_OPTEE_3.1/optee_os/lib/libmpa/mpa_div.c:380
    830c:	a9ba7bfd 	stp	x29, x30, [sp, #-96]!
/home/zliu/ubuntu-optee-rpi3/RPi3_OPTEE_3.1/optee_os/lib/libmpa/mpa_div.c:387
    8310:	eb02001f 	cmp	x0, x2
    8314:	fa431004 	ccmp	x0, x3, #0x4, ne  // ne = any
/home/zliu/ubuntu-optee-rpi3/RPi3_OPTEE_3.1/optee_os/lib/libmpa/mpa_div.c:380
    8318:	910003fd 	mov	x29, sp
    831c:	a90153f3 	stp	x19, x20, [sp, #16]
/home/zliu/ubuntu-optee-rpi3/RPi3_OPTEE_3.1/optee_os/lib/libmpa/mpa_div.c:387
    8320:	fa401804 	ccmp	x0, #0x0, #0x4, ne  // ne = any
/home/zliu/ubuntu-optee-rpi3/RPi3_OPTEE_3.1/optee_os/lib/libmpa/mpa_div.c:380
    8324:	a9025bf5 	stp	x21, x22, [sp, #32]
    8328:	aa0003f4 	mov	x20, x0
    832c:	a90363f7 	stp	x23, x24, [sp, #48]
    8330:	aa0103f3 	mov	x19, x1
    8334:	f90023f9 	str	x25, [sp, #64]
    8338:	aa0203f6 	mov	x22, x2
    833c:	aa0303f7 	mov	x23, x3
    8340:	aa0403f5 	mov	x21, x4
/home/zliu/ubuntu-optee-rpi3/RPi3_OPTEE_3.1/optee_os/lib/libmpa/mpa_div.c:387
    8344:	54000501 	b.ne	83e4 <mpa_div+0xd8>  // b.any
/home/zliu/ubuntu-optee-rpi3/RPi3_OPTEE_3.1/optee_os/lib/libmpa/mpa_div.c:389
    8348:	52800039 	mov	w25, #0x1                   	// #1
/home/zliu/ubuntu-optee-rpi3/RPi3_OPTEE_3.1/optee_os/lib/libmpa/mpa_div.c:388
    834c:	aa0403e1 	mov	x1, x4
    8350:	910143a0 	add	x0, x29, #0x50
    8354:	9400028e 	bl	8d8c <mpa_alloc_static_temp_var>
/home/zliu/ubuntu-optee-rpi3/RPi3_OPTEE_3.1/optee_os/lib/libmpa/mpa_div.c:396
    8358:	f100027f 	cmp	x19, #0x0
    835c:	fa5312e4 	ccmp	x23, x19, #0x4, ne  // ne = any
    8360:	fa5312c4 	ccmp	x22, x19, #0x4, ne  // ne = any
    8364:	54000461 	b.ne	83f0 <mpa_div+0xe4>  // b.any
/home/zliu/ubuntu-optee-rpi3/RPi3_OPTEE_3.1/optee_os/lib/libmpa/mpa_div.c:398
    8368:	52800038 	mov	w24, #0x1                   	// #1
/home/zliu/ubuntu-optee-rpi3/RPi3_OPTEE_3.1/optee_os/lib/libmpa/mpa_div.c:397
    836c:	aa1503e1 	mov	x1, x21
    8370:	910163a0 	add	x0, x29, #0x58
    8374:	94000286 	bl	8d8c <mpa_alloc_static_temp_var>
/home/zliu/ubuntu-optee-rpi3/RPi3_OPTEE_3.1/optee_os/lib/libmpa/mpa_div.c:404
    8378:	a94507a0 	ldp	x0, x1, [x29, #80]
    837c:	aa1503e4 	mov	x4, x21
    8380:	aa1703e3 	mov	x3, x23
    8384:	aa1603e2 	mov	x2, x22
    8388:	97fffe3f 	bl	7c84 <__mpa_div_q_r>
/home/zliu/ubuntu-optee-rpi3/RPi3_OPTEE_3.1/optee_os/lib/libmpa/mpa_div.c:406
    838c:	b4000094 	cbz	x20, 839c <mpa_div+0x90>
/home/zliu/ubuntu-optee-rpi3/RPi3_OPTEE_3.1/optee_os/lib/libmpa/mpa_div.c:407
    8390:	f9402ba1 	ldr	x1, [x29, #80]
    8394:	aa1403e0 	mov	x0, x20
    8398:	97fffb6b 	bl	7144 <mpa_copy>
/home/zliu/ubuntu-optee-rpi3/RPi3_OPTEE_3.1/optee_os/lib/libmpa/mpa_div.c:408
    839c:	34000099 	cbz	w25, 83ac <mpa_div+0xa0>
/home/zliu/ubuntu-optee-rpi3/RPi3_OPTEE_3.1/optee_os/lib/libmpa/mpa_div.c:409
    83a0:	aa1503e1 	mov	x1, x21
    83a4:	910143a0 	add	x0, x29, #0x50
    83a8:	9400027d 	bl	8d9c <mpa_free_static_temp_var>
/home/zliu/ubuntu-optee-rpi3/RPi3_OPTEE_3.1/optee_os/lib/libmpa/mpa_div.c:410
    83ac:	b4000093 	cbz	x19, 83bc <mpa_div+0xb0>
/home/zliu/ubuntu-optee-rpi3/RPi3_OPTEE_3.1/optee_os/lib/libmpa/mpa_div.c:411
    83b0:	f9402fa1 	ldr	x1, [x29, #88]
    83b4:	aa1303e0 	mov	x0, x19
    83b8:	97fffb63 	bl	7144 <mpa_copy>
/home/zliu/ubuntu-optee-rpi3/RPi3_OPTEE_3.1/optee_os/lib/libmpa/mpa_div.c:412
    83bc:	34000098 	cbz	w24, 83cc <mpa_div+0xc0>
/home/zliu/ubuntu-optee-rpi3/RPi3_OPTEE_3.1/optee_os/lib/libmpa/mpa_div.c:413
    83c0:	aa1503e1 	mov	x1, x21
    83c4:	910163a0 	add	x0, x29, #0x58
    83c8:	94000275 	bl	8d9c <mpa_free_static_temp_var>
/home/zliu/ubuntu-optee-rpi3/RPi3_OPTEE_3.1/optee_os/lib/libmpa/mpa_div.c:414
    83cc:	a94153f3 	ldp	x19, x20, [sp, #16]
    83d0:	a9425bf5 	ldp	x21, x22, [sp, #32]
    83d4:	a94363f7 	ldp	x23, x24, [sp, #48]
    83d8:	f94023f9 	ldr	x25, [sp, #64]
    83dc:	a8c67bfd 	ldp	x29, x30, [sp], #96
    83e0:	d65f03c0 	ret
/home/zliu/ubuntu-optee-rpi3/RPi3_OPTEE_3.1/optee_os/lib/libmpa/mpa_div.c:392
    83e4:	52800019 	mov	w25, #0x0                   	// #0
/home/zliu/ubuntu-optee-rpi3/RPi3_OPTEE_3.1/optee_os/lib/libmpa/mpa_div.c:391
    83e8:	f9002ba0 	str	x0, [x29, #80]
    83ec:	17ffffdb 	b	8358 <mpa_div+0x4c>
/home/zliu/ubuntu-optee-rpi3/RPi3_OPTEE_3.1/optee_os/lib/libmpa/mpa_div.c:401
    83f0:	52800018 	mov	w24, #0x0                   	// #0
/home/zliu/ubuntu-optee-rpi3/RPi3_OPTEE_3.1/optee_os/lib/libmpa/mpa_div.c:400
    83f4:	f9002fb3 	str	x19, [x29, #88]
    83f8:	17ffffe0 	b	8378 <mpa_div+0x6c>

00000000000083fc <__mpa_divby2>:
__mpa_divby2():
/home/zliu/ubuntu-optee-rpi3/RPi3_OPTEE_3.1/optee_os/lib/libmpa/mpa_gcd.c:48
    83fc:	b9400403 	ldr	w3, [x0, #4]
    8400:	7100007f 	cmp	w3, #0x0
    8404:	540002a0 	b.eq	8458 <__mpa_divby2+0x5c>  // b.none
/home/zliu/ubuntu-optee-rpi3/RPi3_OPTEE_3.1/optee_os/lib/libmpa/mpa_gcd.c:51
    8408:	5a83a466 	cneg	w6, w3, lt  // lt = tstop
/home/zliu/ubuntu-optee-rpi3/RPi3_OPTEE_3.1/optee_os/lib/libmpa/mpa_gcd.c:53
    840c:	b9400804 	ldr	w4, [x0, #8]
/home/zliu/ubuntu-optee-rpi3/RPi3_OPTEE_3.1/optee_os/lib/libmpa/mpa_gcd.c:51
    8410:	510004c1 	sub	w1, w6, #0x1
/home/zliu/ubuntu-optee-rpi3/RPi3_OPTEE_3.1/optee_os/lib/libmpa/mpa_gcd.c:54
    8414:	52800025 	mov	w5, #0x1                   	// #1
/home/zliu/ubuntu-optee-rpi3/RPi3_OPTEE_3.1/optee_os/lib/libmpa/mpa_gcd.c:51
    8418:	8b21c801 	add	x1, x0, w1, sxtw #2
/home/zliu/ubuntu-optee-rpi3/RPi3_OPTEE_3.1/optee_os/lib/libmpa/mpa_gcd.c:53
    841c:	53017c84 	lsr	w4, w4, #1
/home/zliu/ubuntu-optee-rpi3/RPi3_OPTEE_3.1/optee_os/lib/libmpa/mpa_gcd.c:51
    8420:	b9400821 	ldr	w1, [x1, #8]
    8424:	53017c21 	lsr	w1, w1, #1
    8428:	7100003f 	cmp	w1, #0x0
/home/zliu/ubuntu-optee-rpi3/RPi3_OPTEE_3.1/optee_os/lib/libmpa/mpa_gcd.c:53
    842c:	aa0003e1 	mov	x1, x0
/home/zliu/ubuntu-optee-rpi3/RPi3_OPTEE_3.1/optee_os/lib/libmpa/mpa_gcd.c:51
    8430:	1a9f17e2 	cset	w2, eq  // eq = none
/home/zliu/ubuntu-optee-rpi3/RPi3_OPTEE_3.1/optee_os/lib/libmpa/mpa_gcd.c:53
    8434:	b8008c24 	str	w4, [x1, #8]!
    8438:	91001021 	add	x1, x1, #0x4
/home/zliu/ubuntu-optee-rpi3/RPi3_OPTEE_3.1/optee_os/lib/libmpa/mpa_gcd.c:54 (discriminator 1)
    843c:	6b0600bf 	cmp	w5, w6
    8440:	540000e3 	b.cc	845c <__mpa_divby2+0x60>  // b.lo, b.ul, b.last
/home/zliu/ubuntu-optee-rpi3/RPi3_OPTEE_3.1/optee_os/lib/libmpa/mpa_gcd.c:61
    8444:	4b020061 	sub	w1, w3, w2
    8448:	7100007f 	cmp	w3, #0x0
    844c:	0b020062 	add	w2, w3, w2
    8450:	1a81b042 	csel	w2, w2, w1, lt  // lt = tstop
    8454:	b9000402 	str	w2, [x0, #4]
    8458:	d65f03c0 	ret
/home/zliu/ubuntu-optee-rpi3/RPi3_OPTEE_3.1/optee_os/lib/libmpa/mpa_gcd.c:55 (discriminator 3)
    845c:	b9400024 	ldr	w4, [x1]
/home/zliu/ubuntu-optee-rpi3/RPi3_OPTEE_3.1/optee_os/lib/libmpa/mpa_gcd.c:54 (discriminator 3)
    8460:	110004a5 	add	w5, w5, #0x1
/home/zliu/ubuntu-optee-rpi3/RPi3_OPTEE_3.1/optee_os/lib/libmpa/mpa_gcd.c:56 (discriminator 3)
    8464:	53017c87 	lsr	w7, w4, #1
    8468:	b9000027 	str	w7, [x1]
/home/zliu/ubuntu-optee-rpi3/RPi3_OPTEE_3.1/optee_os/lib/libmpa/mpa_gcd.c:57 (discriminator 3)
    846c:	b85fc027 	ldur	w7, [x1, #-4]
    8470:	4a047ce4 	eor	w4, w7, w4, lsl #31
    8474:	b81fc024 	stur	w4, [x1, #-4]
    8478:	17fffff0 	b	8438 <__mpa_divby2+0x3c>

000000000000847c <__mpa_gcd.part.0>:
__mpa_gcd():
/home/zliu/ubuntu-optee-rpi3/RPi3_OPTEE_3.1/optee_os/lib/libmpa/mpa_gcd.c:213
    847c:	a9ba7bfd 	stp	x29, x30, [sp, #-96]!
    8480:	910003fd 	mov	x29, sp
    8484:	a9025bf5 	stp	x21, x22, [sp, #32]
/home/zliu/ubuntu-optee-rpi3/RPi3_OPTEE_3.1/optee_os/lib/libmpa/mpa_gcd.c:227
    8488:	910123b6 	add	x22, x29, #0x48
/home/zliu/ubuntu-optee-rpi3/RPi3_OPTEE_3.1/optee_os/lib/libmpa/mpa_gcd.c:213
    848c:	a90153f3 	stp	x19, x20, [sp, #16]
    8490:	aa0103f5 	mov	x21, x1
    8494:	aa0203f4 	mov	x20, x2
    8498:	aa0303f3 	mov	x19, x3
/home/zliu/ubuntu-optee-rpi3/RPi3_OPTEE_3.1/optee_os/lib/libmpa/mpa_gcd.c:227
    849c:	aa0303e1 	mov	x1, x3
/home/zliu/ubuntu-optee-rpi3/RPi3_OPTEE_3.1/optee_os/lib/libmpa/mpa_gcd.c:213
    84a0:	a90363f7 	stp	x23, x24, [sp, #48]
    84a4:	aa0003f8 	mov	x24, x0
/home/zliu/ubuntu-optee-rpi3/RPi3_OPTEE_3.1/optee_os/lib/libmpa/mpa_gcd.c:227
    84a8:	aa1603e0 	mov	x0, x22
    84ac:	94000238 	bl	8d8c <mpa_alloc_static_temp_var>
/home/zliu/ubuntu-optee-rpi3/RPi3_OPTEE_3.1/optee_os/lib/libmpa/mpa_gcd.c:228
    84b0:	f94027a0 	ldr	x0, [x29, #72]
    84b4:	aa1503e1 	mov	x1, x21
/home/zliu/ubuntu-optee-rpi3/RPi3_OPTEE_3.1/optee_os/lib/libmpa/mpa_gcd.c:229
    84b8:	910143b5 	add	x21, x29, #0x50
/home/zliu/ubuntu-optee-rpi3/RPi3_OPTEE_3.1/optee_os/lib/libmpa/mpa_gcd.c:228
    84bc:	97fffb22 	bl	7144 <mpa_copy>
/home/zliu/ubuntu-optee-rpi3/RPi3_OPTEE_3.1/optee_os/lib/libmpa/mpa_gcd.c:229
    84c0:	aa1303e1 	mov	x1, x19
    84c4:	aa1503e0 	mov	x0, x21
    84c8:	94000231 	bl	8d8c <mpa_alloc_static_temp_var>
/home/zliu/ubuntu-optee-rpi3/RPi3_OPTEE_3.1/optee_os/lib/libmpa/mpa_gcd.c:230
    84cc:	f9402ba0 	ldr	x0, [x29, #80]
    84d0:	aa1403e1 	mov	x1, x20
/home/zliu/ubuntu-optee-rpi3/RPi3_OPTEE_3.1/optee_os/lib/libmpa/mpa_gcd.c:232
    84d4:	52800014 	mov	w20, #0x0                   	// #0
/home/zliu/ubuntu-optee-rpi3/RPi3_OPTEE_3.1/optee_os/lib/libmpa/mpa_gcd.c:230
    84d8:	97fffb1b 	bl	7144 <mpa_copy>
/home/zliu/ubuntu-optee-rpi3/RPi3_OPTEE_3.1/optee_os/lib/libmpa/mpa_gcd.c:233
    84dc:	f94027a0 	ldr	x0, [x29, #72]
    84e0:	97fffb63 	bl	726c <mpa_parity>
    84e4:	34000340 	cbz	w0, 854c <__mpa_gcd.part.0+0xd0>
/home/zliu/ubuntu-optee-rpi3/RPi3_OPTEE_3.1/optee_os/lib/libmpa/mpa_gcd.c:239
    84e8:	910163b7 	add	x23, x29, #0x58
    84ec:	aa1303e1 	mov	x1, x19
    84f0:	aa1703e0 	mov	x0, x23
    84f4:	94000226 	bl	8d8c <mpa_alloc_static_temp_var>
/home/zliu/ubuntu-optee-rpi3/RPi3_OPTEE_3.1/optee_os/lib/libmpa/mpa_gcd.c:240
    84f8:	f94027a0 	ldr	x0, [x29, #72]
    84fc:	b9400400 	ldr	w0, [x0, #4]
    8500:	350003c0 	cbnz	w0, 8578 <__mpa_gcd.part.0+0xfc>
/home/zliu/ubuntu-optee-rpi3/RPi3_OPTEE_3.1/optee_os/lib/libmpa/mpa_gcd.c:257
    8504:	f9402ba1 	ldr	x1, [x29, #80]
    8508:	2a1403e2 	mov	w2, w20
    850c:	aa1803e0 	mov	x0, x24
    8510:	940003b3 	bl	93dc <mpa_shift_left>
/home/zliu/ubuntu-optee-rpi3/RPi3_OPTEE_3.1/optee_os/lib/libmpa/mpa_gcd.c:258
    8514:	aa1303e1 	mov	x1, x19
    8518:	aa1703e0 	mov	x0, x23
    851c:	94000220 	bl	8d9c <mpa_free_static_temp_var>
/home/zliu/ubuntu-optee-rpi3/RPi3_OPTEE_3.1/optee_os/lib/libmpa/mpa_gcd.c:259
    8520:	aa1303e1 	mov	x1, x19
    8524:	aa1603e0 	mov	x0, x22
    8528:	9400021d 	bl	8d9c <mpa_free_static_temp_var>
/home/zliu/ubuntu-optee-rpi3/RPi3_OPTEE_3.1/optee_os/lib/libmpa/mpa_gcd.c:260
    852c:	aa1303e1 	mov	x1, x19
    8530:	aa1503e0 	mov	x0, x21
    8534:	9400021a 	bl	8d9c <mpa_free_static_temp_var>
/home/zliu/ubuntu-optee-rpi3/RPi3_OPTEE_3.1/optee_os/lib/libmpa/mpa_gcd.c:261
    8538:	a94153f3 	ldp	x19, x20, [sp, #16]
    853c:	a9425bf5 	ldp	x21, x22, [sp, #32]
    8540:	a94363f7 	ldp	x23, x24, [sp, #48]
    8544:	a8c67bfd 	ldp	x29, x30, [sp], #96
    8548:	d65f03c0 	ret
/home/zliu/ubuntu-optee-rpi3/RPi3_OPTEE_3.1/optee_os/lib/libmpa/mpa_gcd.c:233
    854c:	f9402ba0 	ldr	x0, [x29, #80]
    8550:	97fffb47 	bl	726c <mpa_parity>
    8554:	35fffca0 	cbnz	w0, 84e8 <__mpa_gcd.part.0+0x6c>
/home/zliu/ubuntu-optee-rpi3/RPi3_OPTEE_3.1/optee_os/lib/libmpa/mpa_gcd.c:235
    8558:	f94027a0 	ldr	x0, [x29, #72]
/home/zliu/ubuntu-optee-rpi3/RPi3_OPTEE_3.1/optee_os/lib/libmpa/mpa_gcd.c:234
    855c:	11000694 	add	w20, w20, #0x1
/home/zliu/ubuntu-optee-rpi3/RPi3_OPTEE_3.1/optee_os/lib/libmpa/mpa_gcd.c:235
    8560:	97ffffa7 	bl	83fc <__mpa_divby2>
/home/zliu/ubuntu-optee-rpi3/RPi3_OPTEE_3.1/optee_os/lib/libmpa/mpa_gcd.c:236
    8564:	f9402ba0 	ldr	x0, [x29, #80]
    8568:	97ffffa5 	bl	83fc <__mpa_divby2>
    856c:	17ffffdc 	b	84dc <__mpa_gcd.part.0+0x60>
/home/zliu/ubuntu-optee-rpi3/RPi3_OPTEE_3.1/optee_os/lib/libmpa/mpa_gcd.c:242
    8570:	f94027a0 	ldr	x0, [x29, #72]
    8574:	97ffffa2 	bl	83fc <__mpa_divby2>
/home/zliu/ubuntu-optee-rpi3/RPi3_OPTEE_3.1/optee_os/lib/libmpa/mpa_gcd.c:241
    8578:	f94027a0 	ldr	x0, [x29, #72]
    857c:	97fffb3c 	bl	726c <mpa_parity>
    8580:	34ffff80 	cbz	w0, 8570 <__mpa_gcd.part.0+0xf4>
/home/zliu/ubuntu-optee-rpi3/RPi3_OPTEE_3.1/optee_os/lib/libmpa/mpa_gcd.c:244
    8584:	f9402ba0 	ldr	x0, [x29, #80]
    8588:	97fffb39 	bl	726c <mpa_parity>
    858c:	34000240 	cbz	w0, 85d4 <__mpa_gcd.part.0+0x158>
/home/zliu/ubuntu-optee-rpi3/RPi3_OPTEE_3.1/optee_os/lib/libmpa/mpa_gcd.c:247
    8590:	a9448ba1 	ldp	x1, x2, [x29, #72]
    8594:	aa1303e3 	mov	x3, x19
    8598:	f9402fa0 	ldr	x0, [x29, #88]
    859c:	94000573 	bl	9b68 <mpa_sub>
/home/zliu/ubuntu-optee-rpi3/RPi3_OPTEE_3.1/optee_os/lib/libmpa/mpa_gcd.c:249
    85a0:	f9402fa0 	ldr	x0, [x29, #88]
    85a4:	b9400401 	ldr	w1, [x0, #4]
    85a8:	36f80061 	tbz	w1, #31, 85b4 <__mpa_gcd.part.0+0x138>
    85ac:	4b0103e1 	neg	w1, w1
    85b0:	b9000401 	str	w1, [x0, #4]
/home/zliu/ubuntu-optee-rpi3/RPi3_OPTEE_3.1/optee_os/lib/libmpa/mpa_gcd.c:250
    85b4:	97ffff92 	bl	83fc <__mpa_divby2>
/home/zliu/ubuntu-optee-rpi3/RPi3_OPTEE_3.1/optee_os/lib/libmpa/mpa_gcd.c:251
    85b8:	a94487a0 	ldp	x0, x1, [x29, #72]
    85bc:	940006b3 	bl	a088 <mpa_cmp>
/home/zliu/ubuntu-optee-rpi3/RPi3_OPTEE_3.1/optee_os/lib/libmpa/mpa_gcd.c:252
    85c0:	f9402fa1 	ldr	x1, [x29, #88]
/home/zliu/ubuntu-optee-rpi3/RPi3_OPTEE_3.1/optee_os/lib/libmpa/mpa_gcd.c:251
    85c4:	37f800e0 	tbnz	w0, #31, 85e0 <__mpa_gcd.part.0+0x164>
/home/zliu/ubuntu-optee-rpi3/RPi3_OPTEE_3.1/optee_os/lib/libmpa/mpa_gcd.c:252
    85c8:	f94027a0 	ldr	x0, [x29, #72]
/home/zliu/ubuntu-optee-rpi3/RPi3_OPTEE_3.1/optee_os/lib/libmpa/mpa_gcd.c:254
    85cc:	97fffade 	bl	7144 <mpa_copy>
    85d0:	17ffffca 	b	84f8 <__mpa_gcd.part.0+0x7c>
/home/zliu/ubuntu-optee-rpi3/RPi3_OPTEE_3.1/optee_os/lib/libmpa/mpa_gcd.c:245
    85d4:	f9402ba0 	ldr	x0, [x29, #80]
    85d8:	97ffff89 	bl	83fc <__mpa_divby2>
    85dc:	17ffffea 	b	8584 <__mpa_gcd.part.0+0x108>
/home/zliu/ubuntu-optee-rpi3/RPi3_OPTEE_3.1/optee_os/lib/libmpa/mpa_gcd.c:254
    85e0:	f9402ba0 	ldr	x0, [x29, #80]
    85e4:	17fffffa 	b	85cc <__mpa_gcd.part.0+0x150>

00000000000085e8 <__mpa_egcd>:
__mpa_egcd():
/home/zliu/ubuntu-optee-rpi3/RPi3_OPTEE_3.1/optee_os/lib/libmpa/mpa_gcd.c:117
    85e8:	a9b57bfd 	stp	x29, x30, [sp, #-176]!
    85ec:	910003fd 	mov	x29, sp
    85f0:	a90153f3 	stp	x19, x20, [sp, #16]
    85f4:	aa0003f4 	mov	x20, x0
/home/zliu/ubuntu-optee-rpi3/RPi3_OPTEE_3.1/optee_os/lib/libmpa/mpa_gcd.c:128
    85f8:	b9400480 	ldr	w0, [x4, #4]
/home/zliu/ubuntu-optee-rpi3/RPi3_OPTEE_3.1/optee_os/lib/libmpa/mpa_gcd.c:117
    85fc:	a9025bf5 	stp	x21, x22, [sp, #32]
    8600:	aa0103f6 	mov	x22, x1
    8604:	a9046bf9 	stp	x25, x26, [sp, #64]
    8608:	aa0203f5 	mov	x21, x2
    860c:	a90363f7 	stp	x23, x24, [sp, #48]
    8610:	aa0303f9 	mov	x25, x3
    8614:	a90573fb 	stp	x27, x28, [sp, #80]
/home/zliu/ubuntu-optee-rpi3/RPi3_OPTEE_3.1/optee_os/lib/libmpa/mpa_gcd.c:128
    8618:	35000260 	cbnz	w0, 8664 <__mpa_egcd+0x7c>
/home/zliu/ubuntu-optee-rpi3/RPi3_OPTEE_3.1/optee_os/lib/libmpa/mpa_gcd.c:129
    861c:	b4000081 	cbz	x1, 862c <__mpa_egcd+0x44>
/home/zliu/ubuntu-optee-rpi3/RPi3_OPTEE_3.1/optee_os/lib/libmpa/mpa_gcd.c:130
    8620:	52800021 	mov	w1, #0x1                   	// #1
    8624:	aa1603e0 	mov	x0, x22
    8628:	97fffd26 	bl	7ac0 <mpa_set_word>
/home/zliu/ubuntu-optee-rpi3/RPi3_OPTEE_3.1/optee_os/lib/libmpa/mpa_gcd.c:131
    862c:	b4000095 	cbz	x21, 863c <__mpa_egcd+0x54>
/home/zliu/ubuntu-optee-rpi3/RPi3_OPTEE_3.1/optee_os/lib/libmpa/mpa_gcd.c:132
    8630:	52800001 	mov	w1, #0x0                   	// #0
    8634:	aa1503e0 	mov	x0, x21
    8638:	97fffd22 	bl	7ac0 <mpa_set_word>
/home/zliu/ubuntu-optee-rpi3/RPi3_OPTEE_3.1/optee_os/lib/libmpa/mpa_gcd.c:133
    863c:	aa1903e1 	mov	x1, x25
    8640:	aa1403e0 	mov	x0, x20
    8644:	97fffac0 	bl	7144 <mpa_copy>
/home/zliu/ubuntu-optee-rpi3/RPi3_OPTEE_3.1/optee_os/lib/libmpa/mpa_gcd.c:206
    8648:	a94153f3 	ldp	x19, x20, [sp, #16]
    864c:	a9425bf5 	ldp	x21, x22, [sp, #32]
    8650:	a94363f7 	ldp	x23, x24, [sp, #48]
    8654:	a9446bf9 	ldp	x25, x26, [sp, #64]
    8658:	a94573fb 	ldp	x27, x28, [sp, #80]
    865c:	a8cb7bfd 	ldp	x29, x30, [sp], #176
    8660:	d65f03c0 	ret
/home/zliu/ubuntu-optee-rpi3/RPi3_OPTEE_3.1/optee_os/lib/libmpa/mpa_gcd.c:136
    8664:	910263b8 	add	x24, x29, #0x98
    8668:	aa0403f7 	mov	x23, x4
    866c:	aa0503f3 	mov	x19, x5
    8670:	aa0503e1 	mov	x1, x5
    8674:	aa1803e0 	mov	x0, x24
    8678:	940001c5 	bl	8d8c <mpa_alloc_static_temp_var>
/home/zliu/ubuntu-optee-rpi3/RPi3_OPTEE_3.1/optee_os/lib/libmpa/mpa_gcd.c:137
    867c:	f9404fa0 	ldr	x0, [x29, #152]
    8680:	aa1903e1 	mov	x1, x25
    8684:	97fffab0 	bl	7144 <mpa_copy>
/home/zliu/ubuntu-optee-rpi3/RPi3_OPTEE_3.1/optee_os/lib/libmpa/mpa_gcd.c:138
    8688:	910283a0 	add	x0, x29, #0xa0
    868c:	aa1303e1 	mov	x1, x19
    8690:	f90037a0 	str	x0, [x29, #104]
    8694:	940001be 	bl	8d8c <mpa_alloc_static_temp_var>
/home/zliu/ubuntu-optee-rpi3/RPi3_OPTEE_3.1/optee_os/lib/libmpa/mpa_gcd.c:139
    8698:	f94053a0 	ldr	x0, [x29, #160]
    869c:	aa1703e1 	mov	x1, x23
/home/zliu/ubuntu-optee-rpi3/RPi3_OPTEE_3.1/optee_os/lib/libmpa/mpa_gcd.c:141
    86a0:	52800017 	mov	w23, #0x0                   	// #0
/home/zliu/ubuntu-optee-rpi3/RPi3_OPTEE_3.1/optee_os/lib/libmpa/mpa_gcd.c:139
    86a4:	97fffaa8 	bl	7144 <mpa_copy>
/home/zliu/ubuntu-optee-rpi3/RPi3_OPTEE_3.1/optee_os/lib/libmpa/mpa_gcd.c:142
    86a8:	f9404fa0 	ldr	x0, [x29, #152]
    86ac:	97fffaf0 	bl	726c <mpa_parity>
    86b0:	34000980 	cbz	w0, 87e0 <__mpa_egcd+0x1f8>
/home/zliu/ubuntu-optee-rpi3/RPi3_OPTEE_3.1/optee_os/lib/libmpa/mpa_gcd.c:148
    86b4:	9102a3a0 	add	x0, x29, #0xa8
    86b8:	aa1303e1 	mov	x1, x19
    86bc:	f90033a0 	str	x0, [x29, #96]
    86c0:	940001b3 	bl	8d8c <mpa_alloc_static_temp_var>
/home/zliu/ubuntu-optee-rpi3/RPi3_OPTEE_3.1/optee_os/lib/libmpa/mpa_gcd.c:149
    86c4:	f9404fa1 	ldr	x1, [x29, #152]
/home/zliu/ubuntu-optee-rpi3/RPi3_OPTEE_3.1/optee_os/lib/libmpa/mpa_gcd.c:151
    86c8:	9101e3bc 	add	x28, x29, #0x78
/home/zliu/ubuntu-optee-rpi3/RPi3_OPTEE_3.1/optee_os/lib/libmpa/mpa_gcd.c:149
    86cc:	f94057a0 	ldr	x0, [x29, #168]
/home/zliu/ubuntu-optee-rpi3/RPi3_OPTEE_3.1/optee_os/lib/libmpa/mpa_gcd.c:153
    86d0:	910203bb 	add	x27, x29, #0x80
/home/zliu/ubuntu-optee-rpi3/RPi3_OPTEE_3.1/optee_os/lib/libmpa/mpa_gcd.c:155
    86d4:	910223ba 	add	x26, x29, #0x88
/home/zliu/ubuntu-optee-rpi3/RPi3_OPTEE_3.1/optee_os/lib/libmpa/mpa_gcd.c:157
    86d8:	910243b9 	add	x25, x29, #0x90
/home/zliu/ubuntu-optee-rpi3/RPi3_OPTEE_3.1/optee_os/lib/libmpa/mpa_gcd.c:149
    86dc:	97fffa9a 	bl	7144 <mpa_copy>
/home/zliu/ubuntu-optee-rpi3/RPi3_OPTEE_3.1/optee_os/lib/libmpa/mpa_gcd.c:150
    86e0:	f94053a1 	ldr	x1, [x29, #160]
    86e4:	aa1403e0 	mov	x0, x20
    86e8:	97fffa97 	bl	7144 <mpa_copy>
/home/zliu/ubuntu-optee-rpi3/RPi3_OPTEE_3.1/optee_os/lib/libmpa/mpa_gcd.c:151
    86ec:	aa1303e1 	mov	x1, x19
    86f0:	aa1c03e0 	mov	x0, x28
    86f4:	940001a6 	bl	8d8c <mpa_alloc_static_temp_var>
/home/zliu/ubuntu-optee-rpi3/RPi3_OPTEE_3.1/optee_os/lib/libmpa/mpa_gcd.c:152
    86f8:	f9403fa0 	ldr	x0, [x29, #120]
    86fc:	52800021 	mov	w1, #0x1                   	// #1
    8700:	97fffcf0 	bl	7ac0 <mpa_set_word>
/home/zliu/ubuntu-optee-rpi3/RPi3_OPTEE_3.1/optee_os/lib/libmpa/mpa_gcd.c:153
    8704:	aa1303e1 	mov	x1, x19
    8708:	aa1b03e0 	mov	x0, x27
    870c:	940001a0 	bl	8d8c <mpa_alloc_static_temp_var>
/home/zliu/ubuntu-optee-rpi3/RPi3_OPTEE_3.1/optee_os/lib/libmpa/mpa_gcd.c:154
    8710:	f94043a0 	ldr	x0, [x29, #128]
    8714:	52800001 	mov	w1, #0x0                   	// #0
    8718:	97fffcea 	bl	7ac0 <mpa_set_word>
/home/zliu/ubuntu-optee-rpi3/RPi3_OPTEE_3.1/optee_os/lib/libmpa/mpa_gcd.c:155
    871c:	aa1303e1 	mov	x1, x19
    8720:	aa1a03e0 	mov	x0, x26
    8724:	9400019a 	bl	8d8c <mpa_alloc_static_temp_var>
/home/zliu/ubuntu-optee-rpi3/RPi3_OPTEE_3.1/optee_os/lib/libmpa/mpa_gcd.c:156
    8728:	f94047a0 	ldr	x0, [x29, #136]
    872c:	52800001 	mov	w1, #0x0                   	// #0
    8730:	97fffce4 	bl	7ac0 <mpa_set_word>
/home/zliu/ubuntu-optee-rpi3/RPi3_OPTEE_3.1/optee_os/lib/libmpa/mpa_gcd.c:157
    8734:	aa1303e1 	mov	x1, x19
    8738:	aa1903e0 	mov	x0, x25
    873c:	94000194 	bl	8d8c <mpa_alloc_static_temp_var>
/home/zliu/ubuntu-optee-rpi3/RPi3_OPTEE_3.1/optee_os/lib/libmpa/mpa_gcd.c:158
    8740:	f9404ba0 	ldr	x0, [x29, #144]
    8744:	52800021 	mov	w1, #0x1                   	// #1
    8748:	97fffcde 	bl	7ac0 <mpa_set_word>
/home/zliu/ubuntu-optee-rpi3/RPi3_OPTEE_3.1/optee_os/lib/libmpa/mpa_gcd.c:160
    874c:	f94057a0 	ldr	x0, [x29, #168]
    8750:	b9400400 	ldr	w0, [x0, #4]
    8754:	35000800 	cbnz	w0, 8854 <__mpa_egcd+0x26c>
/home/zliu/ubuntu-optee-rpi3/RPi3_OPTEE_3.1/optee_os/lib/libmpa/mpa_gcd.c:193
    8758:	b4000096 	cbz	x22, 8768 <__mpa_egcd+0x180>
/home/zliu/ubuntu-optee-rpi3/RPi3_OPTEE_3.1/optee_os/lib/libmpa/mpa_gcd.c:194
    875c:	f94047a1 	ldr	x1, [x29, #136]
    8760:	aa1603e0 	mov	x0, x22
    8764:	97fffa78 	bl	7144 <mpa_copy>
/home/zliu/ubuntu-optee-rpi3/RPi3_OPTEE_3.1/optee_os/lib/libmpa/mpa_gcd.c:195
    8768:	b4000095 	cbz	x21, 8778 <__mpa_egcd+0x190>
/home/zliu/ubuntu-optee-rpi3/RPi3_OPTEE_3.1/optee_os/lib/libmpa/mpa_gcd.c:196
    876c:	f9404ba1 	ldr	x1, [x29, #144]
    8770:	aa1503e0 	mov	x0, x21
    8774:	97fffa74 	bl	7144 <mpa_copy>
/home/zliu/ubuntu-optee-rpi3/RPi3_OPTEE_3.1/optee_os/lib/libmpa/mpa_gcd.c:197
    8778:	2a1703e2 	mov	w2, w23
    877c:	aa1403e1 	mov	x1, x20
    8780:	aa1403e0 	mov	x0, x20
    8784:	94000316 	bl	93dc <mpa_shift_left>
/home/zliu/ubuntu-optee-rpi3/RPi3_OPTEE_3.1/optee_os/lib/libmpa/mpa_gcd.c:199
    8788:	aa1303e1 	mov	x1, x19
    878c:	aa1c03e0 	mov	x0, x28
    8790:	94000183 	bl	8d9c <mpa_free_static_temp_var>
/home/zliu/ubuntu-optee-rpi3/RPi3_OPTEE_3.1/optee_os/lib/libmpa/mpa_gcd.c:200
    8794:	aa1303e1 	mov	x1, x19
    8798:	aa1b03e0 	mov	x0, x27
    879c:	94000180 	bl	8d9c <mpa_free_static_temp_var>
/home/zliu/ubuntu-optee-rpi3/RPi3_OPTEE_3.1/optee_os/lib/libmpa/mpa_gcd.c:201
    87a0:	aa1303e1 	mov	x1, x19
    87a4:	aa1a03e0 	mov	x0, x26
    87a8:	9400017d 	bl	8d9c <mpa_free_static_temp_var>
/home/zliu/ubuntu-optee-rpi3/RPi3_OPTEE_3.1/optee_os/lib/libmpa/mpa_gcd.c:202
    87ac:	aa1303e1 	mov	x1, x19
    87b0:	aa1903e0 	mov	x0, x25
    87b4:	9400017a 	bl	8d9c <mpa_free_static_temp_var>
/home/zliu/ubuntu-optee-rpi3/RPi3_OPTEE_3.1/optee_os/lib/libmpa/mpa_gcd.c:203
    87b8:	aa1303e1 	mov	x1, x19
    87bc:	aa1803e0 	mov	x0, x24
    87c0:	94000177 	bl	8d9c <mpa_free_static_temp_var>
/home/zliu/ubuntu-optee-rpi3/RPi3_OPTEE_3.1/optee_os/lib/libmpa/mpa_gcd.c:204
    87c4:	f94037a0 	ldr	x0, [x29, #104]
    87c8:	aa1303e1 	mov	x1, x19
    87cc:	94000174 	bl	8d9c <mpa_free_static_temp_var>
/home/zliu/ubuntu-optee-rpi3/RPi3_OPTEE_3.1/optee_os/lib/libmpa/mpa_gcd.c:205
    87d0:	f94033a0 	ldr	x0, [x29, #96]
    87d4:	aa1303e1 	mov	x1, x19
    87d8:	94000171 	bl	8d9c <mpa_free_static_temp_var>
    87dc:	17ffff9b 	b	8648 <__mpa_egcd+0x60>
/home/zliu/ubuntu-optee-rpi3/RPi3_OPTEE_3.1/optee_os/lib/libmpa/mpa_gcd.c:142
    87e0:	f94053a0 	ldr	x0, [x29, #160]
    87e4:	97fffaa2 	bl	726c <mpa_parity>
    87e8:	35fff660 	cbnz	w0, 86b4 <__mpa_egcd+0xcc>
/home/zliu/ubuntu-optee-rpi3/RPi3_OPTEE_3.1/optee_os/lib/libmpa/mpa_gcd.c:144
    87ec:	f9404fa0 	ldr	x0, [x29, #152]
/home/zliu/ubuntu-optee-rpi3/RPi3_OPTEE_3.1/optee_os/lib/libmpa/mpa_gcd.c:143
    87f0:	110006f7 	add	w23, w23, #0x1
/home/zliu/ubuntu-optee-rpi3/RPi3_OPTEE_3.1/optee_os/lib/libmpa/mpa_gcd.c:144
    87f4:	97ffff02 	bl	83fc <__mpa_divby2>
/home/zliu/ubuntu-optee-rpi3/RPi3_OPTEE_3.1/optee_os/lib/libmpa/mpa_gcd.c:145
    87f8:	f94053a0 	ldr	x0, [x29, #160]
    87fc:	97ffff00 	bl	83fc <__mpa_divby2>
    8800:	17ffffaa 	b	86a8 <__mpa_egcd+0xc0>
/home/zliu/ubuntu-optee-rpi3/RPi3_OPTEE_3.1/optee_os/lib/libmpa/mpa_gcd.c:162
    8804:	f94057a0 	ldr	x0, [x29, #168]
    8808:	97fffefd 	bl	83fc <__mpa_divby2>
/home/zliu/ubuntu-optee-rpi3/RPi3_OPTEE_3.1/optee_os/lib/libmpa/mpa_gcd.c:163
    880c:	f9403fa0 	ldr	x0, [x29, #120]
    8810:	97fffa97 	bl	726c <mpa_parity>
    8814:	7100041f 	cmp	w0, #0x1
    8818:	54000521 	b.ne	88bc <__mpa_egcd+0x2d4>  // b.any
/home/zliu/ubuntu-optee-rpi3/RPi3_OPTEE_3.1/optee_os/lib/libmpa/mpa_gcd.c:164
    881c:	f9403fa1 	ldr	x1, [x29, #120]
    8820:	aa1303e3 	mov	x3, x19
    8824:	f94053a2 	ldr	x2, [x29, #160]
    8828:	aa0103e0 	mov	x0, x1
    882c:	9400046a 	bl	99d4 <mpa_add>
/home/zliu/ubuntu-optee-rpi3/RPi3_OPTEE_3.1/optee_os/lib/libmpa/mpa_gcd.c:165
    8830:	f94043a1 	ldr	x1, [x29, #128]
    8834:	aa1303e3 	mov	x3, x19
    8838:	f9404fa2 	ldr	x2, [x29, #152]
    883c:	aa0103e0 	mov	x0, x1
    8840:	940004ca 	bl	9b68 <mpa_sub>
/home/zliu/ubuntu-optee-rpi3/RPi3_OPTEE_3.1/optee_os/lib/libmpa/mpa_gcd.c:167
    8844:	f9403fa0 	ldr	x0, [x29, #120]
    8848:	97fffeed 	bl	83fc <__mpa_divby2>
/home/zliu/ubuntu-optee-rpi3/RPi3_OPTEE_3.1/optee_os/lib/libmpa/mpa_gcd.c:168
    884c:	f94043a0 	ldr	x0, [x29, #128]
    8850:	97fffeeb 	bl	83fc <__mpa_divby2>
/home/zliu/ubuntu-optee-rpi3/RPi3_OPTEE_3.1/optee_os/lib/libmpa/mpa_gcd.c:161
    8854:	f94057a0 	ldr	x0, [x29, #168]
    8858:	97fffa85 	bl	726c <mpa_parity>
    885c:	34fffd40 	cbz	w0, 8804 <__mpa_egcd+0x21c>
/home/zliu/ubuntu-optee-rpi3/RPi3_OPTEE_3.1/optee_os/lib/libmpa/mpa_gcd.c:171
    8860:	aa1403e0 	mov	x0, x20
    8864:	97fffa82 	bl	726c <mpa_parity>
    8868:	34000340 	cbz	w0, 88d0 <__mpa_egcd+0x2e8>
/home/zliu/ubuntu-optee-rpi3/RPi3_OPTEE_3.1/optee_os/lib/libmpa/mpa_gcd.c:181
    886c:	f94057a0 	ldr	x0, [x29, #168]
    8870:	aa1403e1 	mov	x1, x20
    8874:	94000605 	bl	a088 <mpa_cmp>
/home/zliu/ubuntu-optee-rpi3/RPi3_OPTEE_3.1/optee_os/lib/libmpa/mpa_gcd.c:182
    8878:	aa1303e3 	mov	x3, x19
/home/zliu/ubuntu-optee-rpi3/RPi3_OPTEE_3.1/optee_os/lib/libmpa/mpa_gcd.c:181
    887c:	37f805c0 	tbnz	w0, #31, 8934 <__mpa_egcd+0x34c>
/home/zliu/ubuntu-optee-rpi3/RPi3_OPTEE_3.1/optee_os/lib/libmpa/mpa_gcd.c:182
    8880:	f94057a1 	ldr	x1, [x29, #168]
    8884:	aa1403e2 	mov	x2, x20
    8888:	aa0103e0 	mov	x0, x1
    888c:	940004b7 	bl	9b68 <mpa_sub>
/home/zliu/ubuntu-optee-rpi3/RPi3_OPTEE_3.1/optee_os/lib/libmpa/mpa_gcd.c:183
    8890:	f9403fa1 	ldr	x1, [x29, #120]
    8894:	aa1303e3 	mov	x3, x19
    8898:	f94047a2 	ldr	x2, [x29, #136]
    889c:	aa0103e0 	mov	x0, x1
    88a0:	940004b2 	bl	9b68 <mpa_sub>
/home/zliu/ubuntu-optee-rpi3/RPi3_OPTEE_3.1/optee_os/lib/libmpa/mpa_gcd.c:184
    88a4:	f94043a1 	ldr	x1, [x29, #128]
    88a8:	aa1303e3 	mov	x3, x19
    88ac:	f9404ba2 	ldr	x2, [x29, #144]
/home/zliu/ubuntu-optee-rpi3/RPi3_OPTEE_3.1/optee_os/lib/libmpa/mpa_gcd.c:188
    88b0:	aa0103e0 	mov	x0, x1
    88b4:	940004ad 	bl	9b68 <mpa_sub>
    88b8:	17ffffa5 	b	874c <__mpa_egcd+0x164>
/home/zliu/ubuntu-optee-rpi3/RPi3_OPTEE_3.1/optee_os/lib/libmpa/mpa_gcd.c:163
    88bc:	f94043a0 	ldr	x0, [x29, #128]
    88c0:	97fffa6b 	bl	726c <mpa_parity>
    88c4:	7100041f 	cmp	w0, #0x1
    88c8:	54fffbe1 	b.ne	8844 <__mpa_egcd+0x25c>  // b.any
    88cc:	17ffffd4 	b	881c <__mpa_egcd+0x234>
/home/zliu/ubuntu-optee-rpi3/RPi3_OPTEE_3.1/optee_os/lib/libmpa/mpa_gcd.c:172
    88d0:	aa1403e0 	mov	x0, x20
    88d4:	97fffeca 	bl	83fc <__mpa_divby2>
/home/zliu/ubuntu-optee-rpi3/RPi3_OPTEE_3.1/optee_os/lib/libmpa/mpa_gcd.c:173
    88d8:	f94047a0 	ldr	x0, [x29, #136]
    88dc:	97fffa64 	bl	726c <mpa_parity>
    88e0:	7100041f 	cmp	w0, #0x1
    88e4:	540001e1 	b.ne	8920 <__mpa_egcd+0x338>  // b.any
/home/zliu/ubuntu-optee-rpi3/RPi3_OPTEE_3.1/optee_os/lib/libmpa/mpa_gcd.c:174
    88e8:	f94047a1 	ldr	x1, [x29, #136]
    88ec:	aa1303e3 	mov	x3, x19
    88f0:	f94053a2 	ldr	x2, [x29, #160]
    88f4:	aa0103e0 	mov	x0, x1
    88f8:	94000437 	bl	99d4 <mpa_add>
/home/zliu/ubuntu-optee-rpi3/RPi3_OPTEE_3.1/optee_os/lib/libmpa/mpa_gcd.c:175
    88fc:	a9490ba1 	ldp	x1, x2, [x29, #144]
    8900:	aa1303e3 	mov	x3, x19
    8904:	aa0103e0 	mov	x0, x1
    8908:	94000498 	bl	9b68 <mpa_sub>
/home/zliu/ubuntu-optee-rpi3/RPi3_OPTEE_3.1/optee_os/lib/libmpa/mpa_gcd.c:177
    890c:	f94047a0 	ldr	x0, [x29, #136]
    8910:	97fffebb 	bl	83fc <__mpa_divby2>
/home/zliu/ubuntu-optee-rpi3/RPi3_OPTEE_3.1/optee_os/lib/libmpa/mpa_gcd.c:178
    8914:	f9404ba0 	ldr	x0, [x29, #144]
    8918:	97fffeb9 	bl	83fc <__mpa_divby2>
    891c:	17ffffd1 	b	8860 <__mpa_egcd+0x278>
/home/zliu/ubuntu-optee-rpi3/RPi3_OPTEE_3.1/optee_os/lib/libmpa/mpa_gcd.c:173
    8920:	f9404ba0 	ldr	x0, [x29, #144]
    8924:	97fffa52 	bl	726c <mpa_parity>
    8928:	7100041f 	cmp	w0, #0x1
    892c:	54ffff01 	b.ne	890c <__mpa_egcd+0x324>  // b.any
    8930:	17ffffee 	b	88e8 <__mpa_egcd+0x300>
/home/zliu/ubuntu-optee-rpi3/RPi3_OPTEE_3.1/optee_os/lib/libmpa/mpa_gcd.c:186
    8934:	f94057a2 	ldr	x2, [x29, #168]
    8938:	aa1403e1 	mov	x1, x20
    893c:	aa1403e0 	mov	x0, x20
    8940:	9400048a 	bl	9b68 <mpa_sub>
/home/zliu/ubuntu-optee-rpi3/RPi3_OPTEE_3.1/optee_os/lib/libmpa/mpa_gcd.c:187
    8944:	f94047a1 	ldr	x1, [x29, #136]
    8948:	aa1303e3 	mov	x3, x19
    894c:	f9403fa2 	ldr	x2, [x29, #120]
    8950:	aa0103e0 	mov	x0, x1
    8954:	94000485 	bl	9b68 <mpa_sub>
/home/zliu/ubuntu-optee-rpi3/RPi3_OPTEE_3.1/optee_os/lib/libmpa/mpa_gcd.c:188
    8958:	aa1303e3 	mov	x3, x19
    895c:	f94043a2 	ldr	x2, [x29, #128]
    8960:	f9404ba1 	ldr	x1, [x29, #144]
    8964:	17ffffd3 	b	88b0 <__mpa_egcd+0x2c8>

0000000000008968 <mpa_gcd>:
mpa_gcd():
/home/zliu/ubuntu-optee-rpi3/RPi3_OPTEE_3.1/optee_os/lib/libmpa/mpa_gcd.c:276
    8968:	a9bc7bfd 	stp	x29, x30, [sp, #-64]!
    896c:	910003fd 	mov	x29, sp
    8970:	a90153f3 	stp	x19, x20, [sp, #16]
    8974:	aa0203f3 	mov	x19, x2
    8978:	a9025bf5 	stp	x21, x22, [sp, #32]
    897c:	aa0003f6 	mov	x22, x0
/home/zliu/ubuntu-optee-rpi3/RPi3_OPTEE_3.1/optee_os/lib/libmpa/mpa_gcd.c:282
    8980:	b9400420 	ldr	w0, [x1, #4]
/home/zliu/ubuntu-optee-rpi3/RPi3_OPTEE_3.1/optee_os/lib/libmpa/mpa_gcd.c:276
    8984:	aa0103f4 	mov	x20, x1
/home/zliu/ubuntu-optee-rpi3/RPi3_OPTEE_3.1/optee_os/lib/libmpa/mpa_gcd.c:283
    8988:	b9400661 	ldr	w1, [x19, #4]
/home/zliu/ubuntu-optee-rpi3/RPi3_OPTEE_3.1/optee_os/lib/libmpa/mpa_gcd.c:282
    898c:	52800022 	mov	w2, #0x1                   	// #1
    8990:	7100001f 	cmp	w0, #0x0
/home/zliu/ubuntu-optee-rpi3/RPi3_OPTEE_3.1/optee_os/lib/libmpa/mpa_gcd.c:276
    8994:	a90363f7 	stp	x23, x24, [sp, #48]
    8998:	aa0303f8 	mov	x24, x3
/home/zliu/ubuntu-optee-rpi3/RPi3_OPTEE_3.1/optee_os/lib/libmpa/mpa_gcd.c:282
    899c:	5a82a457 	cneg	w23, w2, lt  // lt = tstop
/home/zliu/ubuntu-optee-rpi3/RPi3_OPTEE_3.1/optee_os/lib/libmpa/mpa_gcd.c:283
    89a0:	36f806e1 	tbz	w1, #31, 8a7c <mpa_gcd+0x114>
    89a4:	12800015 	mov	w21, #0xffffffff            	// #-1
/home/zliu/ubuntu-optee-rpi3/RPi3_OPTEE_3.1/optee_os/lib/libmpa/mpa_gcd.c:284
    89a8:	36f800a0 	tbz	w0, #31, 89bc <mpa_gcd+0x54>
/home/zliu/ubuntu-optee-rpi3/RPi3_OPTEE_3.1/optee_os/lib/libmpa/mpa_gcd.c:284 (discriminator 1)
    89ac:	4b0003e0 	neg	w0, w0
    89b0:	b9000680 	str	w0, [x20, #4]
/home/zliu/ubuntu-optee-rpi3/RPi3_OPTEE_3.1/optee_os/lib/libmpa/mpa_gcd.c:285 (discriminator 1)
    89b4:	b9400661 	ldr	w1, [x19, #4]
    89b8:	36f80061 	tbz	w1, #31, 89c4 <mpa_gcd+0x5c>
    89bc:	4b0103e1 	neg	w1, w1
    89c0:	b9000661 	str	w1, [x19, #4]
/home/zliu/ubuntu-optee-rpi3/RPi3_OPTEE_3.1/optee_os/lib/libmpa/mpa_gcd.c:287
    89c4:	aa1303e1 	mov	x1, x19
    89c8:	aa1403e0 	mov	x0, x20
    89cc:	940005af 	bl	a088 <mpa_cmp>
/home/zliu/ubuntu-optee-rpi3/RPi3_OPTEE_3.1/optee_os/lib/libmpa/mpa_gcd.c:288
    89d0:	7100001f 	cmp	w0, #0x0
    89d4:	54000321 	b.ne	8a38 <mpa_gcd+0xd0>  // b.any
/home/zliu/ubuntu-optee-rpi3/RPi3_OPTEE_3.1/optee_os/lib/libmpa/mpa_gcd.c:289
    89d8:	aa1403e1 	mov	x1, x20
__mpa_gcd():
/home/zliu/ubuntu-optee-rpi3/RPi3_OPTEE_3.1/optee_os/lib/libmpa/mpa_gcd.c:224
    89dc:	aa1603e0 	mov	x0, x22
    89e0:	97fff9d9 	bl	7144 <mpa_copy>
mpa_gcd():
/home/zliu/ubuntu-optee-rpi3/RPi3_OPTEE_3.1/optee_os/lib/libmpa/mpa_gcd.c:300
    89e4:	b9400680 	ldr	w0, [x20, #4]
    89e8:	52800021 	mov	w1, #0x1                   	// #1
    89ec:	7100001f 	cmp	w0, #0x0
    89f0:	5a81a421 	cneg	w1, w1, lt  // lt = tstop
    89f4:	6b0102ff 	cmp	w23, w1
    89f8:	54000060 	b.eq	8a04 <mpa_gcd+0x9c>  // b.none
/home/zliu/ubuntu-optee-rpi3/RPi3_OPTEE_3.1/optee_os/lib/libmpa/mpa_gcd.c:300 (discriminator 5)
    89fc:	4b0003e0 	neg	w0, w0
    8a00:	b9000680 	str	w0, [x20, #4]
/home/zliu/ubuntu-optee-rpi3/RPi3_OPTEE_3.1/optee_os/lib/libmpa/mpa_gcd.c:301
    8a04:	b9400660 	ldr	w0, [x19, #4]
    8a08:	52800021 	mov	w1, #0x1                   	// #1
    8a0c:	7100001f 	cmp	w0, #0x0
    8a10:	5a81a421 	cneg	w1, w1, lt  // lt = tstop
    8a14:	6b15003f 	cmp	w1, w21
    8a18:	54000060 	b.eq	8a24 <mpa_gcd+0xbc>  // b.none
/home/zliu/ubuntu-optee-rpi3/RPi3_OPTEE_3.1/optee_os/lib/libmpa/mpa_gcd.c:301 (discriminator 5)
    8a1c:	4b0003e0 	neg	w0, w0
    8a20:	b9000660 	str	w0, [x19, #4]
/home/zliu/ubuntu-optee-rpi3/RPi3_OPTEE_3.1/optee_os/lib/libmpa/mpa_gcd.c:302
    8a24:	a94153f3 	ldp	x19, x20, [sp, #16]
    8a28:	a9425bf5 	ldp	x21, x22, [sp, #32]
    8a2c:	a94363f7 	ldp	x23, x24, [sp, #48]
    8a30:	a8c47bfd 	ldp	x29, x30, [sp], #64
    8a34:	d65f03c0 	ret
/home/zliu/ubuntu-optee-rpi3/RPi3_OPTEE_3.1/optee_os/lib/libmpa/mpa_gcd.c:292
    8a38:	5400016a 	b.ge	8a64 <mpa_gcd+0xfc>  // b.tcont
__mpa_gcd():
/home/zliu/ubuntu-optee-rpi3/RPi3_OPTEE_3.1/optee_os/lib/libmpa/mpa_gcd.c:223
    8a3c:	b9400680 	ldr	w0, [x20, #4]
    8a40:	35000060 	cbnz	w0, 8a4c <mpa_gcd+0xe4>
/home/zliu/ubuntu-optee-rpi3/RPi3_OPTEE_3.1/optee_os/lib/libmpa/mpa_gcd.c:224
    8a44:	aa1303e1 	mov	x1, x19
    8a48:	17ffffe5 	b	89dc <mpa_gcd+0x74>
    8a4c:	aa1803e3 	mov	x3, x24
    8a50:	aa1403e2 	mov	x2, x20
    8a54:	aa1303e1 	mov	x1, x19
    8a58:	aa1603e0 	mov	x0, x22
    8a5c:	97fffe88 	bl	847c <__mpa_gcd.part.0>
    8a60:	17ffffe1 	b	89e4 <mpa_gcd+0x7c>
/home/zliu/ubuntu-optee-rpi3/RPi3_OPTEE_3.1/optee_os/lib/libmpa/mpa_gcd.c:223
    8a64:	b9400660 	ldr	w0, [x19, #4]
    8a68:	34fffb80 	cbz	w0, 89d8 <mpa_gcd+0x70>
    8a6c:	aa1803e3 	mov	x3, x24
    8a70:	aa1303e2 	mov	x2, x19
    8a74:	aa1403e1 	mov	x1, x20
    8a78:	17fffff8 	b	8a58 <mpa_gcd+0xf0>
mpa_gcd():
/home/zliu/ubuntu-optee-rpi3/RPi3_OPTEE_3.1/optee_os/lib/libmpa/mpa_gcd.c:283
    8a7c:	2a0203f5 	mov	w21, w2
/home/zliu/ubuntu-optee-rpi3/RPi3_OPTEE_3.1/optee_os/lib/libmpa/mpa_gcd.c:284
    8a80:	36fffa20 	tbz	w0, #31, 89c4 <mpa_gcd+0x5c>
    8a84:	17ffffca 	b	89ac <mpa_gcd+0x44>

0000000000008a88 <mpa_extended_gcd>:
mpa_extended_gcd():
/home/zliu/ubuntu-optee-rpi3/RPi3_OPTEE_3.1/optee_os/lib/libmpa/mpa_gcd.c:318
    8a88:	a9b97bfd 	stp	x29, x30, [sp, #-112]!
/home/zliu/ubuntu-optee-rpi3/RPi3_OPTEE_3.1/optee_os/lib/libmpa/mpa_gcd.c:325
    8a8c:	f100003f 	cmp	x1, #0x0
    8a90:	fa400840 	ccmp	x2, #0x0, #0x0, eq  // eq = none
/home/zliu/ubuntu-optee-rpi3/RPi3_OPTEE_3.1/optee_os/lib/libmpa/mpa_gcd.c:318
    8a94:	910003fd 	mov	x29, sp
    8a98:	a90153f3 	stp	x19, x20, [sp, #16]
    8a9c:	aa0303f3 	mov	x19, x3
    8aa0:	a9025bf5 	stp	x21, x22, [sp, #32]
    8aa4:	aa0403f4 	mov	x20, x4
    8aa8:	a9046bf9 	stp	x25, x26, [sp, #64]
    8aac:	aa0003f6 	mov	x22, x0
    8ab0:	a90363f7 	stp	x23, x24, [sp, #48]
    8ab4:	aa0503f9 	mov	x25, x5
    8ab8:	a90573fb 	stp	x27, x28, [sp, #80]
/home/zliu/ubuntu-optee-rpi3/RPi3_OPTEE_3.1/optee_os/lib/libmpa/mpa_gcd.c:325
    8abc:	540001a1 	b.ne	8af0 <mpa_extended_gcd+0x68>  // b.any
/home/zliu/ubuntu-optee-rpi3/RPi3_OPTEE_3.1/optee_os/lib/libmpa/mpa_gcd.c:326
    8ac0:	b40000a0 	cbz	x0, 8ad4 <mpa_extended_gcd+0x4c>
/home/zliu/ubuntu-optee-rpi3/RPi3_OPTEE_3.1/optee_os/lib/libmpa/mpa_gcd.c:327
    8ac4:	aa0503e3 	mov	x3, x5
    8ac8:	aa0403e2 	mov	x2, x4
    8acc:	aa1303e1 	mov	x1, x19
    8ad0:	97ffffa6 	bl	8968 <mpa_gcd>
/home/zliu/ubuntu-optee-rpi3/RPi3_OPTEE_3.1/optee_os/lib/libmpa/mpa_gcd.c:373
    8ad4:	a94153f3 	ldp	x19, x20, [sp, #16]
    8ad8:	a9425bf5 	ldp	x21, x22, [sp, #32]
    8adc:	a94363f7 	ldp	x23, x24, [sp, #48]
    8ae0:	a9446bf9 	ldp	x25, x26, [sp, #64]
    8ae4:	a94573fb 	ldp	x27, x28, [sp, #80]
    8ae8:	a8c77bfd 	ldp	x29, x30, [sp], #112
    8aec:	d65f03c0 	ret
/home/zliu/ubuntu-optee-rpi3/RPi3_OPTEE_3.1/optee_os/lib/libmpa/mpa_gcd.c:332
    8af0:	b9400460 	ldr	w0, [x3, #4]
    8af4:	aa0103f7 	mov	x23, x1
/home/zliu/ubuntu-optee-rpi3/RPi3_OPTEE_3.1/optee_os/lib/libmpa/mpa_gcd.c:333
    8af8:	b9400481 	ldr	w1, [x4, #4]
/home/zliu/ubuntu-optee-rpi3/RPi3_OPTEE_3.1/optee_os/lib/libmpa/mpa_gcd.c:332
    8afc:	52800035 	mov	w21, #0x1                   	// #1
    8b00:	7100001f 	cmp	w0, #0x0
    8b04:	aa0203f8 	mov	x24, x2
    8b08:	5a95a6ba 	cneg	w26, w21, lt  // lt = tstop
/home/zliu/ubuntu-optee-rpi3/RPi3_OPTEE_3.1/optee_os/lib/libmpa/mpa_gcd.c:333
    8b0c:	36f80b01 	tbz	w1, #31, 8c6c <mpa_extended_gcd+0x1e4>
    8b10:	12800015 	mov	w21, #0xffffffff            	// #-1
/home/zliu/ubuntu-optee-rpi3/RPi3_OPTEE_3.1/optee_os/lib/libmpa/mpa_gcd.c:334
    8b14:	36f800a0 	tbz	w0, #31, 8b28 <mpa_extended_gcd+0xa0>
/home/zliu/ubuntu-optee-rpi3/RPi3_OPTEE_3.1/optee_os/lib/libmpa/mpa_gcd.c:334 (discriminator 1)
    8b18:	4b0003e0 	neg	w0, w0
    8b1c:	b9000660 	str	w0, [x19, #4]
/home/zliu/ubuntu-optee-rpi3/RPi3_OPTEE_3.1/optee_os/lib/libmpa/mpa_gcd.c:335 (discriminator 1)
    8b20:	b9400681 	ldr	w1, [x20, #4]
    8b24:	36f80061 	tbz	w1, #31, 8b30 <mpa_extended_gcd+0xa8>
    8b28:	4b0103e1 	neg	w1, w1
    8b2c:	b9000681 	str	w1, [x20, #4]
/home/zliu/ubuntu-optee-rpi3/RPi3_OPTEE_3.1/optee_os/lib/libmpa/mpa_gcd.c:337
    8b30:	aa1403e1 	mov	x1, x20
    8b34:	aa1303e0 	mov	x0, x19
    8b38:	94000554 	bl	a088 <mpa_cmp>
    8b3c:	2a0003fc 	mov	w28, w0
/home/zliu/ubuntu-optee-rpi3/RPi3_OPTEE_3.1/optee_os/lib/libmpa/mpa_gcd.c:338
    8b40:	35000540 	cbnz	w0, 8be8 <mpa_extended_gcd+0x160>
/home/zliu/ubuntu-optee-rpi3/RPi3_OPTEE_3.1/optee_os/lib/libmpa/mpa_gcd.c:339
    8b44:	b4000096 	cbz	x22, 8b54 <mpa_extended_gcd+0xcc>
/home/zliu/ubuntu-optee-rpi3/RPi3_OPTEE_3.1/optee_os/lib/libmpa/mpa_gcd.c:340
    8b48:	aa1303e1 	mov	x1, x19
    8b4c:	aa1603e0 	mov	x0, x22
    8b50:	97fff97d 	bl	7144 <mpa_copy>
/home/zliu/ubuntu-optee-rpi3/RPi3_OPTEE_3.1/optee_os/lib/libmpa/mpa_gcd.c:341
    8b54:	b4000097 	cbz	x23, 8b64 <mpa_extended_gcd+0xdc>
/home/zliu/ubuntu-optee-rpi3/RPi3_OPTEE_3.1/optee_os/lib/libmpa/mpa_gcd.c:342
    8b58:	52800021 	mov	w1, #0x1                   	// #1
    8b5c:	aa1703e0 	mov	x0, x23
    8b60:	97fffbd8 	bl	7ac0 <mpa_set_word>
/home/zliu/ubuntu-optee-rpi3/RPi3_OPTEE_3.1/optee_os/lib/libmpa/mpa_gcd.c:343
    8b64:	b4000098 	cbz	x24, 8b74 <mpa_extended_gcd+0xec>
/home/zliu/ubuntu-optee-rpi3/RPi3_OPTEE_3.1/optee_os/lib/libmpa/mpa_gcd.c:344
    8b68:	52800001 	mov	w1, #0x0                   	// #0
    8b6c:	aa1803e0 	mov	x0, x24
    8b70:	97fffbd4 	bl	7ac0 <mpa_set_word>
/home/zliu/ubuntu-optee-rpi3/RPi3_OPTEE_3.1/optee_os/lib/libmpa/mpa_gcd.c:366
    8b74:	b9400660 	ldr	w0, [x19, #4]
    8b78:	52800021 	mov	w1, #0x1                   	// #1
    8b7c:	7100001f 	cmp	w0, #0x0
    8b80:	5a81a421 	cneg	w1, w1, lt  // lt = tstop
    8b84:	6b01035f 	cmp	w26, w1
    8b88:	54000060 	b.eq	8b94 <mpa_extended_gcd+0x10c>  // b.none
/home/zliu/ubuntu-optee-rpi3/RPi3_OPTEE_3.1/optee_os/lib/libmpa/mpa_gcd.c:366 (discriminator 5)
    8b8c:	4b0003e0 	neg	w0, w0
    8b90:	b9000660 	str	w0, [x19, #4]
/home/zliu/ubuntu-optee-rpi3/RPi3_OPTEE_3.1/optee_os/lib/libmpa/mpa_gcd.c:367
    8b94:	b9400680 	ldr	w0, [x20, #4]
    8b98:	52800021 	mov	w1, #0x1                   	// #1
    8b9c:	7100001f 	cmp	w0, #0x0
    8ba0:	5a81a421 	cneg	w1, w1, lt  // lt = tstop
    8ba4:	6b15003f 	cmp	w1, w21
    8ba8:	54000060 	b.eq	8bb4 <mpa_extended_gcd+0x12c>  // b.none
/home/zliu/ubuntu-optee-rpi3/RPi3_OPTEE_3.1/optee_os/lib/libmpa/mpa_gcd.c:367 (discriminator 5)
    8bac:	4b0003e0 	neg	w0, w0
    8bb0:	b9000680 	str	w0, [x20, #4]
/home/zliu/ubuntu-optee-rpi3/RPi3_OPTEE_3.1/optee_os/lib/libmpa/mpa_gcd.c:369
    8bb4:	f10002ff 	cmp	x23, #0x0
    8bb8:	3a411b40 	ccmn	w26, #0x1, #0x0, ne  // ne = any
    8bbc:	54000081 	b.ne	8bcc <mpa_extended_gcd+0x144>  // b.any
/home/zliu/ubuntu-optee-rpi3/RPi3_OPTEE_3.1/optee_os/lib/libmpa/mpa_gcd.c:370
    8bc0:	b94006e0 	ldr	w0, [x23, #4]
    8bc4:	4b0003e0 	neg	w0, w0
    8bc8:	b90006e0 	str	w0, [x23, #4]
/home/zliu/ubuntu-optee-rpi3/RPi3_OPTEE_3.1/optee_os/lib/libmpa/mpa_gcd.c:371
    8bcc:	f100031f 	cmp	x24, #0x0
    8bd0:	3a411aa0 	ccmn	w21, #0x1, #0x0, ne  // ne = any
    8bd4:	54fff801 	b.ne	8ad4 <mpa_extended_gcd+0x4c>  // b.any
/home/zliu/ubuntu-optee-rpi3/RPi3_OPTEE_3.1/optee_os/lib/libmpa/mpa_gcd.c:372
    8bd8:	b9400700 	ldr	w0, [x24, #4]
    8bdc:	4b0003e0 	neg	w0, w0
    8be0:	b9000700 	str	w0, [x24, #4]
    8be4:	17ffffbc 	b	8ad4 <mpa_extended_gcd+0x4c>
/home/zliu/ubuntu-optee-rpi3/RPi3_OPTEE_3.1/optee_os/lib/libmpa/mpa_gcd.c:348
    8be8:	f10002df 	cmp	x22, #0x0
    8bec:	fa561284 	ccmp	x20, x22, #0x4, ne  // ne = any
    8bf0:	fa561264 	ccmp	x19, x22, #0x4, ne  // ne = any
    8bf4:	54000361 	b.ne	8c60 <mpa_extended_gcd+0x1d8>  // b.any
    8bf8:	5280003b 	mov	w27, #0x1                   	// #1
/home/zliu/ubuntu-optee-rpi3/RPi3_OPTEE_3.1/optee_os/lib/libmpa/mpa_gcd.c:350
    8bfc:	aa1903e1 	mov	x1, x25
    8c00:	9101a3a0 	add	x0, x29, #0x68
    8c04:	94000062 	bl	8d8c <mpa_alloc_static_temp_var>
/home/zliu/ubuntu-optee-rpi3/RPi3_OPTEE_3.1/optee_os/lib/libmpa/mpa_gcd.c:355
    8c08:	aa1903e5 	mov	x5, x25
/home/zliu/ubuntu-optee-rpi3/RPi3_OPTEE_3.1/optee_os/lib/libmpa/mpa_gcd.c:354
    8c0c:	36f8021c 	tbz	w28, #31, 8c4c <mpa_extended_gcd+0x1c4>
/home/zliu/ubuntu-optee-rpi3/RPi3_OPTEE_3.1/optee_os/lib/libmpa/mpa_gcd.c:355
    8c10:	aa1303e4 	mov	x4, x19
    8c14:	aa1403e3 	mov	x3, x20
    8c18:	aa1703e2 	mov	x2, x23
    8c1c:	aa1803e1 	mov	x1, x24
/home/zliu/ubuntu-optee-rpi3/RPi3_OPTEE_3.1/optee_os/lib/libmpa/mpa_gcd.c:357
    8c20:	f94037a0 	ldr	x0, [x29, #104]
    8c24:	97fffe71 	bl	85e8 <__mpa_egcd>
/home/zliu/ubuntu-optee-rpi3/RPi3_OPTEE_3.1/optee_os/lib/libmpa/mpa_gcd.c:359
    8c28:	b4000096 	cbz	x22, 8c38 <mpa_extended_gcd+0x1b0>
/home/zliu/ubuntu-optee-rpi3/RPi3_OPTEE_3.1/optee_os/lib/libmpa/mpa_gcd.c:360
    8c2c:	f94037a1 	ldr	x1, [x29, #104]
    8c30:	aa1603e0 	mov	x0, x22
    8c34:	97fff944 	bl	7144 <mpa_copy>
/home/zliu/ubuntu-optee-rpi3/RPi3_OPTEE_3.1/optee_os/lib/libmpa/mpa_gcd.c:361
    8c38:	34fff9fb 	cbz	w27, 8b74 <mpa_extended_gcd+0xec>
/home/zliu/ubuntu-optee-rpi3/RPi3_OPTEE_3.1/optee_os/lib/libmpa/mpa_gcd.c:362
    8c3c:	aa1903e1 	mov	x1, x25
    8c40:	9101a3a0 	add	x0, x29, #0x68
    8c44:	94000056 	bl	8d9c <mpa_free_static_temp_var>
    8c48:	17ffffcb 	b	8b74 <mpa_extended_gcd+0xec>
/home/zliu/ubuntu-optee-rpi3/RPi3_OPTEE_3.1/optee_os/lib/libmpa/mpa_gcd.c:357
    8c4c:	aa1403e4 	mov	x4, x20
    8c50:	aa1303e3 	mov	x3, x19
    8c54:	aa1803e2 	mov	x2, x24
    8c58:	aa1703e1 	mov	x1, x23
    8c5c:	17fffff1 	b	8c20 <mpa_extended_gcd+0x198>
/home/zliu/ubuntu-optee-rpi3/RPi3_OPTEE_3.1/optee_os/lib/libmpa/mpa_gcd.c:348
    8c60:	5280001b 	mov	w27, #0x0                   	// #0
/home/zliu/ubuntu-optee-rpi3/RPi3_OPTEE_3.1/optee_os/lib/libmpa/mpa_gcd.c:352
    8c64:	f90037b6 	str	x22, [x29, #104]
    8c68:	17ffffe8 	b	8c08 <mpa_extended_gcd+0x180>
/home/zliu/ubuntu-optee-rpi3/RPi3_OPTEE_3.1/optee_os/lib/libmpa/mpa_gcd.c:334
    8c6c:	36fff620 	tbz	w0, #31, 8b30 <mpa_extended_gcd+0xa8>
    8c70:	17ffffaa 	b	8b18 <mpa_extended_gcd+0x90>

0000000000008c74 <mpa_init_scratch_mem_sync>:
mpa_init_scratch_mem_sync():
/home/zliu/ubuntu-optee-rpi3/RPi3_OPTEE_3.1/optee_os/lib/libmpa/mpa_mem_static.c:42
    8c74:	531f7842 	lsl	w2, w2, #1
/home/zliu/ubuntu-optee-rpi3/RPi3_OPTEE_3.1/optee_os/lib/libmpa/mpa_mem_static.c:41
    8c78:	b900081f 	str	wzr, [x0, #8]
/home/zliu/ubuntu-optee-rpi3/RPi3_OPTEE_3.1/optee_os/lib/libmpa/mpa_mem_static.c:42
    8c7c:	29000801 	stp	w1, w2, [x0]
/home/zliu/ubuntu-optee-rpi3/RPi3_OPTEE_3.1/optee_os/lib/libmpa/mpa_mem_static.c:44
    8c80:	a9011003 	stp	x3, x4, [x0, #16]
/home/zliu/ubuntu-optee-rpi3/RPi3_OPTEE_3.1/optee_os/lib/libmpa/mpa_mem_static.c:45
    8c84:	f9001005 	str	x5, [x0, #32]
    8c88:	d65f03c0 	ret

0000000000008c8c <mpa_init_scratch_mem>:
/home/zliu/ubuntu-optee-rpi3/RPi3_OPTEE_3.1/optee_os/lib/libmpa/mpa_mem_static.c:42
    8c8c:	531f7842 	lsl	w2, w2, #1
/home/zliu/ubuntu-optee-rpi3/RPi3_OPTEE_3.1/optee_os/lib/libmpa/mpa_mem_static.c:41
    8c90:	b900081f 	str	wzr, [x0, #8]
/home/zliu/ubuntu-optee-rpi3/RPi3_OPTEE_3.1/optee_os/lib/libmpa/mpa_mem_static.c:42
    8c94:	29000801 	stp	w1, w2, [x0]
/home/zliu/ubuntu-optee-rpi3/RPi3_OPTEE_3.1/optee_os/lib/libmpa/mpa_mem_static.c:44
    8c98:	a9017c1f 	stp	xzr, xzr, [x0, #16]
/home/zliu/ubuntu-optee-rpi3/RPi3_OPTEE_3.1/optee_os/lib/libmpa/mpa_mem_static.c:45
    8c9c:	f900101f 	str	xzr, [x0, #32]
    8ca0:	d65f03c0 	ret

0000000000008ca4 <mpa_alloc_static_temp_var_size>:
mpa_alloc_static_temp_var_size():
/home/zliu/ubuntu-optee-rpi3/RPi3_OPTEE_3.1/optee_os/lib/libmpa/mpa_mem_static.c:90
    8ca4:	a9bd7bfd 	stp	x29, x30, [sp, #-48]!
    8ca8:	910003fd 	mov	x29, sp
    8cac:	f90013f5 	str	x21, [sp, #32]
    8cb0:	aa0103f5 	mov	x21, x1
/home/zliu/ubuntu-optee-rpi3/RPi3_OPTEE_3.1/optee_os/lib/libmpa/mpa_mem_static.c:96
    8cb4:	f9400841 	ldr	x1, [x2, #16]
/home/zliu/ubuntu-optee-rpi3/RPi3_OPTEE_3.1/optee_os/lib/libmpa/mpa_mem_static.c:90
    8cb8:	a90153f3 	stp	x19, x20, [sp, #16]
    8cbc:	2a0003f4 	mov	w20, w0
    8cc0:	aa0203f3 	mov	x19, x2
/home/zliu/ubuntu-optee-rpi3/RPi3_OPTEE_3.1/optee_os/lib/libmpa/mpa_mem_static.c:96
    8cc4:	b4000061 	cbz	x1, 8cd0 <mpa_alloc_static_temp_var_size+0x2c>
/home/zliu/ubuntu-optee-rpi3/RPi3_OPTEE_3.1/optee_os/lib/libmpa/mpa_mem_static.c:97
    8cc8:	f9401040 	ldr	x0, [x2, #32]
    8ccc:	d63f0020 	blr	x1
/home/zliu/ubuntu-optee-rpi3/RPi3_OPTEE_3.1/optee_os/lib/libmpa/mpa_mem_static.c:99
    8cd0:	b9400a63 	ldr	w3, [x19, #8]
    8cd4:	34000463 	cbz	w3, 8d60 <mpa_alloc_static_temp_var_size+0xbc>
/home/zliu/ubuntu-optee-rpi3/RPi3_OPTEE_3.1/optee_os/lib/libmpa/mpa_mem_static.c:104
    8cd8:	2a0303e0 	mov	w0, w3
    8cdc:	8b000265 	add	x5, x19, x0
/home/zliu/ubuntu-optee-rpi3/RPi3_OPTEE_3.1/optee_os/lib/libmpa/mpa_mem_static.c:105
    8ce0:	b8606a62 	ldr	w2, [x19, x0]
    8ce4:	0b020062 	add	w2, w3, w2
/home/zliu/ubuntu-optee-rpi3/RPi3_OPTEE_3.1/optee_os/lib/libmpa/mpa_mem_static.c:108
    8ce8:	11000c42 	add	w2, w2, #0x3
/home/zliu/ubuntu-optee-rpi3/RPi3_OPTEE_3.1/optee_os/lib/libmpa/mpa_mem_static.c:109
    8cec:	b9400260 	ldr	w0, [x19]
/home/zliu/ubuntu-optee-rpi3/RPi3_OPTEE_3.1/optee_os/lib/libmpa/mpa_mem_static.c:108
    8cf0:	121e7442 	and	w2, w2, #0xfffffffc
/home/zliu/ubuntu-optee-rpi3/RPi3_OPTEE_3.1/optee_os/lib/libmpa/mpa_mem_static.c:109
    8cf4:	6b00005f 	cmp	w2, w0
    8cf8:	540003a8 	b.hi	8d6c <mpa_alloc_static_temp_var_size+0xc8>  // b.pmore
/home/zliu/ubuntu-optee-rpi3/RPi3_OPTEE_3.1/optee_os/lib/libmpa/mpa_mem_static.c:113
    8cfc:	11007e81 	add	w1, w20, #0x1f
    8d00:	52800414 	mov	w20, #0x20                  	// #32
/home/zliu/ubuntu-optee-rpi3/RPi3_OPTEE_3.1/optee_os/lib/libmpa/mpa_mem_static.c:115
    8d04:	2a0203e6 	mov	w6, w2
/home/zliu/ubuntu-optee-rpi3/RPi3_OPTEE_3.1/optee_os/lib/libmpa/mpa_mem_static.c:113
    8d08:	1ad40c21 	sdiv	w1, w1, w20
    8d0c:	11000821 	add	w1, w1, #0x2
/home/zliu/ubuntu-optee-rpi3/RPi3_OPTEE_3.1/optee_os/lib/libmpa/mpa_mem_static.c:112
    8d10:	937e7c24 	sbfiz	x4, x1, #2, #32
/home/zliu/ubuntu-optee-rpi3/RPi3_OPTEE_3.1/optee_os/lib/libmpa/mpa_mem_static.c:114
    8d14:	91003084 	add	x4, x4, #0xc
/home/zliu/ubuntu-optee-rpi3/RPi3_OPTEE_3.1/optee_os/lib/libmpa/mpa_mem_static.c:115
    8d18:	8b060087 	add	x7, x4, x6
    8d1c:	eb2040ff 	cmp	x7, w0, uxtw
    8d20:	54000268 	b.hi	8d6c <mpa_alloc_static_temp_var_size+0xc8>  // b.pmore
/home/zliu/ubuntu-optee-rpi3/RPi3_OPTEE_3.1/optee_os/lib/libmpa/mpa_mem_static.c:118
    8d24:	8b060260 	add	x0, x19, x6
/home/zliu/ubuntu-optee-rpi3/RPi3_OPTEE_3.1/optee_os/lib/libmpa/mpa_mem_static.c:119
    8d28:	b8266a64 	str	w4, [x19, x6]
/home/zliu/ubuntu-optee-rpi3/RPi3_OPTEE_3.1/optee_os/lib/libmpa/mpa_mem_static.c:120
    8d2c:	b9000403 	str	w3, [x0, #4]
/home/zliu/ubuntu-optee-rpi3/RPi3_OPTEE_3.1/optee_os/lib/libmpa/mpa_mem_static.c:121
    8d30:	b4000045 	cbz	x5, 8d38 <mpa_alloc_static_temp_var_size+0x94>
/home/zliu/ubuntu-optee-rpi3/RPi3_OPTEE_3.1/optee_os/lib/libmpa/mpa_mem_static.c:122
    8d34:	b90008a2 	str	w2, [x5, #8]
/home/zliu/ubuntu-optee-rpi3/RPi3_OPTEE_3.1/optee_os/lib/libmpa/mpa_mem_static.c:123
    8d38:	b900081f 	str	wzr, [x0, #8]
/home/zliu/ubuntu-optee-rpi3/RPi3_OPTEE_3.1/optee_os/lib/libmpa/mpa_mem_static.c:126
    8d3c:	91003000 	add	x0, x0, #0xc
/home/zliu/ubuntu-optee-rpi3/RPi3_OPTEE_3.1/optee_os/lib/libmpa/mpa_mem_static.c:124
    8d40:	b9000a62 	str	w2, [x19, #8]
/home/zliu/ubuntu-optee-rpi3/RPi3_OPTEE_3.1/optee_os/lib/libmpa/mpa_mem_static.c:126
    8d44:	f90002a0 	str	x0, [x21]
/home/zliu/ubuntu-optee-rpi3/RPi3_OPTEE_3.1/optee_os/lib/libmpa/mpa_mem_static.c:127
    8d48:	9400057a 	bl	a330 <mpa_init_static>
/home/zliu/ubuntu-optee-rpi3/RPi3_OPTEE_3.1/optee_os/lib/libmpa/mpa_mem_static.c:128
    8d4c:	f94002a0 	ldr	x0, [x21]
/home/zliu/ubuntu-optee-rpi3/RPi3_OPTEE_3.1/optee_os/lib/libmpa/mpa_mem_static.c:135
    8d50:	a94153f3 	ldp	x19, x20, [sp, #16]
    8d54:	f94013f5 	ldr	x21, [sp, #32]
    8d58:	a8c37bfd 	ldp	x29, x30, [sp], #48
    8d5c:	d65f03c0 	ret
/home/zliu/ubuntu-optee-rpi3/RPi3_OPTEE_3.1/optee_os/lib/libmpa/mpa_mem_static.c:94
    8d60:	d2800005 	mov	x5, #0x0                   	// #0
/home/zliu/ubuntu-optee-rpi3/RPi3_OPTEE_3.1/optee_os/lib/libmpa/mpa_mem_static.c:100
    8d64:	52800502 	mov	w2, #0x28                  	// #40
    8d68:	17ffffe0 	b	8ce8 <mpa_alloc_static_temp_var_size+0x44>
/home/zliu/ubuntu-optee-rpi3/RPi3_OPTEE_3.1/optee_os/lib/libmpa/mpa_mem_static.c:132
    8d6c:	f9400e61 	ldr	x1, [x19, #24]
/home/zliu/ubuntu-optee-rpi3/RPi3_OPTEE_3.1/optee_os/lib/libmpa/mpa_mem_static.c:134
    8d70:	d2800000 	mov	x0, #0x0                   	// #0
/home/zliu/ubuntu-optee-rpi3/RPi3_OPTEE_3.1/optee_os/lib/libmpa/mpa_mem_static.c:131
    8d74:	f90002bf 	str	xzr, [x21]
/home/zliu/ubuntu-optee-rpi3/RPi3_OPTEE_3.1/optee_os/lib/libmpa/mpa_mem_static.c:132
    8d78:	b4fffec1 	cbz	x1, 8d50 <mpa_alloc_static_temp_var_size+0xac>
/home/zliu/ubuntu-optee-rpi3/RPi3_OPTEE_3.1/optee_os/lib/libmpa/mpa_mem_static.c:133
    8d7c:	f9401260 	ldr	x0, [x19, #32]
    8d80:	d63f0020 	blr	x1
/home/zliu/ubuntu-optee-rpi3/RPi3_OPTEE_3.1/optee_os/lib/libmpa/mpa_mem_static.c:134
    8d84:	d2800000 	mov	x0, #0x0                   	// #0
    8d88:	17fffff2 	b	8d50 <mpa_alloc_static_temp_var_size+0xac>

0000000000008d8c <mpa_alloc_static_temp_var>:
mpa_alloc_static_temp_var():
/home/zliu/ubuntu-optee-rpi3/RPi3_OPTEE_3.1/optee_os/lib/libmpa/mpa_mem_static.c:140
    8d8c:	aa0103e2 	mov	x2, x1
    8d90:	aa0003e1 	mov	x1, x0
    8d94:	b9400440 	ldr	w0, [x2, #4]
    8d98:	17ffffc3 	b	8ca4 <mpa_alloc_static_temp_var_size>

0000000000008d9c <mpa_free_static_temp_var>:
mpa_free_static_temp_var():
/home/zliu/ubuntu-optee-rpi3/RPi3_OPTEE_3.1/optee_os/lib/libmpa/mpa_mem_static.c:155
    8d9c:	b4000240 	cbz	x0, 8de4 <mpa_free_static_temp_var+0x48>
/home/zliu/ubuntu-optee-rpi3/RPi3_OPTEE_3.1/optee_os/lib/libmpa/mpa_mem_static.c:155 (discriminator 1)
    8da0:	f9400002 	ldr	x2, [x0]
    8da4:	b4000202 	cbz	x2, 8de4 <mpa_free_static_temp_var+0x48>
/home/zliu/ubuntu-optee-rpi3/RPi3_OPTEE_3.1/optee_os/lib/libmpa/mpa_mem_static.c:160
    8da8:	b85f8040 	ldur	w0, [x2, #-8]
    8dac:	34000080 	cbz	w0, 8dbc <mpa_free_static_temp_var+0x20>
/home/zliu/ubuntu-optee-rpi3/RPi3_OPTEE_3.1/optee_os/lib/libmpa/mpa_mem_static.c:163
    8db0:	8b204023 	add	x3, x1, w0, uxtw
    8db4:	b85fc044 	ldur	w4, [x2, #-4]
    8db8:	b9000864 	str	w4, [x3, #8]
/home/zliu/ubuntu-optee-rpi3/RPi3_OPTEE_3.1/optee_os/lib/libmpa/mpa_mem_static.c:167
    8dbc:	b85fc042 	ldur	w2, [x2, #-4]
    8dc0:	34000082 	cbz	w2, 8dd0 <mpa_free_static_temp_var+0x34>
/home/zliu/ubuntu-optee-rpi3/RPi3_OPTEE_3.1/optee_os/lib/libmpa/mpa_mem_static.c:170
    8dc4:	8b224022 	add	x2, x1, w2, uxtw
    8dc8:	b9000440 	str	w0, [x2, #4]
/home/zliu/ubuntu-optee-rpi3/RPi3_OPTEE_3.1/optee_os/lib/libmpa/mpa_mem_static.c:171
    8dcc:	b9400820 	ldr	w0, [x1, #8]
/home/zliu/ubuntu-optee-rpi3/RPi3_OPTEE_3.1/optee_os/lib/libmpa/mpa_mem_static.c:175
    8dd0:	f9400c22 	ldr	x2, [x1, #24]
/home/zliu/ubuntu-optee-rpi3/RPi3_OPTEE_3.1/optee_os/lib/libmpa/mpa_mem_static.c:174
    8dd4:	b9000820 	str	w0, [x1, #8]
/home/zliu/ubuntu-optee-rpi3/RPi3_OPTEE_3.1/optee_os/lib/libmpa/mpa_mem_static.c:175
    8dd8:	b4000062 	cbz	x2, 8de4 <mpa_free_static_temp_var+0x48>
/home/zliu/ubuntu-optee-rpi3/RPi3_OPTEE_3.1/optee_os/lib/libmpa/mpa_mem_static.c:176
    8ddc:	f9401020 	ldr	x0, [x1, #32]
    8de0:	d61f0040 	br	x2
    8de4:	d65f03c0 	ret

0000000000008de8 <__mpa_mul_add_word>:
__mpa_mul_add_word():
/home/zliu/ubuntu-optee-rpi3/RPi3_OPTEE_3.1/optee_os/lib/libmpa/mpa_mul.c:55
    8de8:	b9400064 	ldr	w4, [x3]
    8dec:	9ba11000 	umaddl	x0, w0, w1, x4
/home/zliu/ubuntu-optee-rpi3/RPi3_OPTEE_3.1/optee_os/lib/libmpa/mpa_mul.c:56
    8df0:	b9000040 	str	w0, [x2]
/home/zliu/ubuntu-optee-rpi3/RPi3_OPTEE_3.1/optee_os/lib/libmpa/mpa_mul.c:57
    8df4:	d360fc00 	lsr	x0, x0, #32
    8df8:	b9000060 	str	w0, [x3]
    8dfc:	d65f03c0 	ret

0000000000008e00 <__mpa_mul_add_word_cum>:
__mpa_mul_add_word_cum():
/home/zliu/ubuntu-optee-rpi3/RPi3_OPTEE_3.1/optee_os/lib/libmpa/mpa_mul.c:77
    8e00:	b9400044 	ldr	w4, [x2]
/home/zliu/ubuntu-optee-rpi3/RPi3_OPTEE_3.1/optee_os/lib/libmpa/mpa_mul.c:78
    8e04:	b9400065 	ldr	w5, [x3]
/home/zliu/ubuntu-optee-rpi3/RPi3_OPTEE_3.1/optee_os/lib/libmpa/mpa_mul.c:76
    8e08:	8b050084 	add	x4, x4, x5
    8e0c:	9ba11000 	umaddl	x0, w0, w1, x4
/home/zliu/ubuntu-optee-rpi3/RPi3_OPTEE_3.1/optee_os/lib/libmpa/mpa_mul.c:79
    8e10:	b9000040 	str	w0, [x2]
/home/zliu/ubuntu-optee-rpi3/RPi3_OPTEE_3.1/optee_os/lib/libmpa/mpa_mul.c:80
    8e14:	d360fc00 	lsr	x0, x0, #32
    8e18:	b9000060 	str	w0, [x3]
    8e1c:	d65f03c0 	ret

0000000000008e20 <__mpa_abs_mul_word>:
__mpa_abs_mul_word():
/home/zliu/ubuntu-optee-rpi3/RPi3_OPTEE_3.1/optee_os/lib/libmpa/mpa_mul.c:96
    8e20:	a9bd7bfd 	stp	x29, x30, [sp, #-48]!
    8e24:	910003fd 	mov	x29, sp
    8e28:	a9025bf5 	stp	x21, x22, [sp, #32]
    8e2c:	2a0203f6 	mov	w22, w2
/home/zliu/ubuntu-optee-rpi3/RPi3_OPTEE_3.1/optee_os/lib/libmpa/mpa_mul.c:103
    8e30:	b9400002 	ldr	w2, [x0]
/home/zliu/ubuntu-optee-rpi3/RPi3_OPTEE_3.1/optee_os/lib/libmpa/mpa_mul.c:96
    8e34:	aa0103f5 	mov	x21, x1
    8e38:	a90153f3 	stp	x19, x20, [sp, #16]
/home/zliu/ubuntu-optee-rpi3/RPi3_OPTEE_3.1/optee_os/lib/libmpa/mpa_mul.c:103
    8e3c:	91002014 	add	x20, x0, #0x8
    8e40:	52800001 	mov	w1, #0x0                   	// #0
/home/zliu/ubuntu-optee-rpi3/RPi3_OPTEE_3.1/optee_os/lib/libmpa/mpa_mul.c:96
    8e44:	aa0003f3 	mov	x19, x0
/home/zliu/ubuntu-optee-rpi3/RPi3_OPTEE_3.1/optee_os/lib/libmpa/mpa_mul.c:103
    8e48:	d37e7442 	ubfiz	x2, x2, #2, #30
    8e4c:	aa1403e0 	mov	x0, x20
    8e50:	97fff4ca 	bl	6178 <memset>
/home/zliu/ubuntu-optee-rpi3/RPi3_OPTEE_3.1/optee_os/lib/libmpa/mpa_mul.c:105
    8e54:	910022a3 	add	x3, x21, #0x8
/home/zliu/ubuntu-optee-rpi3/RPi3_OPTEE_3.1/optee_os/lib/libmpa/mpa_mul.c:108
    8e58:	d2800000 	mov	x0, #0x0                   	// #0
/home/zliu/ubuntu-optee-rpi3/RPi3_OPTEE_3.1/optee_os/lib/libmpa/mpa_mul.c:107
    8e5c:	52800001 	mov	w1, #0x0                   	// #0
/home/zliu/ubuntu-optee-rpi3/RPi3_OPTEE_3.1/optee_os/lib/libmpa/mpa_mul.c:108 (discriminator 1)
    8e60:	b94006a2 	ldr	w2, [x21, #4]
    8e64:	7100005f 	cmp	w2, #0x0
    8e68:	5a82a442 	cneg	w2, w2, lt  // lt = tstop
    8e6c:	6b00005f 	cmp	w2, w0
    8e70:	54000168 	b.hi	8e9c <__mpa_abs_mul_word+0x7c>  // b.pmore
/home/zliu/ubuntu-optee-rpi3/RPi3_OPTEE_3.1/optee_os/lib/libmpa/mpa_mul.c:112
    8e74:	b9000660 	str	w0, [x19, #4]
/home/zliu/ubuntu-optee-rpi3/RPi3_OPTEE_3.1/optee_os/lib/libmpa/mpa_mul.c:113
    8e78:	340000a1 	cbz	w1, 8e8c <__mpa_abs_mul_word+0x6c>
/home/zliu/ubuntu-optee-rpi3/RPi3_OPTEE_3.1/optee_os/lib/libmpa/mpa_mul.c:114
    8e7c:	b8205a81 	str	w1, [x20, w0, uxtw #2]
/home/zliu/ubuntu-optee-rpi3/RPi3_OPTEE_3.1/optee_os/lib/libmpa/mpa_mul.c:115
    8e80:	b9400660 	ldr	w0, [x19, #4]
    8e84:	11000400 	add	w0, w0, #0x1
    8e88:	b9000660 	str	w0, [x19, #4]
/home/zliu/ubuntu-optee-rpi3/RPi3_OPTEE_3.1/optee_os/lib/libmpa/mpa_mul.c:117
    8e8c:	a94153f3 	ldp	x19, x20, [sp, #16]
    8e90:	a9425bf5 	ldp	x21, x22, [sp, #32]
    8e94:	a8c37bfd 	ldp	x29, x30, [sp], #48
    8e98:	d65f03c0 	ret
__mpa_mul_add_word():
/home/zliu/ubuntu-optee-rpi3/RPi3_OPTEE_3.1/optee_os/lib/libmpa/mpa_mul.c:55 (discriminator 3)
    8e9c:	b8607862 	ldr	w2, [x3, x0, lsl #2]
    8ea0:	2a0103e1 	mov	w1, w1
    8ea4:	9bb60441 	umaddl	x1, w2, w22, x1
/home/zliu/ubuntu-optee-rpi3/RPi3_OPTEE_3.1/optee_os/lib/libmpa/mpa_mul.c:56 (discriminator 3)
    8ea8:	b8205a81 	str	w1, [x20, w0, uxtw #2]
    8eac:	91000400 	add	x0, x0, #0x1
/home/zliu/ubuntu-optee-rpi3/RPi3_OPTEE_3.1/optee_os/lib/libmpa/mpa_mul.c:57 (discriminator 3)
    8eb0:	d360fc21 	lsr	x1, x1, #32
    8eb4:	17ffffeb 	b	8e60 <__mpa_abs_mul_word+0x40>

0000000000008eb8 <__mpa_abs_mul>:
__mpa_abs_mul():
/home/zliu/ubuntu-optee-rpi3/RPi3_OPTEE_3.1/optee_os/lib/libmpa/mpa_mul.c:127
    8eb8:	a9b97bfd 	stp	x29, x30, [sp, #-112]!
    8ebc:	910003fd 	mov	x29, sp
    8ec0:	a90153f3 	stp	x19, x20, [sp, #16]
/home/zliu/ubuntu-optee-rpi3/RPi3_OPTEE_3.1/optee_os/lib/libmpa/mpa_mul.c:130
    8ec4:	9101c3b4 	add	x20, x29, #0x70
/home/zliu/ubuntu-optee-rpi3/RPi3_OPTEE_3.1/optee_os/lib/libmpa/mpa_mul.c:127
    8ec8:	a90573fb 	stp	x27, x28, [sp, #80]
/home/zliu/ubuntu-optee-rpi3/RPi3_OPTEE_3.1/optee_os/lib/libmpa/mpa_mul.c:141
    8ecc:	9100205c 	add	x28, x2, #0x8
/home/zliu/ubuntu-optee-rpi3/RPi3_OPTEE_3.1/optee_os/lib/libmpa/mpa_mul.c:127
    8ed0:	a90363f7 	stp	x23, x24, [sp, #48]
    8ed4:	aa0203f7 	mov	x23, x2
/home/zliu/ubuntu-optee-rpi3/RPi3_OPTEE_3.1/optee_os/lib/libmpa/mpa_mul.c:136
    8ed8:	b9400002 	ldr	w2, [x0]
/home/zliu/ubuntu-optee-rpi3/RPi3_OPTEE_3.1/optee_os/lib/libmpa/mpa_mul.c:127
    8edc:	aa0003f3 	mov	x19, x0
    8ee0:	a9025bf5 	stp	x21, x22, [sp, #32]
    8ee4:	aa0103f6 	mov	x22, x1
/home/zliu/ubuntu-optee-rpi3/RPi3_OPTEE_3.1/optee_os/lib/libmpa/mpa_mul.c:136
    8ee8:	91002015 	add	x21, x0, #0x8
/home/zliu/ubuntu-optee-rpi3/RPi3_OPTEE_3.1/optee_os/lib/libmpa/mpa_mul.c:127
    8eec:	a9046bf9 	stp	x25, x26, [sp, #64]
/home/zliu/ubuntu-optee-rpi3/RPi3_OPTEE_3.1/optee_os/lib/libmpa/mpa_mul.c:136
    8ef0:	d37e7442 	ubfiz	x2, x2, #2, #30
/home/zliu/ubuntu-optee-rpi3/RPi3_OPTEE_3.1/optee_os/lib/libmpa/mpa_mul.c:130
    8ef4:	b81fce9f 	str	wzr, [x20, #-4]!
/home/zliu/ubuntu-optee-rpi3/RPi3_OPTEE_3.1/optee_os/lib/libmpa/mpa_mul.c:136
    8ef8:	52800001 	mov	w1, #0x0                   	// #0
    8efc:	aa1503e0 	mov	x0, x21
/home/zliu/ubuntu-optee-rpi3/RPi3_OPTEE_3.1/optee_os/lib/libmpa/mpa_mul.c:138
    8f00:	910022db 	add	x27, x22, #0x8
/home/zliu/ubuntu-optee-rpi3/RPi3_OPTEE_3.1/optee_os/lib/libmpa/mpa_mul.c:136
    8f04:	97fff49d 	bl	6178 <memset>
/home/zliu/ubuntu-optee-rpi3/RPi3_OPTEE_3.1/optee_os/lib/libmpa/mpa_mul.c:140
    8f08:	d2800019 	mov	x25, #0x0                   	// #0
/home/zliu/ubuntu-optee-rpi3/RPi3_OPTEE_3.1/optee_os/lib/libmpa/mpa_mul.c:129
    8f0c:	52800002 	mov	w2, #0x0                   	// #0
/home/zliu/ubuntu-optee-rpi3/RPi3_OPTEE_3.1/optee_os/lib/libmpa/mpa_mul.c:140 (discriminator 1)
    8f10:	b94006c0 	ldr	w0, [x22, #4]
    8f14:	8b190aba 	add	x26, x21, x25, lsl #2
    8f18:	7100001f 	cmp	w0, #0x0
    8f1c:	5a80a400 	cneg	w0, w0, lt  // lt = tstop
    8f20:	6b00033f 	cmp	w25, w0
    8f24:	540001c3 	b.cc	8f5c <__mpa_abs_mul+0xa4>  // b.lo, b.ul, b.last
/home/zliu/ubuntu-optee-rpi3/RPi3_OPTEE_3.1/optee_os/lib/libmpa/mpa_mul.c:152
    8f28:	0b020320 	add	w0, w25, w2
    8f2c:	51000401 	sub	w1, w0, #0x1
    8f30:	b9000661 	str	w1, [x19, #4]
/home/zliu/ubuntu-optee-rpi3/RPi3_OPTEE_3.1/optee_os/lib/libmpa/mpa_mul.c:153
    8f34:	b9406fa1 	ldr	w1, [x29, #108]
    8f38:	34000041 	cbz	w1, 8f40 <__mpa_abs_mul+0x88>
/home/zliu/ubuntu-optee-rpi3/RPi3_OPTEE_3.1/optee_os/lib/libmpa/mpa_mul.c:154
    8f3c:	b9000660 	str	w0, [x19, #4]
/home/zliu/ubuntu-optee-rpi3/RPi3_OPTEE_3.1/optee_os/lib/libmpa/mpa_mul.c:155
    8f40:	a94153f3 	ldp	x19, x20, [sp, #16]
    8f44:	a9425bf5 	ldp	x21, x22, [sp, #32]
    8f48:	a94363f7 	ldp	x23, x24, [sp, #48]
    8f4c:	a9446bf9 	ldp	x25, x26, [sp, #64]
    8f50:	a94573fb 	ldp	x27, x28, [sp, #80]
    8f54:	a8c77bfd 	ldp	x29, x30, [sp], #112
    8f58:	d65f03c0 	ret
/home/zliu/ubuntu-optee-rpi3/RPi3_OPTEE_3.1/optee_os/lib/libmpa/mpa_mul.c:143
    8f5c:	d2800018 	mov	x24, #0x0                   	// #0
/home/zliu/ubuntu-optee-rpi3/RPi3_OPTEE_3.1/optee_os/lib/libmpa/mpa_mul.c:142
    8f60:	b9006fbf 	str	wzr, [x29, #108]
/home/zliu/ubuntu-optee-rpi3/RPi3_OPTEE_3.1/optee_os/lib/libmpa/mpa_mul.c:143 (discriminator 1)
    8f64:	b94006e0 	ldr	w0, [x23, #4]
    8f68:	2a1803e2 	mov	w2, w24
    8f6c:	7100001f 	cmp	w0, #0x0
    8f70:	5a80a400 	cneg	w0, w0, lt  // lt = tstop
    8f74:	6b00031f 	cmp	w24, w0
    8f78:	540000c3 	b.cc	8f90 <__mpa_abs_mul+0xd8>  // b.lo, b.ul, b.last
/home/zliu/ubuntu-optee-rpi3/RPi3_OPTEE_3.1/optee_os/lib/libmpa/mpa_mul.c:147
    8f7c:	b9406fa0 	ldr	w0, [x29, #108]
    8f80:	34000040 	cbz	w0, 8f88 <__mpa_abs_mul+0xd0>
/home/zliu/ubuntu-optee-rpi3/RPi3_OPTEE_3.1/optee_os/lib/libmpa/mpa_mul.c:148
    8f84:	b8385b40 	str	w0, [x26, w24, uxtw #2]
    8f88:	91000739 	add	x25, x25, #0x1
    8f8c:	17ffffe1 	b	8f10 <__mpa_abs_mul+0x58>
/home/zliu/ubuntu-optee-rpi3/RPi3_OPTEE_3.1/optee_os/lib/libmpa/mpa_mul.c:144 (discriminator 3)
    8f90:	b8787b81 	ldr	w1, [x28, x24, lsl #2]
    8f94:	8b384b42 	add	x2, x26, w24, uxtw #2
    8f98:	b8797b60 	ldr	w0, [x27, x25, lsl #2]
    8f9c:	aa1403e3 	mov	x3, x20
    8fa0:	91000718 	add	x24, x24, #0x1
    8fa4:	97ffff97 	bl	8e00 <__mpa_mul_add_word_cum>
    8fa8:	17ffffef 	b	8f64 <__mpa_abs_mul+0xac>

0000000000008fac <mpa_mul>:
mpa_mul():
/home/zliu/ubuntu-optee-rpi3/RPi3_OPTEE_3.1/optee_os/lib/libmpa/mpa_mul.c:170
    8fac:	a9bb7bfd 	stp	x29, x30, [sp, #-80]!
    8fb0:	910003fd 	mov	x29, sp
    8fb4:	a90153f3 	stp	x19, x20, [sp, #16]
    8fb8:	aa0003f3 	mov	x19, x0
/home/zliu/ubuntu-optee-rpi3/RPi3_OPTEE_3.1/optee_os/lib/libmpa/mpa_mul.c:174
    8fbc:	b9400420 	ldr	w0, [x1, #4]
/home/zliu/ubuntu-optee-rpi3/RPi3_OPTEE_3.1/optee_os/lib/libmpa/mpa_mul.c:170
    8fc0:	a9025bf5 	stp	x21, x22, [sp, #32]
    8fc4:	f9001bf7 	str	x23, [sp, #48]
/home/zliu/ubuntu-optee-rpi3/RPi3_OPTEE_3.1/optee_os/lib/libmpa/mpa_mul.c:174
    8fc8:	34000080 	cbz	w0, 8fd8 <mpa_mul+0x2c>
/home/zliu/ubuntu-optee-rpi3/RPi3_OPTEE_3.1/optee_os/lib/libmpa/mpa_mul.c:174 (discriminator 1)
    8fcc:	b9400440 	ldr	w0, [x2, #4]
    8fd0:	aa0203f5 	mov	x21, x2
    8fd4:	35000120 	cbnz	w0, 8ff8 <mpa_mul+0x4c>
/home/zliu/ubuntu-optee-rpi3/RPi3_OPTEE_3.1/optee_os/lib/libmpa/mpa_mul.c:175
    8fd8:	52800001 	mov	w1, #0x0                   	// #0
    8fdc:	aa1303e0 	mov	x0, x19
    8fe0:	97fffab8 	bl	7ac0 <mpa_set_word>
/home/zliu/ubuntu-optee-rpi3/RPi3_OPTEE_3.1/optee_os/lib/libmpa/mpa_mul.c:194
    8fe4:	a94153f3 	ldp	x19, x20, [sp, #16]
    8fe8:	a9425bf5 	ldp	x21, x22, [sp, #32]
    8fec:	f9401bf7 	ldr	x23, [sp, #48]
    8ff0:	a8c57bfd 	ldp	x29, x30, [sp], #80
    8ff4:	d65f03c0 	ret
/home/zliu/ubuntu-optee-rpi3/RPi3_OPTEE_3.1/optee_os/lib/libmpa/mpa_mul.c:180
    8ff8:	eb13003f 	cmp	x1, x19
    8ffc:	aa0103f6 	mov	x22, x1
    9000:	1a9f17f4 	cset	w20, eq  // eq = none
    9004:	eb13005f 	cmp	x2, x19
    9008:	1a9f17e0 	cset	w0, eq  // eq = none
    900c:	aa0303f7 	mov	x23, x3
    9010:	2a000294 	orr	w20, w20, w0
/home/zliu/ubuntu-optee-rpi3/RPi3_OPTEE_3.1/optee_os/lib/libmpa/mpa_mul.c:181
    9014:	340003b4 	cbz	w20, 9088 <mpa_mul+0xdc>
/home/zliu/ubuntu-optee-rpi3/RPi3_OPTEE_3.1/optee_os/lib/libmpa/mpa_mul.c:182
    9018:	aa0303e1 	mov	x1, x3
    901c:	910123a0 	add	x0, x29, #0x48
    9020:	97ffff5b 	bl	8d8c <mpa_alloc_static_temp_var>
/home/zliu/ubuntu-optee-rpi3/RPi3_OPTEE_3.1/optee_os/lib/libmpa/mpa_mul.c:186
    9024:	f94027a0 	ldr	x0, [x29, #72]
    9028:	aa1503e2 	mov	x2, x21
    902c:	aa1603e1 	mov	x1, x22
    9030:	97ffffa2 	bl	8eb8 <__mpa_abs_mul>
/home/zliu/ubuntu-optee-rpi3/RPi3_OPTEE_3.1/optee_os/lib/libmpa/mpa_mul.c:188
    9034:	b94006c1 	ldr	w1, [x22, #4]
    9038:	12800000 	mov	w0, #0xffffffff            	// #-1
    903c:	b94006a2 	ldr	w2, [x21, #4]
    9040:	6b00003f 	cmp	w1, w0
    9044:	5a80d401 	cneg	w1, w0, gt
    9048:	6b00005f 	cmp	w2, w0
    904c:	5a80d400 	cneg	w0, w0, gt
    9050:	6b00003f 	cmp	w1, w0
    9054:	540000a0 	b.eq	9068 <mpa_mul+0xbc>  // b.none
/home/zliu/ubuntu-optee-rpi3/RPi3_OPTEE_3.1/optee_os/lib/libmpa/mpa_mul.c:189
    9058:	f94027a1 	ldr	x1, [x29, #72]
    905c:	b9400420 	ldr	w0, [x1, #4]
    9060:	4b0003e0 	neg	w0, w0
    9064:	b9000420 	str	w0, [x1, #4]
/home/zliu/ubuntu-optee-rpi3/RPi3_OPTEE_3.1/optee_os/lib/libmpa/mpa_mul.c:191
    9068:	f94027a1 	ldr	x1, [x29, #72]
    906c:	aa1303e0 	mov	x0, x19
    9070:	97fff835 	bl	7144 <mpa_copy>
/home/zliu/ubuntu-optee-rpi3/RPi3_OPTEE_3.1/optee_os/lib/libmpa/mpa_mul.c:192
    9074:	34fffb94 	cbz	w20, 8fe4 <mpa_mul+0x38>
/home/zliu/ubuntu-optee-rpi3/RPi3_OPTEE_3.1/optee_os/lib/libmpa/mpa_mul.c:193
    9078:	aa1703e1 	mov	x1, x23
    907c:	910123a0 	add	x0, x29, #0x48
    9080:	97ffff47 	bl	8d9c <mpa_free_static_temp_var>
    9084:	17ffffd8 	b	8fe4 <mpa_mul+0x38>
/home/zliu/ubuntu-optee-rpi3/RPi3_OPTEE_3.1/optee_os/lib/libmpa/mpa_mul.c:184
    9088:	f90027b3 	str	x19, [x29, #72]
    908c:	17ffffe6 	b	9024 <mpa_mul+0x78>

0000000000009090 <mpa_mul_word>:
mpa_mul_word():
/home/zliu/ubuntu-optee-rpi3/RPi3_OPTEE_3.1/optee_os/lib/libmpa/mpa_mul.c:203
    9090:	a9bb7bfd 	stp	x29, x30, [sp, #-80]!
    9094:	910003fd 	mov	x29, sp
    9098:	a90153f3 	stp	x19, x20, [sp, #16]
    909c:	aa0103f4 	mov	x20, x1
/home/zliu/ubuntu-optee-rpi3/RPi3_OPTEE_3.1/optee_os/lib/libmpa/mpa_mul.c:208
    90a0:	b9400421 	ldr	w1, [x1, #4]
/home/zliu/ubuntu-optee-rpi3/RPi3_OPTEE_3.1/optee_os/lib/libmpa/mpa_mul.c:203
    90a4:	a9025bf5 	stp	x21, x22, [sp, #32]
    90a8:	f9001bf7 	str	x23, [sp, #48]
/home/zliu/ubuntu-optee-rpi3/RPi3_OPTEE_3.1/optee_os/lib/libmpa/mpa_mul.c:208
    90ac:	7100003f 	cmp	w1, #0x0
    90b0:	7a401844 	ccmp	w2, #0x0, #0x4, ne  // ne = any
    90b4:	54000101 	b.ne	90d4 <mpa_mul_word+0x44>  // b.any
/home/zliu/ubuntu-optee-rpi3/RPi3_OPTEE_3.1/optee_os/lib/libmpa/mpa_mul.c:209
    90b8:	52800001 	mov	w1, #0x0                   	// #0
    90bc:	97fffa81 	bl	7ac0 <mpa_set_word>
/home/zliu/ubuntu-optee-rpi3/RPi3_OPTEE_3.1/optee_os/lib/libmpa/mpa_mul.c:229
    90c0:	a94153f3 	ldp	x19, x20, [sp, #16]
    90c4:	a9425bf5 	ldp	x21, x22, [sp, #32]
    90c8:	f9401bf7 	ldr	x23, [sp, #48]
    90cc:	a8c57bfd 	ldp	x29, x30, [sp], #80
    90d0:	d65f03c0 	ret
    90d4:	aa0003f3 	mov	x19, x0
/home/zliu/ubuntu-optee-rpi3/RPi3_OPTEE_3.1/optee_os/lib/libmpa/mpa_mul.c:213
    90d8:	12800000 	mov	w0, #0xffffffff            	// #-1
    90dc:	6b00003f 	cmp	w1, w0
    90e0:	2a0203f7 	mov	w23, w2
    90e4:	5a80d415 	cneg	w21, w0, gt
    90e8:	aa0303f6 	mov	x22, x3
/home/zliu/ubuntu-optee-rpi3/RPi3_OPTEE_3.1/optee_os/lib/libmpa/mpa_mul.c:217
    90ec:	eb13029f 	cmp	x20, x19
    90f0:	540002e1 	b.ne	914c <mpa_mul_word+0xbc>  // b.any
/home/zliu/ubuntu-optee-rpi3/RPi3_OPTEE_3.1/optee_os/lib/libmpa/mpa_mul.c:218
    90f4:	aa0303e1 	mov	x1, x3
    90f8:	910123a0 	add	x0, x29, #0x48
    90fc:	97ffff24 	bl	8d8c <mpa_alloc_static_temp_var>
/home/zliu/ubuntu-optee-rpi3/RPi3_OPTEE_3.1/optee_os/lib/libmpa/mpa_mul.c:222
    9100:	f94027a0 	ldr	x0, [x29, #72]
    9104:	2a1703e2 	mov	w2, w23
    9108:	aa1403e1 	mov	x1, x20
    910c:	97ffff45 	bl	8e20 <__mpa_abs_mul_word>
/home/zliu/ubuntu-optee-rpi3/RPi3_OPTEE_3.1/optee_os/lib/libmpa/mpa_mul.c:224
    9110:	310006bf 	cmn	w21, #0x1
    9114:	540000a1 	b.ne	9128 <mpa_mul_word+0x98>  // b.any
/home/zliu/ubuntu-optee-rpi3/RPi3_OPTEE_3.1/optee_os/lib/libmpa/mpa_mul.c:225
    9118:	f94027a1 	ldr	x1, [x29, #72]
    911c:	b9400420 	ldr	w0, [x1, #4]
    9120:	4b0003e0 	neg	w0, w0
    9124:	b9000420 	str	w0, [x1, #4]
/home/zliu/ubuntu-optee-rpi3/RPi3_OPTEE_3.1/optee_os/lib/libmpa/mpa_mul.c:226
    9128:	f94027a1 	ldr	x1, [x29, #72]
    912c:	aa1303e0 	mov	x0, x19
    9130:	97fff805 	bl	7144 <mpa_copy>
/home/zliu/ubuntu-optee-rpi3/RPi3_OPTEE_3.1/optee_os/lib/libmpa/mpa_mul.c:227
    9134:	eb13029f 	cmp	x20, x19
    9138:	54fffc41 	b.ne	90c0 <mpa_mul_word+0x30>  // b.any
/home/zliu/ubuntu-optee-rpi3/RPi3_OPTEE_3.1/optee_os/lib/libmpa/mpa_mul.c:228
    913c:	aa1603e1 	mov	x1, x22
    9140:	910123a0 	add	x0, x29, #0x48
    9144:	97ffff16 	bl	8d9c <mpa_free_static_temp_var>
    9148:	17ffffde 	b	90c0 <mpa_mul_word+0x30>
/home/zliu/ubuntu-optee-rpi3/RPi3_OPTEE_3.1/optee_os/lib/libmpa/mpa_mul.c:220
    914c:	f90027b3 	str	x19, [x29, #72]
    9150:	17ffffec 	b	9100 <mpa_mul_word+0x70>

0000000000009154 <mpa_set_random_generator>:
mpa_set_random_generator():
/home/zliu/ubuntu-optee-rpi3/RPi3_OPTEE_3.1/optee_os/lib/libmpa/mpa_random.c:35
    9154:	b0000021 	adrp	x1, e000 <mempool_u32+0xe50>
    9158:	f9069c20 	str	x0, [x1, #3384]
    915c:	d65f03c0 	ret

0000000000009160 <mpa_get_random>:
mpa_get_random():
/home/zliu/ubuntu-optee-rpi3/RPi3_OPTEE_3.1/optee_os/lib/libmpa/mpa_random.c:53
    9160:	a9ba7bfd 	stp	x29, x30, [sp, #-96]!
    9164:	910003fd 	mov	x29, sp
    9168:	a9025bf5 	stp	x21, x22, [sp, #32]
    916c:	aa0103f5 	mov	x21, x1
    9170:	a90153f3 	stp	x19, x20, [sp, #16]
    9174:	aa0003f4 	mov	x20, x0
    9178:	a90363f7 	stp	x23, x24, [sp, #48]
get_random_byte():
/home/zliu/ubuntu-optee-rpi3/RPi3_OPTEE_3.1/optee_os/lib/libmpa/mpa_random.c:41
    917c:	91017fb7 	add	x23, x29, #0x5f
mpa_get_random():
/home/zliu/ubuntu-optee-rpi3/RPi3_OPTEE_3.1/optee_os/lib/libmpa/mpa_random.c:53
    9180:	a9046bf9 	stp	x25, x26, [sp, #64]
/home/zliu/ubuntu-optee-rpi3/RPi3_OPTEE_3.1/optee_os/lib/libmpa/mpa_random.c:56
    9184:	97fff7e4 	bl	7114 <mpa_wipe>
/home/zliu/ubuntu-optee-rpi3/RPi3_OPTEE_3.1/optee_os/lib/libmpa/mpa_random.c:57
    9188:	b94006a0 	ldr	w0, [x21, #4]
    918c:	52800013 	mov	w19, #0x0                   	// #0
    9190:	b9400281 	ldr	w1, [x20]
    9194:	7100001f 	cmp	w0, #0x0
    9198:	5a80a400 	cneg	w0, w0, lt  // lt = tstop
/home/zliu/ubuntu-optee-rpi3/RPi3_OPTEE_3.1/optee_os/lib/libmpa/mpa_random.c:58
    919c:	6b00003f 	cmp	w1, w0
    91a0:	1a812000 	csel	w0, w0, w1, cs  // cs = hs, nlast
    91a4:	b9000680 	str	w0, [x20, #4]
get_random_byte():
/home/zliu/ubuntu-optee-rpi3/RPi3_OPTEE_3.1/optee_os/lib/libmpa/mpa_random.c:41
    91a8:	b000003a 	adrp	x26, e000 <mempool_u32+0xe50>
mpa_get_random():
/home/zliu/ubuntu-optee-rpi3/RPi3_OPTEE_3.1/optee_os/lib/libmpa/mpa_random.c:61
    91ac:	35000593 	cbnz	w19, 925c <mpa_get_random+0xfc>
    91b0:	91002299 	add	x25, x20, #0x8
    91b4:	1400000f 	b	91f0 <mpa_get_random+0x90>
    91b8:	52800098 	mov	w24, #0x4                   	// #4
    91bc:	52800000 	mov	w0, #0x0                   	// #0
/home/zliu/ubuntu-optee-rpi3/RPi3_OPTEE_3.1/optee_os/lib/libmpa/mpa_random.c:65 (discriminator 3)
    91c0:	53185c16 	lsl	w22, w0, #8
get_random_byte():
/home/zliu/ubuntu-optee-rpi3/RPi3_OPTEE_3.1/optee_os/lib/libmpa/mpa_random.c:41
    91c4:	f9469f42 	ldr	x2, [x26, #3384]
    91c8:	d2800021 	mov	x1, #0x1                   	// #1
    91cc:	aa1703e0 	mov	x0, x23
    91d0:	d63f0040 	blr	x2
    91d4:	35ffff80 	cbnz	w0, 91c4 <mpa_get_random+0x64>
/home/zliu/ubuntu-optee-rpi3/RPi3_OPTEE_3.1/optee_os/lib/libmpa/mpa_random.c:44
    91d8:	39417fa0 	ldrb	w0, [x29, #95]
mpa_get_random():
/home/zliu/ubuntu-optee-rpi3/RPi3_OPTEE_3.1/optee_os/lib/libmpa/mpa_random.c:64
    91dc:	71000718 	subs	w24, w24, #0x1
/home/zliu/ubuntu-optee-rpi3/RPi3_OPTEE_3.1/optee_os/lib/libmpa/mpa_random.c:65
    91e0:	4a160000 	eor	w0, w0, w22
/home/zliu/ubuntu-optee-rpi3/RPi3_OPTEE_3.1/optee_os/lib/libmpa/mpa_random.c:64
    91e4:	54fffee1 	b.ne	91c0 <mpa_get_random+0x60>  // b.any
/home/zliu/ubuntu-optee-rpi3/RPi3_OPTEE_3.1/optee_os/lib/libmpa/mpa_random.c:62 (discriminator 2)
    91e8:	11000673 	add	w19, w19, #0x1
/home/zliu/ubuntu-optee-rpi3/RPi3_OPTEE_3.1/optee_os/lib/libmpa/mpa_random.c:66 (discriminator 2)
    91ec:	b8004720 	str	w0, [x25], #4
/home/zliu/ubuntu-optee-rpi3/RPi3_OPTEE_3.1/optee_os/lib/libmpa/mpa_random.c:62 (discriminator 1)
    91f0:	b9400681 	ldr	w1, [x20, #4]
    91f4:	6b01027f 	cmp	w19, w1
    91f8:	54fffe0b 	b.lt	91b8 <mpa_get_random+0x58>  // b.tstop
/home/zliu/ubuntu-optee-rpi3/RPi3_OPTEE_3.1/optee_os/lib/libmpa/mpa_random.c:68
    91fc:	b94006a0 	ldr	w0, [x21, #4]
/home/zliu/ubuntu-optee-rpi3/RPi3_OPTEE_3.1/optee_os/lib/libmpa/mpa_random.c:69
    9200:	52800033 	mov	w19, #0x1                   	// #1
/home/zliu/ubuntu-optee-rpi3/RPi3_OPTEE_3.1/optee_os/lib/libmpa/mpa_random.c:68
    9204:	7100001f 	cmp	w0, #0x0
    9208:	5a80a400 	cneg	w0, w0, lt  // lt = tstop
    920c:	6b00003f 	cmp	w1, w0
    9210:	5400026b 	b.lt	925c <mpa_get_random+0xfc>  // b.tstop
/home/zliu/ubuntu-optee-rpi3/RPi3_OPTEE_3.1/optee_os/lib/libmpa/mpa_random.c:72
    9214:	aa1503e0 	mov	x0, x21
    9218:	97fff7ec 	bl	71c8 <mpa_highest_bit_index>
/home/zliu/ubuntu-optee-rpi3/RPi3_OPTEE_3.1/optee_os/lib/libmpa/mpa_random.c:74
    921c:	12001000 	and	w0, w0, #0x1f
    9220:	0b130000 	add	w0, w0, w19
/home/zliu/ubuntu-optee-rpi3/RPi3_OPTEE_3.1/optee_os/lib/libmpa/mpa_random.c:75
    9224:	7100801f 	cmp	w0, #0x20
    9228:	54000100 	b.eq	9248 <mpa_get_random+0xe8>  // b.none
/home/zliu/ubuntu-optee-rpi3/RPi3_OPTEE_3.1/optee_os/lib/libmpa/mpa_random.c:76
    922c:	1ac02273 	lsl	w19, w19, w0
    9230:	b9800680 	ldrsw	x0, [x20, #4]
    9234:	51000673 	sub	w19, w19, #0x1
    9238:	8b000a80 	add	x0, x20, x0, lsl #2
/home/zliu/ubuntu-optee-rpi3/RPi3_OPTEE_3.1/optee_os/lib/libmpa/mpa_random.c:77
    923c:	b9400401 	ldr	w1, [x0, #4]
    9240:	0a130033 	and	w19, w1, w19
    9244:	b9000413 	str	w19, [x0, #4]
/home/zliu/ubuntu-optee-rpi3/RPi3_OPTEE_3.1/optee_os/lib/libmpa/mpa_random.c:79
    9248:	aa1503e1 	mov	x1, x21
    924c:	aa1403e0 	mov	x0, x20
    9250:	9400038e 	bl	a088 <mpa_cmp>
    9254:	531f7c13 	lsr	w19, w0, #31
    9258:	17ffffd4 	b	91a8 <mpa_get_random+0x48>
/home/zliu/ubuntu-optee-rpi3/RPi3_OPTEE_3.1/optee_os/lib/libmpa/mpa_random.c:82
    925c:	a94153f3 	ldp	x19, x20, [sp, #16]
    9260:	a9425bf5 	ldp	x21, x22, [sp, #32]
    9264:	a94363f7 	ldp	x23, x24, [sp, #48]
    9268:	a9446bf9 	ldp	x25, x26, [sp, #64]
    926c:	a8c67bfd 	ldp	x29, x30, [sp], #96
    9270:	d65f03c0 	ret

0000000000009274 <mpa_get_random_digits>:
mpa_get_random_digits():
/home/zliu/ubuntu-optee-rpi3/RPi3_OPTEE_3.1/optee_os/lib/libmpa/mpa_random.c:85
    9274:	a9be7bfd 	stp	x29, x30, [sp, #-32]!
    9278:	910003fd 	mov	x29, sp
    927c:	a90153f3 	stp	x19, x20, [sp, #16]
    9280:	aa0003f4 	mov	x20, x0
    9284:	2a0103f3 	mov	w19, w1
/home/zliu/ubuntu-optee-rpi3/RPi3_OPTEE_3.1/optee_os/lib/libmpa/mpa_random.c:86
    9288:	97fff7a3 	bl	7114 <mpa_wipe>
/home/zliu/ubuntu-optee-rpi3/RPi3_OPTEE_3.1/optee_os/lib/libmpa/mpa_random.c:88
    928c:	b9400280 	ldr	w0, [x20]
    9290:	6b13001f 	cmp	w0, w19
    9294:	540000a2 	b.cs	92a8 <mpa_get_random_digits+0x34>  // b.hs, b.nlast
/home/zliu/ubuntu-optee-rpi3/RPi3_OPTEE_3.1/optee_os/lib/libmpa/mpa_random.c:89
    9298:	52800000 	mov	w0, #0x0                   	// #0
/home/zliu/ubuntu-optee-rpi3/RPi3_OPTEE_3.1/optee_os/lib/libmpa/mpa_random.c:97
    929c:	a94153f3 	ldp	x19, x20, [sp, #16]
    92a0:	a8c27bfd 	ldp	x29, x30, [sp], #32
    92a4:	d65f03c0 	ret
/home/zliu/ubuntu-optee-rpi3/RPi3_OPTEE_3.1/optee_os/lib/libmpa/mpa_random.c:93
    92a8:	b0000020 	adrp	x0, e000 <mempool_u32+0xe50>
    92ac:	7100027f 	cmp	w19, #0x0
/home/zliu/ubuntu-optee-rpi3/RPi3_OPTEE_3.1/optee_os/lib/libmpa/mpa_random.c:91
    92b0:	b9000693 	str	w19, [x20, #4]
/home/zliu/ubuntu-optee-rpi3/RPi3_OPTEE_3.1/optee_os/lib/libmpa/mpa_random.c:93
    92b4:	5a93a673 	cneg	w19, w19, lt  // lt = tstop
    92b8:	f9469c02 	ldr	x2, [x0, #3384]
    92bc:	531e7661 	lsl	w1, w19, #2
    92c0:	91002280 	add	x0, x20, #0x8
    92c4:	93407c21 	sxtw	x1, w1
    92c8:	d63f0040 	blr	x2
    92cc:	35fffe60 	cbnz	w0, 9298 <mpa_get_random_digits+0x24>
/home/zliu/ubuntu-optee-rpi3/RPi3_OPTEE_3.1/optee_os/lib/libmpa/mpa_random.c:96
    92d0:	b9400680 	ldr	w0, [x20, #4]
    92d4:	7100001f 	cmp	w0, #0x0
    92d8:	5a80a400 	cneg	w0, w0, lt  // lt = tstop
    92dc:	17fffff0 	b	929c <mpa_get_random_digits+0x28>

00000000000092e0 <__mpa_shift_words_left>:
__mpa_shift_words_left():
/home/zliu/ubuntu-optee-rpi3/RPi3_OPTEE_3.1/optee_os/lib/libmpa/mpa_shift.c:45
    92e0:	340004a1 	cbz	w1, 9374 <__mpa_shift_words_left+0x94>
/home/zliu/ubuntu-optee-rpi3/RPi3_OPTEE_3.1/optee_os/lib/libmpa/mpa_shift.c:42 (discriminator 1)
    92e4:	a9bd7bfd 	stp	x29, x30, [sp, #-48]!
    92e8:	910003fd 	mov	x29, sp
    92ec:	f90013f5 	str	x21, [sp, #32]
    92f0:	a90153f3 	stp	x19, x20, [sp, #16]
/home/zliu/ubuntu-optee-rpi3/RPi3_OPTEE_3.1/optee_os/lib/libmpa/mpa_shift.c:45 (discriminator 1)
    92f4:	b9400415 	ldr	w21, [x0, #4]
    92f8:	710002bf 	cmp	w21, #0x0
    92fc:	54000280 	b.eq	934c <__mpa_shift_words_left+0x6c>  // b.none
    9300:	51000425 	sub	w5, w1, #0x1
/home/zliu/ubuntu-optee-rpi3/RPi3_OPTEE_3.1/optee_os/lib/libmpa/mpa_shift.c:47
    9304:	5a95a6a2 	cneg	w2, w21, lt  // lt = tstop
    9308:	0b050042 	add	w2, w2, w5
    930c:	d37e7c43 	ubfiz	x3, x2, #2, #32
    9310:	91002063 	add	x3, x3, #0x8
    9314:	8b030003 	add	x3, x0, x3
/home/zliu/ubuntu-optee-rpi3/RPi3_OPTEE_3.1/optee_os/lib/libmpa/mpa_shift.c:47 (discriminator 1)
    9318:	6b05005f 	cmp	w2, w5
    931c:	54000208 	b.hi	935c <__mpa_shift_words_left+0x7c>  // b.pmore
    9320:	2a0103f3 	mov	w19, w1
    9324:	aa0003f4 	mov	x20, x0
/home/zliu/ubuntu-optee-rpi3/RPi3_OPTEE_3.1/optee_os/lib/libmpa/mpa_shift.c:50
    9328:	52800001 	mov	w1, #0x0                   	// #0
    932c:	d37e7662 	ubfiz	x2, x19, #2, #30
    9330:	91002000 	add	x0, x0, #0x8
    9334:	97fff391 	bl	6178 <memset>
/home/zliu/ubuntu-optee-rpi3/RPi3_OPTEE_3.1/optee_os/lib/libmpa/mpa_shift.c:54
    9338:	4b1302a0 	sub	w0, w21, w19
    933c:	0b1302a1 	add	w1, w21, w19
    9340:	710002bf 	cmp	w21, #0x0
    9344:	1a80c021 	csel	w1, w1, w0, gt
    9348:	b9000681 	str	w1, [x20, #4]
/home/zliu/ubuntu-optee-rpi3/RPi3_OPTEE_3.1/optee_os/lib/libmpa/mpa_shift.c:57
    934c:	a94153f3 	ldp	x19, x20, [sp, #16]
    9350:	f94013f5 	ldr	x21, [sp, #32]
    9354:	a8c37bfd 	ldp	x29, x30, [sp], #48
    9358:	d65f03c0 	ret
/home/zliu/ubuntu-optee-rpi3/RPi3_OPTEE_3.1/optee_os/lib/libmpa/mpa_shift.c:48 (discriminator 3)
    935c:	4b010044 	sub	w4, w2, w1
/home/zliu/ubuntu-optee-rpi3/RPi3_OPTEE_3.1/optee_os/lib/libmpa/mpa_shift.c:47 (discriminator 3)
    9360:	51000442 	sub	w2, w2, #0x1
/home/zliu/ubuntu-optee-rpi3/RPi3_OPTEE_3.1/optee_os/lib/libmpa/mpa_shift.c:48 (discriminator 3)
    9364:	8b040804 	add	x4, x0, x4, lsl #2
    9368:	b9400884 	ldr	w4, [x4, #8]
    936c:	b81fc464 	str	w4, [x3], #-4
    9370:	17ffffea 	b	9318 <__mpa_shift_words_left+0x38>
    9374:	d65f03c0 	ret

0000000000009378 <__mpa_shift_words_right>:
__mpa_shift_words_right():
/home/zliu/ubuntu-optee-rpi3/RPi3_OPTEE_3.1/optee_os/lib/libmpa/mpa_shift.c:65
    9378:	aa0003e3 	mov	x3, x0
/home/zliu/ubuntu-optee-rpi3/RPi3_OPTEE_3.1/optee_os/lib/libmpa/mpa_shift.c:68
    937c:	34000201 	cbz	w1, 93bc <__mpa_shift_words_right+0x44>
/home/zliu/ubuntu-optee-rpi3/RPi3_OPTEE_3.1/optee_os/lib/libmpa/mpa_shift.c:68 (discriminator 1)
    9380:	b9400402 	ldr	w2, [x0, #4]
    9384:	7100005f 	cmp	w2, #0x0
    9388:	540001a0 	b.eq	93bc <__mpa_shift_words_right+0x44>  // b.none
/home/zliu/ubuntu-optee-rpi3/RPi3_OPTEE_3.1/optee_os/lib/libmpa/mpa_shift.c:71
    938c:	5a82a444 	cneg	w4, w2, lt  // lt = tstop
    9390:	6b04003f 	cmp	w1, w4
    9394:	54000162 	b.cs	93c0 <__mpa_shift_words_right+0x48>  // b.hs, b.nlast
    9398:	91002005 	add	x5, x0, #0x8
    939c:	2a0103e0 	mov	w0, w1
/home/zliu/ubuntu-optee-rpi3/RPi3_OPTEE_3.1/optee_os/lib/libmpa/mpa_shift.c:76 (discriminator 1)
    93a0:	6b04001f 	cmp	w0, w4
    93a4:	54000121 	b.ne	93c8 <__mpa_shift_words_right+0x50>  // b.any
/home/zliu/ubuntu-optee-rpi3/RPi3_OPTEE_3.1/optee_os/lib/libmpa/mpa_shift.c:81
    93a8:	0b010040 	add	w0, w2, w1
    93ac:	7100005f 	cmp	w2, #0x0
    93b0:	4b010041 	sub	w1, w2, w1
    93b4:	1a80c021 	csel	w1, w1, w0, gt
    93b8:	b9000461 	str	w1, [x3, #4]
    93bc:	d65f03c0 	ret
/home/zliu/ubuntu-optee-rpi3/RPi3_OPTEE_3.1/optee_os/lib/libmpa/mpa_shift.c:72
    93c0:	52800001 	mov	w1, #0x0                   	// #0
    93c4:	17fff9bf 	b	7ac0 <mpa_set_word>
/home/zliu/ubuntu-optee-rpi3/RPi3_OPTEE_3.1/optee_os/lib/libmpa/mpa_shift.c:77 (discriminator 3)
    93c8:	8b204866 	add	x6, x3, w0, uxtw #2
    93cc:	11000400 	add	w0, w0, #0x1
    93d0:	b94008c6 	ldr	w6, [x6, #8]
    93d4:	b80044a6 	str	w6, [x5], #4
    93d8:	17fffff2 	b	93a0 <__mpa_shift_words_right+0x28>

00000000000093dc <mpa_shift_left>:
mpa_shift_left():
/home/zliu/ubuntu-optee-rpi3/RPi3_OPTEE_3.1/optee_os/lib/libmpa/mpa_shift.c:99
    93dc:	a9bd7bfd 	stp	x29, x30, [sp, #-48]!
    93e0:	910003fd 	mov	x29, sp
    93e4:	a90153f3 	stp	x19, x20, [sp, #16]
    93e8:	aa0003f3 	mov	x19, x0
    93ec:	a9025bf5 	stp	x21, x22, [sp, #32]
    93f0:	2a0203f6 	mov	w22, w2
/home/zliu/ubuntu-optee-rpi3/RPi3_OPTEE_3.1/optee_os/lib/libmpa/mpa_shift.c:111
    93f4:	97fff754 	bl	7144 <mpa_copy>
/home/zliu/ubuntu-optee-rpi3/RPi3_OPTEE_3.1/optee_os/lib/libmpa/mpa_shift.c:112
    93f8:	aa1303e0 	mov	x0, x19
    93fc:	97fff73d 	bl	70f0 <__mpa_set_unused_digits_to_zero>
/home/zliu/ubuntu-optee-rpi3/RPi3_OPTEE_3.1/optee_os/lib/libmpa/mpa_shift.c:113
    9400:	34000316 	cbz	w22, 9460 <mpa_shift_left+0x84>
/home/zliu/ubuntu-optee-rpi3/RPi3_OPTEE_3.1/optee_os/lib/libmpa/mpa_shift.c:113 (discriminator 1)
    9404:	b9400674 	ldr	w20, [x19, #4]
    9408:	340002d4 	cbz	w20, 9460 <mpa_shift_left+0x84>
/home/zliu/ubuntu-optee-rpi3/RPi3_OPTEE_3.1/optee_os/lib/libmpa/mpa_shift.c:117
    940c:	53057ed5 	lsr	w21, w22, #5
/home/zliu/ubuntu-optee-rpi3/RPi3_OPTEE_3.1/optee_os/lib/libmpa/mpa_shift.c:133
    9410:	720012d6 	ands	w22, w22, #0x1f
    9414:	540003a1 	b.ne	9488 <mpa_shift_left+0xac>  // b.any
/home/zliu/ubuntu-optee-rpi3/RPi3_OPTEE_3.1/optee_os/lib/libmpa/mpa_shift.c:137
    9418:	7100029f 	cmp	w20, #0x0
    941c:	510006a3 	sub	w3, w21, #0x1
    9420:	5a94a680 	cneg	w0, w20, lt  // lt = tstop
    9424:	0b030000 	add	w0, w0, w3
    9428:	d37e7c01 	ubfiz	x1, x0, #2, #32
    942c:	91002021 	add	x1, x1, #0x8
    9430:	8b010261 	add	x1, x19, x1
/home/zliu/ubuntu-optee-rpi3/RPi3_OPTEE_3.1/optee_os/lib/libmpa/mpa_shift.c:137 (discriminator 1)
    9434:	6b03001f 	cmp	w0, w3
    9438:	540001c8 	b.hi	9470 <mpa_shift_left+0x94>  // b.pmore
/home/zliu/ubuntu-optee-rpi3/RPi3_OPTEE_3.1/optee_os/lib/libmpa/mpa_shift.c:163
    943c:	d37e6aa2 	ubfiz	x2, x21, #2, #27
    9440:	52800001 	mov	w1, #0x0                   	// #0
    9444:	91002260 	add	x0, x19, #0x8
    9448:	97fff34c 	bl	6178 <memset>
/home/zliu/ubuntu-optee-rpi3/RPi3_OPTEE_3.1/optee_os/lib/libmpa/mpa_shift.c:165
    944c:	7100029f 	cmp	w20, #0x0
    9450:	5400088d 	b.le	9560 <mpa_shift_left+0x184>
/home/zliu/ubuntu-optee-rpi3/RPi3_OPTEE_3.1/optee_os/lib/libmpa/mpa_shift.c:166
    9454:	0b150294 	add	w20, w20, w21
    9458:	0b160294 	add	w20, w20, w22
/home/zliu/ubuntu-optee-rpi3/RPi3_OPTEE_3.1/optee_os/lib/libmpa/mpa_shift.c:168
    945c:	b9000674 	str	w20, [x19, #4]
/home/zliu/ubuntu-optee-rpi3/RPi3_OPTEE_3.1/optee_os/lib/libmpa/mpa_shift.c:169
    9460:	a94153f3 	ldp	x19, x20, [sp, #16]
    9464:	a9425bf5 	ldp	x21, x22, [sp, #32]
    9468:	a8c37bfd 	ldp	x29, x30, [sp], #48
    946c:	d65f03c0 	ret
/home/zliu/ubuntu-optee-rpi3/RPi3_OPTEE_3.1/optee_os/lib/libmpa/mpa_shift.c:138 (discriminator 3)
    9470:	4b150002 	sub	w2, w0, w21
/home/zliu/ubuntu-optee-rpi3/RPi3_OPTEE_3.1/optee_os/lib/libmpa/mpa_shift.c:137 (discriminator 3)
    9474:	51000400 	sub	w0, w0, #0x1
/home/zliu/ubuntu-optee-rpi3/RPi3_OPTEE_3.1/optee_os/lib/libmpa/mpa_shift.c:138 (discriminator 3)
    9478:	8b020a62 	add	x2, x19, x2, lsl #2
    947c:	b9400842 	ldr	w2, [x2, #8]
    9480:	b81fc422 	str	w2, [x1], #-4
    9484:	17ffffec 	b	9434 <mpa_shift_left+0x58>
/home/zliu/ubuntu-optee-rpi3/RPi3_OPTEE_3.1/optee_os/lib/libmpa/mpa_shift.c:140
    9488:	7100029f 	cmp	w20, #0x0
/home/zliu/ubuntu-optee-rpi3/RPi3_OPTEE_3.1/optee_os/lib/libmpa/mpa_shift.c:141
    948c:	52800021 	mov	w1, #0x1                   	// #1
/home/zliu/ubuntu-optee-rpi3/RPi3_OPTEE_3.1/optee_os/lib/libmpa/mpa_shift.c:140
    9490:	5a94a680 	cneg	w0, w20, lt  // lt = tstop
/home/zliu/ubuntu-optee-rpi3/RPi3_OPTEE_3.1/optee_os/lib/libmpa/mpa_shift.c:141
    9494:	52800403 	mov	w3, #0x20                  	// #32
/home/zliu/ubuntu-optee-rpi3/RPi3_OPTEE_3.1/optee_os/lib/libmpa/mpa_shift.c:140
    9498:	51000402 	sub	w2, w0, #0x1
/home/zliu/ubuntu-optee-rpi3/RPi3_OPTEE_3.1/optee_os/lib/libmpa/mpa_shift.c:141
    949c:	4b160063 	sub	w3, w3, w22
/home/zliu/ubuntu-optee-rpi3/RPi3_OPTEE_3.1/optee_os/lib/libmpa/mpa_shift.c:140
    94a0:	8b22ca62 	add	x2, x19, w2, sxtw #2
/home/zliu/ubuntu-optee-rpi3/RPi3_OPTEE_3.1/optee_os/lib/libmpa/mpa_shift.c:141
    94a4:	1ad62021 	lsl	w1, w1, w22
    94a8:	51000421 	sub	w1, w1, #0x1
/home/zliu/ubuntu-optee-rpi3/RPi3_OPTEE_3.1/optee_os/lib/libmpa/mpa_shift.c:149
    94ac:	0b150000 	add	w0, w0, w21
/home/zliu/ubuntu-optee-rpi3/RPi3_OPTEE_3.1/optee_os/lib/libmpa/mpa_shift.c:140
    94b0:	b9400842 	ldr	w2, [x2, #8]
/home/zliu/ubuntu-optee-rpi3/RPi3_OPTEE_3.1/optee_os/lib/libmpa/mpa_shift.c:141
    94b4:	1ac32021 	lsl	w1, w1, w3
/home/zliu/ubuntu-optee-rpi3/RPi3_OPTEE_3.1/optee_os/lib/libmpa/mpa_shift.c:140
    94b8:	6a020021 	ands	w1, w1, w2
    94bc:	1a9f07e6 	cset	w6, ne  // ne = any
/home/zliu/ubuntu-optee-rpi3/RPi3_OPTEE_3.1/optee_os/lib/libmpa/mpa_shift.c:149
    94c0:	0b060000 	add	w0, w0, w6
/home/zliu/ubuntu-optee-rpi3/RPi3_OPTEE_3.1/optee_os/lib/libmpa/mpa_shift.c:150
    94c4:	34000141 	cbz	w1, 94ec <mpa_shift_left+0x110>
/home/zliu/ubuntu-optee-rpi3/RPi3_OPTEE_3.1/optee_os/lib/libmpa/mpa_shift.c:151
    94c8:	2a3503e1 	mvn	w1, w21
    94cc:	8b204a64 	add	x4, x19, w0, uxtw #2
    94d0:	0b000021 	add	w1, w1, w0
    94d4:	8b010a61 	add	x1, x19, x1, lsl #2
    94d8:	b9400821 	ldr	w1, [x1, #8]
    94dc:	1ac32422 	lsr	w2, w1, w3
/home/zliu/ubuntu-optee-rpi3/RPi3_OPTEE_3.1/optee_os/lib/libmpa/mpa_shift.c:152
    94e0:	b9400881 	ldr	w1, [x4, #8]
    94e4:	4a020021 	eor	w1, w1, w2
    94e8:	b9000881 	str	w1, [x4, #8]
/home/zliu/ubuntu-optee-rpi3/RPi3_OPTEE_3.1/optee_os/lib/libmpa/mpa_shift.c:154
    94ec:	51000401 	sub	w1, w0, #0x1
    94f0:	4b150000 	sub	w0, w0, w21
/home/zliu/ubuntu-optee-rpi3/RPi3_OPTEE_3.1/optee_os/lib/libmpa/mpa_shift.c:155
    94f4:	4b150024 	sub	w4, w1, w21
    94f8:	8b010a65 	add	x5, x19, x1, lsl #2
    94fc:	8b040a64 	add	x4, x19, x4, lsl #2
/home/zliu/ubuntu-optee-rpi3/RPi3_OPTEE_3.1/optee_os/lib/libmpa/mpa_shift.c:154
    9500:	aa0103e2 	mov	x2, x1
    9504:	91000821 	add	x1, x1, #0x2
    9508:	51000800 	sub	w0, w0, #0x2
    950c:	8b010a61 	add	x1, x19, x1, lsl #2
/home/zliu/ubuntu-optee-rpi3/RPi3_OPTEE_3.1/optee_os/lib/libmpa/mpa_shift.c:155
    9510:	b9400884 	ldr	w4, [x4, #8]
    9514:	1ad62084 	lsl	w4, w4, w22
    9518:	b90008a4 	str	w4, [x5, #8]
/home/zliu/ubuntu-optee-rpi3/RPi3_OPTEE_3.1/optee_os/lib/libmpa/mpa_shift.c:156
    951c:	6b15005f 	cmp	w2, w21
    9520:	54000068 	b.hi	952c <mpa_shift_left+0x150>  // b.pmore
/home/zliu/ubuntu-optee-rpi3/RPi3_OPTEE_3.1/optee_os/lib/libmpa/mpa_shift.c:131
    9524:	2a0603f6 	mov	w22, w6
    9528:	17ffffc5 	b	943c <mpa_shift_left+0x60>
/home/zliu/ubuntu-optee-rpi3/RPi3_OPTEE_3.1/optee_os/lib/libmpa/mpa_shift.c:157
    952c:	8b204a67 	add	x7, x19, w0, uxtw #2
/home/zliu/ubuntu-optee-rpi3/RPi3_OPTEE_3.1/optee_os/lib/libmpa/mpa_shift.c:159
    9530:	51000442 	sub	w2, w2, #0x1
    9534:	51000400 	sub	w0, w0, #0x1
/home/zliu/ubuntu-optee-rpi3/RPi3_OPTEE_3.1/optee_os/lib/libmpa/mpa_shift.c:157
    9538:	b94008e4 	ldr	w4, [x7, #8]
    953c:	1ac32485 	lsr	w5, w4, w3
/home/zliu/ubuntu-optee-rpi3/RPi3_OPTEE_3.1/optee_os/lib/libmpa/mpa_shift.c:158
    9540:	b9400024 	ldr	w4, [x1]
    9544:	4a050084 	eor	w4, w4, w5
    9548:	b81fc424 	str	w4, [x1], #-4
/home/zliu/ubuntu-optee-rpi3/RPi3_OPTEE_3.1/optee_os/lib/libmpa/mpa_shift.c:160
    954c:	8b224a65 	add	x5, x19, w2, uxtw #2
    9550:	b94008e4 	ldr	w4, [x7, #8]
    9554:	1ad62084 	lsl	w4, w4, w22
    9558:	b90008a4 	str	w4, [x5, #8]
    955c:	17fffff0 	b	951c <mpa_shift_left+0x140>
/home/zliu/ubuntu-optee-rpi3/RPi3_OPTEE_3.1/optee_os/lib/libmpa/mpa_shift.c:168
    9560:	4b150294 	sub	w20, w20, w21
    9564:	4b160294 	sub	w20, w20, w22
    9568:	17ffffbd 	b	945c <mpa_shift_left+0x80>

000000000000956c <mpa_shift_right>:
mpa_shift_right():
/home/zliu/ubuntu-optee-rpi3/RPi3_OPTEE_3.1/optee_os/lib/libmpa/mpa_shift.c:180
    956c:	a9be7bfd 	stp	x29, x30, [sp, #-32]!
    9570:	910003fd 	mov	x29, sp
    9574:	a90153f3 	stp	x19, x20, [sp, #16]
    9578:	aa0003f3 	mov	x19, x0
    957c:	2a0203f4 	mov	w20, w2
/home/zliu/ubuntu-optee-rpi3/RPi3_OPTEE_3.1/optee_os/lib/libmpa/mpa_shift.c:191
    9580:	97fff6f1 	bl	7144 <mpa_copy>
/home/zliu/ubuntu-optee-rpi3/RPi3_OPTEE_3.1/optee_os/lib/libmpa/mpa_shift.c:192
    9584:	aa1303e0 	mov	x0, x19
    9588:	97fff6da 	bl	70f0 <__mpa_set_unused_digits_to_zero>
/home/zliu/ubuntu-optee-rpi3/RPi3_OPTEE_3.1/optee_os/lib/libmpa/mpa_shift.c:193
    958c:	34000674 	cbz	w20, 9658 <mpa_shift_right+0xec>
/home/zliu/ubuntu-optee-rpi3/RPi3_OPTEE_3.1/optee_os/lib/libmpa/mpa_shift.c:193 (discriminator 1)
    9590:	b9400663 	ldr	w3, [x19, #4]
    9594:	7100007f 	cmp	w3, #0x0
    9598:	54000600 	b.eq	9658 <mpa_shift_right+0xec>  // b.none
/home/zliu/ubuntu-optee-rpi3/RPi3_OPTEE_3.1/optee_os/lib/libmpa/mpa_shift.c:197
    959c:	53057e82 	lsr	w2, w20, #5
/home/zliu/ubuntu-optee-rpi3/RPi3_OPTEE_3.1/optee_os/lib/libmpa/mpa_shift.c:199
    95a0:	5a83a466 	cneg	w6, w3, lt  // lt = tstop
/home/zliu/ubuntu-optee-rpi3/RPi3_OPTEE_3.1/optee_os/lib/libmpa/mpa_shift.c:196
    95a4:	12001284 	and	w4, w20, #0x1f
/home/zliu/ubuntu-optee-rpi3/RPi3_OPTEE_3.1/optee_os/lib/libmpa/mpa_shift.c:199
    95a8:	6b06005f 	cmp	w2, w6
    95ac:	540000c3 	b.cc	95c4 <mpa_shift_right+0x58>  // b.lo, b.ul, b.last
/home/zliu/ubuntu-optee-rpi3/RPi3_OPTEE_3.1/optee_os/lib/libmpa/mpa_shift.c:200
    95b0:	aa1303e0 	mov	x0, x19
    95b4:	52800001 	mov	w1, #0x0                   	// #0
/home/zliu/ubuntu-optee-rpi3/RPi3_OPTEE_3.1/optee_os/lib/libmpa/mpa_shift.c:238
    95b8:	a94153f3 	ldp	x19, x20, [sp, #16]
    95bc:	a8c27bfd 	ldp	x29, x30, [sp], #32
/home/zliu/ubuntu-optee-rpi3/RPi3_OPTEE_3.1/optee_os/lib/libmpa/mpa_shift.c:200
    95c0:	17fff940 	b	7ac0 <mpa_set_word>
    95c4:	91002260 	add	x0, x19, #0x8
/home/zliu/ubuntu-optee-rpi3/RPi3_OPTEE_3.1/optee_os/lib/libmpa/mpa_shift.c:209
    95c8:	34000264 	cbz	w4, 9614 <mpa_shift_right+0xa8>
/home/zliu/ubuntu-optee-rpi3/RPi3_OPTEE_3.1/optee_os/lib/libmpa/mpa_shift.c:217 (discriminator 1)
    95cc:	d2800025 	mov	x5, #0x1                   	// #1
/home/zliu/ubuntu-optee-rpi3/RPi3_OPTEE_3.1/optee_os/lib/libmpa/mpa_shift.c:219 (discriminator 1)
    95d0:	52800409 	mov	w9, #0x20                  	// #32
/home/zliu/ubuntu-optee-rpi3/RPi3_OPTEE_3.1/optee_os/lib/libmpa/mpa_shift.c:217 (discriminator 1)
    95d4:	9ac420a5 	lsl	x5, x5, x4
    95d8:	2a0203e1 	mov	w1, w2
    95dc:	510004a5 	sub	w5, w5, #0x1
/home/zliu/ubuntu-optee-rpi3/RPi3_OPTEE_3.1/optee_os/lib/libmpa/mpa_shift.c:219 (discriminator 1)
    95e0:	4b040129 	sub	w9, w9, w4
    95e4:	11000428 	add	w8, w1, #0x1
/home/zliu/ubuntu-optee-rpi3/RPi3_OPTEE_3.1/optee_os/lib/libmpa/mpa_shift.c:215 (discriminator 1)
    95e8:	6b0800df 	cmp	w6, w8
    95ec:	54000461 	b.ne	9678 <mpa_shift_right+0x10c>  // b.any
    95f0:	2a2203e0 	mvn	w0, w2
    95f4:	0b060000 	add	w0, w0, w6
/home/zliu/ubuntu-optee-rpi3/RPi3_OPTEE_3.1/optee_os/lib/libmpa/mpa_shift.c:222
    95f8:	8b204a61 	add	x1, x19, w0, uxtw #2
    95fc:	0b000040 	add	w0, w2, w0
    9600:	8b000a60 	add	x0, x19, x0, lsl #2
    9604:	b9400800 	ldr	w0, [x0, #8]
    9608:	1ac42404 	lsr	w4, w0, w4
    960c:	b9000824 	str	w4, [x1, #8]
    9610:	14000004 	b	9620 <mpa_shift_right+0xb4>
/home/zliu/ubuntu-optee-rpi3/RPi3_OPTEE_3.1/optee_os/lib/libmpa/mpa_shift.c:209 (discriminator 1)
    9614:	2a0203e1 	mov	w1, w2
/home/zliu/ubuntu-optee-rpi3/RPi3_OPTEE_3.1/optee_os/lib/libmpa/mpa_shift.c:211 (discriminator 1)
    9618:	6b0100df 	cmp	w6, w1
    961c:	54000241 	b.ne	9664 <mpa_shift_right+0xf8>  // b.any
/home/zliu/ubuntu-optee-rpi3/RPi3_OPTEE_3.1/optee_os/lib/libmpa/mpa_shift.c:227
    9620:	0b020060 	add	w0, w3, w2
    9624:	7100007f 	cmp	w3, #0x0
    9628:	4b020062 	sub	w2, w3, w2
    962c:	1a80c042 	csel	w2, w2, w0, gt
    9630:	b9000662 	str	w2, [x19, #4]
/home/zliu/ubuntu-optee-rpi3/RPi3_OPTEE_3.1/optee_os/lib/libmpa/mpa_shift.c:232
    9634:	7100005f 	cmp	w2, #0x0
    9638:	5a82a440 	cneg	w0, w2, lt  // lt = tstop
    963c:	51000400 	sub	w0, w0, #0x1
    9640:	8b20ca60 	add	x0, x19, w0, sxtw #2
    9644:	b9400800 	ldr	w0, [x0, #8]
    9648:	35000080 	cbnz	w0, 9658 <mpa_shift_right+0xec>
/home/zliu/ubuntu-optee-rpi3/RPi3_OPTEE_3.1/optee_os/lib/libmpa/mpa_shift.c:233
    964c:	540002ed 	b.le	96a8 <mpa_shift_right+0x13c>
/home/zliu/ubuntu-optee-rpi3/RPi3_OPTEE_3.1/optee_os/lib/libmpa/mpa_shift.c:234
    9650:	51000442 	sub	w2, w2, #0x1
/home/zliu/ubuntu-optee-rpi3/RPi3_OPTEE_3.1/optee_os/lib/libmpa/mpa_shift.c:236
    9654:	b9000662 	str	w2, [x19, #4]
/home/zliu/ubuntu-optee-rpi3/RPi3_OPTEE_3.1/optee_os/lib/libmpa/mpa_shift.c:238
    9658:	a94153f3 	ldp	x19, x20, [sp, #16]
    965c:	a8c27bfd 	ldp	x29, x30, [sp], #32
    9660:	d65f03c0 	ret
/home/zliu/ubuntu-optee-rpi3/RPi3_OPTEE_3.1/optee_os/lib/libmpa/mpa_shift.c:212 (discriminator 3)
    9664:	8b214a64 	add	x4, x19, w1, uxtw #2
    9668:	11000421 	add	w1, w1, #0x1
    966c:	b9400884 	ldr	w4, [x4, #8]
    9670:	b8004404 	str	w4, [x0], #4
    9674:	17ffffe9 	b	9618 <mpa_shift_right+0xac>
/home/zliu/ubuntu-optee-rpi3/RPi3_OPTEE_3.1/optee_os/lib/libmpa/mpa_shift.c:216 (discriminator 3)
    9678:	8b214a61 	add	x1, x19, w1, uxtw #2
    967c:	b9400827 	ldr	w7, [x1, #8]
/home/zliu/ubuntu-optee-rpi3/RPi3_OPTEE_3.1/optee_os/lib/libmpa/mpa_shift.c:217 (discriminator 3)
    9680:	8b284a61 	add	x1, x19, w8, uxtw #2
/home/zliu/ubuntu-optee-rpi3/RPi3_OPTEE_3.1/optee_os/lib/libmpa/mpa_shift.c:216 (discriminator 3)
    9684:	b9000007 	str	w7, [x0]
/home/zliu/ubuntu-optee-rpi3/RPi3_OPTEE_3.1/optee_os/lib/libmpa/mpa_shift.c:217 (discriminator 3)
    9688:	b9400821 	ldr	w1, [x1, #8]
/home/zliu/ubuntu-optee-rpi3/RPi3_OPTEE_3.1/optee_os/lib/libmpa/mpa_shift.c:219 (discriminator 3)
    968c:	1ac424e7 	lsr	w7, w7, w4
/home/zliu/ubuntu-optee-rpi3/RPi3_OPTEE_3.1/optee_os/lib/libmpa/mpa_shift.c:217 (discriminator 3)
    9690:	0a0100a1 	and	w1, w5, w1
/home/zliu/ubuntu-optee-rpi3/RPi3_OPTEE_3.1/optee_os/lib/libmpa/mpa_shift.c:219 (discriminator 3)
    9694:	1ac92021 	lsl	w1, w1, w9
    9698:	4a070021 	eor	w1, w1, w7
/home/zliu/ubuntu-optee-rpi3/RPi3_OPTEE_3.1/optee_os/lib/libmpa/mpa_shift.c:218 (discriminator 3)
    969c:	b8004401 	str	w1, [x0], #4
    96a0:	2a0803e1 	mov	w1, w8
    96a4:	17ffffd0 	b	95e4 <mpa_shift_right+0x78>
/home/zliu/ubuntu-optee-rpi3/RPi3_OPTEE_3.1/optee_os/lib/libmpa/mpa_shift.c:236
    96a8:	11000442 	add	w2, w2, #0x1
    96ac:	17ffffea 	b	9654 <mpa_shift_right+0xe8>

00000000000096b0 <__mpa_full_adder>:
__mpa_full_adder():
/home/zliu/ubuntu-optee-rpi3/RPi3_OPTEE_3.1/optee_os/lib/libmpa/mpa_addsub.c:55
    96b0:	b9400064 	ldr	w4, [x3]
    96b4:	8b214081 	add	x1, x4, w1, uxtw
    96b8:	8b204020 	add	x0, x1, w0, uxtw
/home/zliu/ubuntu-optee-rpi3/RPi3_OPTEE_3.1/optee_os/lib/libmpa/mpa_addsub.c:56
    96bc:	b9000040 	str	w0, [x2]
/home/zliu/ubuntu-optee-rpi3/RPi3_OPTEE_3.1/optee_os/lib/libmpa/mpa_addsub.c:57
    96c0:	d360fc00 	lsr	x0, x0, #32
    96c4:	b9000060 	str	w0, [x3]
    96c8:	d65f03c0 	ret

00000000000096cc <__mpa_full_sub>:
__mpa_full_sub():
/home/zliu/ubuntu-optee-rpi3/RPi3_OPTEE_3.1/optee_os/lib/libmpa/mpa_addsub.c:78
    96cc:	2a0003e0 	mov	w0, w0
    96d0:	cb214001 	sub	x1, x0, w1, uxtw
    96d4:	b9400060 	ldr	w0, [x3]
    96d8:	cb000021 	sub	x1, x1, x0
/home/zliu/ubuntu-optee-rpi3/RPi3_OPTEE_3.1/optee_os/lib/libmpa/mpa_addsub.c:79
    96dc:	b9000041 	str	w1, [x2]
/home/zliu/ubuntu-optee-rpi3/RPi3_OPTEE_3.1/optee_os/lib/libmpa/mpa_addsub.c:80
    96e0:	d360fc21 	lsr	x1, x1, #32
    96e4:	4b0103e1 	neg	w1, w1
    96e8:	b9000061 	str	w1, [x3]
    96ec:	d65f03c0 	ret

00000000000096f0 <__mpa_full_adder_ackum>:
__mpa_full_adder_ackum():
/home/zliu/ubuntu-optee-rpi3/RPi3_OPTEE_3.1/optee_os/lib/libmpa/mpa_addsub.c:102
    96f0:	b9400043 	ldr	w3, [x2]
    96f4:	8b214061 	add	x1, x3, w1, uxtw
    96f8:	b9400003 	ldr	w3, [x0]
    96fc:	8b030021 	add	x1, x1, x3
/home/zliu/ubuntu-optee-rpi3/RPi3_OPTEE_3.1/optee_os/lib/libmpa/mpa_addsub.c:103
    9700:	b9000001 	str	w1, [x0]
/home/zliu/ubuntu-optee-rpi3/RPi3_OPTEE_3.1/optee_os/lib/libmpa/mpa_addsub.c:104
    9704:	d360fc21 	lsr	x1, x1, #32
    9708:	b9000041 	str	w1, [x2]
    970c:	d65f03c0 	ret

0000000000009710 <__mpa_abs_add>:
__mpa_abs_add():
/home/zliu/ubuntu-optee-rpi3/RPi3_OPTEE_3.1/optee_os/lib/libmpa/mpa_addsub.c:128
    9710:	a9bd7bfd 	stp	x29, x30, [sp, #-48]!
/home/zliu/ubuntu-optee-rpi3/RPi3_OPTEE_3.1/optee_os/lib/libmpa/mpa_addsub.c:138
    9714:	6b05007f 	cmp	w3, w5
/home/zliu/ubuntu-optee-rpi3/RPi3_OPTEE_3.1/optee_os/lib/libmpa/mpa_addsub.c:128
    9718:	910003fd 	mov	x29, sp
    971c:	a90153f3 	stp	x19, x20, [sp, #16]
    9720:	aa0003f4 	mov	x20, x0
    9724:	f90013f5 	str	x21, [sp, #32]
    9728:	aa0103f5 	mov	x21, x1
/home/zliu/ubuntu-optee-rpi3/RPi3_OPTEE_3.1/optee_os/lib/libmpa/mpa_addsub.c:138
    972c:	540000ec 	b.gt	9748 <__mpa_abs_add+0x38>
    9730:	2a0503e0 	mov	w0, w5
    9734:	2a0303e5 	mov	w5, w3
    9738:	2a0003e3 	mov	w3, w0
    973c:	aa0403e0 	mov	x0, x4
/home/zliu/ubuntu-optee-rpi3/RPi3_OPTEE_3.1/optee_os/lib/libmpa/mpa_addsub.c:145
    9740:	aa0203e4 	mov	x4, x2
/home/zliu/ubuntu-optee-rpi3/RPi3_OPTEE_3.1/optee_os/lib/libmpa/mpa_addsub.c:144
    9744:	aa0003e2 	mov	x2, x0
/home/zliu/ubuntu-optee-rpi3/RPi3_OPTEE_3.1/optee_os/lib/libmpa/mpa_addsub.c:153
    9748:	d2800001 	mov	x1, #0x0                   	// #0
/home/zliu/ubuntu-optee-rpi3/RPi3_OPTEE_3.1/optee_os/lib/libmpa/mpa_addsub.c:151
    974c:	52800008 	mov	w8, #0x0                   	// #0
/home/zliu/ubuntu-optee-rpi3/RPi3_OPTEE_3.1/optee_os/lib/libmpa/mpa_addsub.c:153
    9750:	6b0100bf 	cmp	w5, w1
    9754:	540001ac 	b.gt	9788 <__mpa_abs_add+0x78>
    9758:	710000bf 	cmp	w5, #0x0
    975c:	1a9fa0a5 	csel	w5, w5, wzr, ge  // ge = tcont
    9760:	937e7ca1 	sbfiz	x1, x5, #2, #32
    9764:	8b010284 	add	x4, x20, x1
    9768:	8b010041 	add	x1, x2, x1
/home/zliu/ubuntu-optee-rpi3/RPi3_OPTEE_3.1/optee_os/lib/libmpa/mpa_addsub.c:157
    976c:	6b05007f 	cmp	w3, w5
    9770:	340002c8 	cbz	w8, 97c8 <__mpa_abs_add+0xb8>
    9774:	91001080 	add	x0, x4, #0x4
/home/zliu/ubuntu-optee-rpi3/RPi3_OPTEE_3.1/optee_os/lib/libmpa/mpa_addsub.c:157 (discriminator 1)
    9778:	540001ac 	b.gt	97ac <__mpa_abs_add+0x9c>
/home/zliu/ubuntu-optee-rpi3/RPi3_OPTEE_3.1/optee_os/lib/libmpa/mpa_addsub.c:169
    977c:	52800021 	mov	w1, #0x1                   	// #1
    9780:	b9000081 	str	w1, [x4]
    9784:	14000019 	b	97e8 <__mpa_abs_add+0xd8>
__mpa_full_adder():
/home/zliu/ubuntu-optee-rpi3/RPi3_OPTEE_3.1/optee_os/lib/libmpa/mpa_addsub.c:55
    9788:	b8617886 	ldr	w6, [x4, x1, lsl #2]
    978c:	2a0803e0 	mov	w0, w8
    9790:	b8617847 	ldr	w7, [x2, x1, lsl #2]
    9794:	8b0700c6 	add	x6, x6, x7
    9798:	8b0000c0 	add	x0, x6, x0
/home/zliu/ubuntu-optee-rpi3/RPi3_OPTEE_3.1/optee_os/lib/libmpa/mpa_addsub.c:56
    979c:	b8217a80 	str	w0, [x20, x1, lsl #2]
/home/zliu/ubuntu-optee-rpi3/RPi3_OPTEE_3.1/optee_os/lib/libmpa/mpa_addsub.c:57
    97a0:	d360fc08 	lsr	x8, x0, #32
    97a4:	91000421 	add	x1, x1, #0x1
    97a8:	17ffffea 	b	9750 <__mpa_abs_add+0x40>
__mpa_abs_add():
/home/zliu/ubuntu-optee-rpi3/RPi3_OPTEE_3.1/optee_os/lib/libmpa/mpa_addsub.c:158
    97ac:	aa0003e4 	mov	x4, x0
__mpa_full_adder():
/home/zliu/ubuntu-optee-rpi3/RPi3_OPTEE_3.1/optee_os/lib/libmpa/mpa_addsub.c:55
    97b0:	b8404420 	ldr	w0, [x1], #4
__mpa_abs_add():
/home/zliu/ubuntu-optee-rpi3/RPi3_OPTEE_3.1/optee_os/lib/libmpa/mpa_addsub.c:159
    97b4:	110004a5 	add	w5, w5, #0x1
__mpa_full_adder():
/home/zliu/ubuntu-optee-rpi3/RPi3_OPTEE_3.1/optee_os/lib/libmpa/mpa_addsub.c:55
    97b8:	91000400 	add	x0, x0, #0x1
/home/zliu/ubuntu-optee-rpi3/RPi3_OPTEE_3.1/optee_os/lib/libmpa/mpa_addsub.c:57
    97bc:	d360fc08 	lsr	x8, x0, #32
/home/zliu/ubuntu-optee-rpi3/RPi3_OPTEE_3.1/optee_os/lib/libmpa/mpa_addsub.c:56
    97c0:	b81fc080 	stur	w0, [x4, #-4]
    97c4:	17ffffea 	b	976c <__mpa_abs_add+0x5c>
__mpa_abs_add():
/home/zliu/ubuntu-optee-rpi3/RPi3_OPTEE_3.1/optee_os/lib/libmpa/mpa_addsub.c:162
    97c8:	540000ed 	b.le	97e4 <__mpa_abs_add+0xd4>
/home/zliu/ubuntu-optee-rpi3/RPi3_OPTEE_3.1/optee_os/lib/libmpa/mpa_addsub.c:164
    97cc:	4b050073 	sub	w19, w3, w5
    97d0:	aa0403e0 	mov	x0, x4
    97d4:	531e7662 	lsl	w2, w19, #2
    97d8:	93407c42 	sxtw	x2, w2
    97dc:	97fff24c 	bl	610c <memcpy>
/home/zliu/ubuntu-optee-rpi3/RPi3_OPTEE_3.1/optee_os/lib/libmpa/mpa_addsub.c:165
    97e0:	8b33c804 	add	x4, x0, w19, sxtw #2
/home/zliu/ubuntu-optee-rpi3/RPi3_OPTEE_3.1/optee_os/lib/libmpa/mpa_addsub.c:151
    97e4:	aa0403e0 	mov	x0, x4
/home/zliu/ubuntu-optee-rpi3/RPi3_OPTEE_3.1/optee_os/lib/libmpa/mpa_addsub.c:170
    97e8:	cb140001 	sub	x1, x0, x20
    97ec:	9342fc20 	asr	x0, x1, #2
    97f0:	b90002a0 	str	w0, [x21]
/home/zliu/ubuntu-optee-rpi3/RPi3_OPTEE_3.1/optee_os/lib/libmpa/mpa_addsub.c:171
    97f4:	a94153f3 	ldp	x19, x20, [sp, #16]
    97f8:	f94013f5 	ldr	x21, [sp, #32]
    97fc:	a8c37bfd 	ldp	x29, x30, [sp], #48
    9800:	d65f03c0 	ret

0000000000009804 <__mpa_abs_add_ackum>:
__mpa_abs_add_ackum():
/home/zliu/ubuntu-optee-rpi3/RPi3_OPTEE_3.1/optee_os/lib/libmpa/mpa_addsub.c:180
    9804:	a9bb7bfd 	stp	x29, x30, [sp, #-80]!
    9808:	910003fd 	mov	x29, sp
    980c:	a90153f3 	stp	x19, x20, [sp, #16]
/home/zliu/ubuntu-optee-rpi3/RPi3_OPTEE_3.1/optee_os/lib/libmpa/mpa_addsub.c:191
    9810:	91002014 	add	x20, x0, #0x8
/home/zliu/ubuntu-optee-rpi3/RPi3_OPTEE_3.1/optee_os/lib/libmpa/mpa_addsub.c:180
    9814:	a9025bf5 	stp	x21, x22, [sp, #32]
    9818:	aa0003f3 	mov	x19, x0
    981c:	a90363f7 	stp	x23, x24, [sp, #48]
    9820:	aa0103f5 	mov	x21, x1
/home/zliu/ubuntu-optee-rpi3/RPi3_OPTEE_3.1/optee_os/lib/libmpa/mpa_addsub.c:188
    9824:	b9400400 	ldr	w0, [x0, #4]
/home/zliu/ubuntu-optee-rpi3/RPi3_OPTEE_3.1/optee_os/lib/libmpa/mpa_addsub.c:194
    9828:	91002038 	add	x24, x1, #0x8
/home/zliu/ubuntu-optee-rpi3/RPi3_OPTEE_3.1/optee_os/lib/libmpa/mpa_addsub.c:188
    982c:	b9400421 	ldr	w1, [x1, #4]
/home/zliu/ubuntu-optee-rpi3/RPi3_OPTEE_3.1/optee_os/lib/libmpa/mpa_addsub.c:197
    9830:	910143b7 	add	x23, x29, #0x50
/home/zliu/ubuntu-optee-rpi3/RPi3_OPTEE_3.1/optee_os/lib/libmpa/mpa_addsub.c:198
    9834:	d2800016 	mov	x22, #0x0                   	// #0
/home/zliu/ubuntu-optee-rpi3/RPi3_OPTEE_3.1/optee_os/lib/libmpa/mpa_addsub.c:191
    9838:	6b000022 	subs	w2, w1, w0
    983c:	52800001 	mov	w1, #0x0                   	// #0
    9840:	1a9f5042 	csel	w2, w2, wzr, pl  // pl = nfrst
    9844:	8b20ca80 	add	x0, x20, w0, sxtw #2
    9848:	11000442 	add	w2, w2, #0x1
    984c:	531e7442 	lsl	w2, w2, #2
    9850:	93407c42 	sxtw	x2, w2
    9854:	97fff249 	bl	6178 <memset>
/home/zliu/ubuntu-optee-rpi3/RPi3_OPTEE_3.1/optee_os/lib/libmpa/mpa_addsub.c:197
    9858:	b81fceff 	str	wzr, [x23, #-4]!
/home/zliu/ubuntu-optee-rpi3/RPi3_OPTEE_3.1/optee_os/lib/libmpa/mpa_addsub.c:198
    985c:	b94006a1 	ldr	w1, [x21, #4]
    9860:	8b160a80 	add	x0, x20, x22, lsl #2
    9864:	6b16003f 	cmp	w1, w22
    9868:	540001ec 	b.gt	98a4 <__mpa_abs_add_ackum+0xa0>
/home/zliu/ubuntu-optee-rpi3/RPi3_OPTEE_3.1/optee_os/lib/libmpa/mpa_addsub.c:209
    986c:	910133b6 	add	x22, x29, #0x4c
/home/zliu/ubuntu-optee-rpi3/RPi3_OPTEE_3.1/optee_os/lib/libmpa/mpa_addsub.c:208
    9870:	b9404fa1 	ldr	w1, [x29, #76]
    9874:	35000221 	cbnz	w1, 98b8 <__mpa_abs_add_ackum+0xb4>
/home/zliu/ubuntu-optee-rpi3/RPi3_OPTEE_3.1/optee_os/lib/libmpa/mpa_addsub.c:216
    9878:	cb140000 	sub	x0, x0, x20
/home/zliu/ubuntu-optee-rpi3/RPi3_OPTEE_3.1/optee_os/lib/libmpa/mpa_addsub.c:217
    987c:	b9400661 	ldr	w1, [x19, #4]
/home/zliu/ubuntu-optee-rpi3/RPi3_OPTEE_3.1/optee_os/lib/libmpa/mpa_addsub.c:216
    9880:	9342fc02 	asr	x2, x0, #2
/home/zliu/ubuntu-optee-rpi3/RPi3_OPTEE_3.1/optee_os/lib/libmpa/mpa_addsub.c:217
    9884:	6b01005f 	cmp	w2, w1
    9888:	5400004d 	b.le	9890 <__mpa_abs_add_ackum+0x8c>
/home/zliu/ubuntu-optee-rpi3/RPi3_OPTEE_3.1/optee_os/lib/libmpa/mpa_addsub.c:218
    988c:	b9000662 	str	w2, [x19, #4]
/home/zliu/ubuntu-optee-rpi3/RPi3_OPTEE_3.1/optee_os/lib/libmpa/mpa_addsub.c:219
    9890:	a94153f3 	ldp	x19, x20, [sp, #16]
    9894:	a9425bf5 	ldp	x21, x22, [sp, #32]
    9898:	a94363f7 	ldp	x23, x24, [sp, #48]
    989c:	a8c57bfd 	ldp	x29, x30, [sp], #80
    98a0:	d65f03c0 	ret
/home/zliu/ubuntu-optee-rpi3/RPi3_OPTEE_3.1/optee_os/lib/libmpa/mpa_addsub.c:199
    98a4:	b8767b01 	ldr	w1, [x24, x22, lsl #2]
    98a8:	aa1703e2 	mov	x2, x23
    98ac:	910006d6 	add	x22, x22, #0x1
    98b0:	97ffff90 	bl	96f0 <__mpa_full_adder_ackum>
    98b4:	17ffffea 	b	985c <__mpa_abs_add_ackum+0x58>
/home/zliu/ubuntu-optee-rpi3/RPi3_OPTEE_3.1/optee_os/lib/libmpa/mpa_addsub.c:209
    98b8:	91001015 	add	x21, x0, #0x4
    98bc:	aa1603e2 	mov	x2, x22
    98c0:	52800001 	mov	w1, #0x0                   	// #0
    98c4:	97ffff8b 	bl	96f0 <__mpa_full_adder_ackum>
    98c8:	aa1503e0 	mov	x0, x21
    98cc:	17ffffe9 	b	9870 <__mpa_abs_add_ackum+0x6c>

00000000000098d0 <__mpa_abs_sub>:
__mpa_abs_sub():
/home/zliu/ubuntu-optee-rpi3/RPi3_OPTEE_3.1/optee_os/lib/libmpa/mpa_addsub.c:234
    98d0:	a9ba7bfd 	stp	x29, x30, [sp, #-96]!
    98d4:	910003fd 	mov	x29, sp
    98d8:	a9046bf9 	stp	x25, x26, [sp, #64]
/home/zliu/ubuntu-optee-rpi3/RPi3_OPTEE_3.1/optee_os/lib/libmpa/mpa_addsub.c:238
    98dc:	910183b9 	add	x25, x29, #0x60
/home/zliu/ubuntu-optee-rpi3/RPi3_OPTEE_3.1/optee_os/lib/libmpa/mpa_addsub.c:234
    98e0:	a90153f3 	stp	x19, x20, [sp, #16]
    98e4:	aa0403fa 	mov	x26, x4
    98e8:	a9025bf5 	stp	x21, x22, [sp, #32]
    98ec:	2a0303f4 	mov	w20, w3
    98f0:	a90363f7 	stp	x23, x24, [sp, #48]
    98f4:	aa0103f5 	mov	x21, x1
    98f8:	aa0003f7 	mov	x23, x0
    98fc:	aa0203f8 	mov	x24, x2
    9900:	2a0503f6 	mov	w22, w5
/home/zliu/ubuntu-optee-rpi3/RPi3_OPTEE_3.1/optee_os/lib/libmpa/mpa_addsub.c:238
    9904:	b81fcf3f 	str	wzr, [x25, #-4]!
/home/zliu/ubuntu-optee-rpi3/RPi3_OPTEE_3.1/optee_os/lib/libmpa/mpa_addsub.c:240
    9908:	d2800013 	mov	x19, #0x0                   	// #0
    990c:	8b130ae2 	add	x2, x23, x19, lsl #2
    9910:	6b1302df 	cmp	w22, w19
    9914:	5400028c 	b.gt	9964 <__mpa_abs_sub+0x94>
    9918:	710002df 	cmp	w22, #0x0
    991c:	1a9fa2d3 	csel	w19, w22, wzr, ge  // ge = tcont
    9920:	937e7e60 	sbfiz	x0, x19, #2, #32
    9924:	8b000316 	add	x22, x24, x0
    9928:	8b0002e4 	add	x4, x23, x0
/home/zliu/ubuntu-optee-rpi3/RPi3_OPTEE_3.1/optee_os/lib/libmpa/mpa_addsub.c:249
    992c:	910173b8 	add	x24, x29, #0x5c
/home/zliu/ubuntu-optee-rpi3/RPi3_OPTEE_3.1/optee_os/lib/libmpa/mpa_addsub.c:248
    9930:	b9405fa0 	ldr	w0, [x29, #92]
    9934:	6b14027f 	cmp	w19, w20
    9938:	34000340 	cbz	w0, 99a0 <__mpa_abs_sub+0xd0>
/home/zliu/ubuntu-optee-rpi3/RPi3_OPTEE_3.1/optee_os/lib/libmpa/mpa_addsub.c:248 (discriminator 1)
    993c:	5400020b 	b.lt	997c <__mpa_abs_sub+0xac>  // b.tstop
/home/zliu/ubuntu-optee-rpi3/RPi3_OPTEE_3.1/optee_os/lib/libmpa/mpa_addsub.c:263
    9940:	7100029f 	cmp	w20, #0x0
    9944:	5400040c 	b.gt	99c4 <__mpa_abs_sub+0xf4>
/home/zliu/ubuntu-optee-rpi3/RPi3_OPTEE_3.1/optee_os/lib/libmpa/mpa_addsub.c:265
    9948:	b90002b4 	str	w20, [x21]
/home/zliu/ubuntu-optee-rpi3/RPi3_OPTEE_3.1/optee_os/lib/libmpa/mpa_addsub.c:266
    994c:	a94363f7 	ldp	x23, x24, [sp, #48]
    9950:	a94153f3 	ldp	x19, x20, [sp, #16]
    9954:	a9425bf5 	ldp	x21, x22, [sp, #32]
    9958:	a9446bf9 	ldp	x25, x26, [sp, #64]
    995c:	a8c67bfd 	ldp	x29, x30, [sp], #96
    9960:	d65f03c0 	ret
/home/zliu/ubuntu-optee-rpi3/RPi3_OPTEE_3.1/optee_os/lib/libmpa/mpa_addsub.c:241
    9964:	b8737b41 	ldr	w1, [x26, x19, lsl #2]
    9968:	aa1903e3 	mov	x3, x25
    996c:	b8737b00 	ldr	w0, [x24, x19, lsl #2]
    9970:	91000673 	add	x19, x19, #0x1
    9974:	97ffff56 	bl	96cc <__mpa_full_sub>
    9978:	17ffffe5 	b	990c <__mpa_abs_sub+0x3c>
/home/zliu/ubuntu-optee-rpi3/RPi3_OPTEE_3.1/optee_os/lib/libmpa/mpa_addsub.c:249
    997c:	b84046c0 	ldr	w0, [x22], #4
    9980:	91001097 	add	x23, x4, #0x4
    9984:	aa0403e2 	mov	x2, x4
    9988:	aa1803e3 	mov	x3, x24
    998c:	52800001 	mov	w1, #0x0                   	// #0
/home/zliu/ubuntu-optee-rpi3/RPi3_OPTEE_3.1/optee_os/lib/libmpa/mpa_addsub.c:250
    9990:	11000673 	add	w19, w19, #0x1
/home/zliu/ubuntu-optee-rpi3/RPi3_OPTEE_3.1/optee_os/lib/libmpa/mpa_addsub.c:249
    9994:	97ffff4e 	bl	96cc <__mpa_full_sub>
    9998:	aa1703e4 	mov	x4, x23
    999c:	17ffffe5 	b	9930 <__mpa_abs_sub+0x60>
/home/zliu/ubuntu-optee-rpi3/RPi3_OPTEE_3.1/optee_os/lib/libmpa/mpa_addsub.c:253
    99a0:	54fffd0a 	b.ge	9940 <__mpa_abs_sub+0x70>  // b.tcont
/home/zliu/ubuntu-optee-rpi3/RPi3_OPTEE_3.1/optee_os/lib/libmpa/mpa_addsub.c:258
    99a4:	4b130293 	sub	w19, w20, w19
    99a8:	aa0403e0 	mov	x0, x4
    99ac:	531e7662 	lsl	w2, w19, #2
    99b0:	aa1603e1 	mov	x1, x22
    99b4:	93407c42 	sxtw	x2, w2
    99b8:	97fff1d5 	bl	610c <memcpy>
/home/zliu/ubuntu-optee-rpi3/RPi3_OPTEE_3.1/optee_os/lib/libmpa/mpa_addsub.c:259
    99bc:	8b33c804 	add	x4, x0, w19, sxtw #2
/home/zliu/ubuntu-optee-rpi3/RPi3_OPTEE_3.1/optee_os/lib/libmpa/mpa_addsub.c:263
    99c0:	17ffffe0 	b	9940 <__mpa_abs_sub+0x70>
/home/zliu/ubuntu-optee-rpi3/RPi3_OPTEE_3.1/optee_os/lib/libmpa/mpa_addsub.c:263 (discriminator 1)
    99c4:	b85fcc80 	ldr	w0, [x4, #-4]!
    99c8:	35fffc00 	cbnz	w0, 9948 <__mpa_abs_sub+0x78>
/home/zliu/ubuntu-optee-rpi3/RPi3_OPTEE_3.1/optee_os/lib/libmpa/mpa_addsub.c:264
    99cc:	51000694 	sub	w20, w20, #0x1
    99d0:	17ffffdc 	b	9940 <__mpa_abs_sub+0x70>

00000000000099d4 <mpa_add>:
mpa_add():
/home/zliu/ubuntu-optee-rpi3/RPi3_OPTEE_3.1/optee_os/lib/libmpa/mpa_addsub.c:282
    99d4:	a9b97bfd 	stp	x29, x30, [sp, #-112]!
    99d8:	910003fd 	mov	x29, sp
    99dc:	a90363f7 	stp	x23, x24, [sp, #48]
    99e0:	aa0203f8 	mov	x24, x2
/home/zliu/ubuntu-optee-rpi3/RPi3_OPTEE_3.1/optee_os/lib/libmpa/mpa_addsub.c:290
    99e4:	b9400422 	ldr	w2, [x1, #4]
/home/zliu/ubuntu-optee-rpi3/RPi3_OPTEE_3.1/optee_os/lib/libmpa/mpa_addsub.c:282
    99e8:	aa0103f7 	mov	x23, x1
    99ec:	a9025bf5 	stp	x21, x22, [sp, #32]
/home/zliu/ubuntu-optee-rpi3/RPi3_OPTEE_3.1/optee_os/lib/libmpa/mpa_addsub.c:291
    99f0:	b9400701 	ldr	w1, [x24, #4]
/home/zliu/ubuntu-optee-rpi3/RPi3_OPTEE_3.1/optee_os/lib/libmpa/mpa_addsub.c:290
    99f4:	7100005f 	cmp	w2, #0x0
    99f8:	5a82a456 	cneg	w22, w2, lt  // lt = tstop
/home/zliu/ubuntu-optee-rpi3/RPi3_OPTEE_3.1/optee_os/lib/libmpa/mpa_addsub.c:282
    99fc:	a90153f3 	stp	x19, x20, [sp, #16]
/home/zliu/ubuntu-optee-rpi3/RPi3_OPTEE_3.1/optee_os/lib/libmpa/mpa_addsub.c:291
    9a00:	7100003f 	cmp	w1, #0x0
/home/zliu/ubuntu-optee-rpi3/RPi3_OPTEE_3.1/optee_os/lib/libmpa/mpa_addsub.c:282
    9a04:	a9046bf9 	stp	x25, x26, [sp, #64]
/home/zliu/ubuntu-optee-rpi3/RPi3_OPTEE_3.1/optee_os/lib/libmpa/mpa_addsub.c:291
    9a08:	5a81a434 	cneg	w20, w1, lt  // lt = tstop
/home/zliu/ubuntu-optee-rpi3/RPi3_OPTEE_3.1/optee_os/lib/libmpa/mpa_addsub.c:282
    9a0c:	aa0003f9 	mov	x25, x0
/home/zliu/ubuntu-optee-rpi3/RPi3_OPTEE_3.1/optee_os/lib/libmpa/mpa_addsub.c:293
    9a10:	12800000 	mov	w0, #0xffffffff            	// #-1
    9a14:	6b00005f 	cmp	w2, w0
/home/zliu/ubuntu-optee-rpi3/RPi3_OPTEE_3.1/optee_os/lib/libmpa/mpa_addsub.c:282
    9a18:	a90573fb 	stp	x27, x28, [sp, #80]
/home/zliu/ubuntu-optee-rpi3/RPi3_OPTEE_3.1/optee_os/lib/libmpa/mpa_addsub.c:293
    9a1c:	5a80d41c 	cneg	w28, w0, gt
/home/zliu/ubuntu-optee-rpi3/RPi3_OPTEE_3.1/optee_os/lib/libmpa/mpa_addsub.c:294
    9a20:	6b00003f 	cmp	w1, w0
/home/zliu/ubuntu-optee-rpi3/RPi3_OPTEE_3.1/optee_os/lib/libmpa/mpa_addsub.c:282
    9a24:	aa0303fa 	mov	x26, x3
/home/zliu/ubuntu-optee-rpi3/RPi3_OPTEE_3.1/optee_os/lib/libmpa/mpa_addsub.c:294
    9a28:	5a80d413 	cneg	w19, w0, gt
/home/zliu/ubuntu-optee-rpi3/RPi3_OPTEE_3.1/optee_os/lib/libmpa/mpa_addsub.c:297
    9a2c:	eb1902ff 	cmp	x23, x25
    9a30:	1a9f17fb 	cset	w27, eq  // eq = none
    9a34:	eb19031f 	cmp	x24, x25
    9a38:	1a9f17e0 	cset	w0, eq  // eq = none
    9a3c:	2a00037b 	orr	w27, w27, w0
/home/zliu/ubuntu-optee-rpi3/RPi3_OPTEE_3.1/optee_os/lib/libmpa/mpa_addsub.c:298
    9a40:	3400049b 	cbz	w27, 9ad0 <mpa_add+0xfc>
/home/zliu/ubuntu-optee-rpi3/RPi3_OPTEE_3.1/optee_os/lib/libmpa/mpa_addsub.c:299
    9a44:	aa0303e1 	mov	x1, x3
    9a48:	9101a3a0 	add	x0, x29, #0x68
    9a4c:	97fffcd0 	bl	8d8c <mpa_alloc_static_temp_var>
/home/zliu/ubuntu-optee-rpi3/RPi3_OPTEE_3.1/optee_os/lib/libmpa/mpa_addsub.c:307
    9a50:	6b13039f 	cmp	w28, w19
    9a54:	910022f5 	add	x21, x23, #0x8
    9a58:	91002313 	add	x19, x24, #0x8
    9a5c:	540003e1 	b.ne	9ad8 <mpa_add+0x104>  // b.any
/home/zliu/ubuntu-optee-rpi3/RPi3_OPTEE_3.1/optee_os/lib/libmpa/mpa_addsub.c:309
    9a60:	f94037a0 	ldr	x0, [x29, #104]
    9a64:	2a1403e5 	mov	w5, w20
    9a68:	aa1303e4 	mov	x4, x19
    9a6c:	2a1603e3 	mov	w3, w22
    9a70:	91001001 	add	x1, x0, #0x4
    9a74:	aa1503e2 	mov	x2, x21
    9a78:	91002000 	add	x0, x0, #0x8
    9a7c:	97ffff25 	bl	9710 <__mpa_abs_add>
/home/zliu/ubuntu-optee-rpi3/RPi3_OPTEE_3.1/optee_os/lib/libmpa/mpa_addsub.c:312
    9a80:	3100079f 	cmn	w28, #0x1
    9a84:	540000a1 	b.ne	9a98 <mpa_add+0xc4>  // b.any
/home/zliu/ubuntu-optee-rpi3/RPi3_OPTEE_3.1/optee_os/lib/libmpa/mpa_addsub.c:328
    9a88:	f94037a1 	ldr	x1, [x29, #104]
    9a8c:	b9400420 	ldr	w0, [x1, #4]
    9a90:	4b0003e0 	neg	w0, w0
    9a94:	b9000420 	str	w0, [x1, #4]
/home/zliu/ubuntu-optee-rpi3/RPi3_OPTEE_3.1/optee_os/lib/libmpa/mpa_addsub.c:347
    9a98:	f94037a1 	ldr	x1, [x29, #104]
    9a9c:	aa1903e0 	mov	x0, x25
    9aa0:	97fff5a9 	bl	7144 <mpa_copy>
/home/zliu/ubuntu-optee-rpi3/RPi3_OPTEE_3.1/optee_os/lib/libmpa/mpa_addsub.c:348
    9aa4:	3400009b 	cbz	w27, 9ab4 <mpa_add+0xe0>
/home/zliu/ubuntu-optee-rpi3/RPi3_OPTEE_3.1/optee_os/lib/libmpa/mpa_addsub.c:349
    9aa8:	aa1a03e1 	mov	x1, x26
    9aac:	9101a3a0 	add	x0, x29, #0x68
    9ab0:	97fffcbb 	bl	8d9c <mpa_free_static_temp_var>
/home/zliu/ubuntu-optee-rpi3/RPi3_OPTEE_3.1/optee_os/lib/libmpa/mpa_addsub.c:350
    9ab4:	a94153f3 	ldp	x19, x20, [sp, #16]
    9ab8:	a9425bf5 	ldp	x21, x22, [sp, #32]
    9abc:	a94363f7 	ldp	x23, x24, [sp, #48]
    9ac0:	a9446bf9 	ldp	x25, x26, [sp, #64]
    9ac4:	a94573fb 	ldp	x27, x28, [sp, #80]
    9ac8:	a8c77bfd 	ldp	x29, x30, [sp], #112
    9acc:	d65f03c0 	ret
/home/zliu/ubuntu-optee-rpi3/RPi3_OPTEE_3.1/optee_os/lib/libmpa/mpa_addsub.c:301
    9ad0:	f90037b9 	str	x25, [x29, #104]
    9ad4:	17ffffdf 	b	9a50 <mpa_add+0x7c>
/home/zliu/ubuntu-optee-rpi3/RPi3_OPTEE_3.1/optee_os/lib/libmpa/mpa_addsub.c:317
    9ad8:	aa1803e1 	mov	x1, x24
    9adc:	aa1703e0 	mov	x0, x23
/home/zliu/ubuntu-optee-rpi3/RPi3_OPTEE_3.1/optee_os/lib/libmpa/mpa_addsub.c:316
    9ae0:	7100079f 	cmp	w28, #0x1
    9ae4:	54000281 	b.ne	9b34 <mpa_add+0x160>  // b.any
/home/zliu/ubuntu-optee-rpi3/RPi3_OPTEE_3.1/optee_os/lib/libmpa/mpa_addsub.c:317
    9ae8:	9400015b 	bl	a054 <__mpa_abs_greater_than>
    9aec:	f94037a6 	ldr	x6, [x29, #104]
    9af0:	34000120 	cbz	w0, 9b14 <mpa_add+0x140>
/home/zliu/ubuntu-optee-rpi3/RPi3_OPTEE_3.1/optee_os/lib/libmpa/mpa_addsub.c:321
    9af4:	2a1403e5 	mov	w5, w20
    9af8:	aa1303e4 	mov	x4, x19
    9afc:	2a1603e3 	mov	w3, w22
    9b00:	aa1503e2 	mov	x2, x21
/home/zliu/ubuntu-optee-rpi3/RPi3_OPTEE_3.1/optee_os/lib/libmpa/mpa_addsub.c:341
    9b04:	910010c1 	add	x1, x6, #0x4
    9b08:	910020c0 	add	x0, x6, #0x8
    9b0c:	97ffff71 	bl	98d0 <__mpa_abs_sub>
    9b10:	17ffffe2 	b	9a98 <mpa_add+0xc4>
/home/zliu/ubuntu-optee-rpi3/RPi3_OPTEE_3.1/optee_os/lib/libmpa/mpa_addsub.c:326
    9b14:	2a1603e5 	mov	w5, w22
    9b18:	aa1503e4 	mov	x4, x21
    9b1c:	2a1403e3 	mov	w3, w20
    9b20:	aa1303e2 	mov	x2, x19
    9b24:	910010c1 	add	x1, x6, #0x4
    9b28:	910020c0 	add	x0, x6, #0x8
    9b2c:	97ffff69 	bl	98d0 <__mpa_abs_sub>
    9b30:	17ffffd6 	b	9a88 <mpa_add+0xb4>
/home/zliu/ubuntu-optee-rpi3/RPi3_OPTEE_3.1/optee_os/lib/libmpa/mpa_addsub.c:332
    9b34:	94000148 	bl	a054 <__mpa_abs_greater_than>
    9b38:	f94037a6 	ldr	x6, [x29, #104]
    9b3c:	340000c0 	cbz	w0, 9b54 <mpa_add+0x180>
/home/zliu/ubuntu-optee-rpi3/RPi3_OPTEE_3.1/optee_os/lib/libmpa/mpa_addsub.c:336
    9b40:	2a1403e5 	mov	w5, w20
    9b44:	aa1303e4 	mov	x4, x19
    9b48:	2a1603e3 	mov	w3, w22
    9b4c:	aa1503e2 	mov	x2, x21
    9b50:	17fffff5 	b	9b24 <mpa_add+0x150>
/home/zliu/ubuntu-optee-rpi3/RPi3_OPTEE_3.1/optee_os/lib/libmpa/mpa_addsub.c:341
    9b54:	2a1603e5 	mov	w5, w22
    9b58:	aa1503e4 	mov	x4, x21
    9b5c:	2a1403e3 	mov	w3, w20
    9b60:	aa1303e2 	mov	x2, x19
    9b64:	17ffffe8 	b	9b04 <mpa_add+0x130>

0000000000009b68 <mpa_sub>:
mpa_sub():
/home/zliu/ubuntu-optee-rpi3/RPi3_OPTEE_3.1/optee_os/lib/libmpa/mpa_addsub.c:360
    9b68:	a9b97bfd 	stp	x29, x30, [sp, #-112]!
    9b6c:	910003fd 	mov	x29, sp
    9b70:	a90363f7 	stp	x23, x24, [sp, #48]
    9b74:	aa0203f8 	mov	x24, x2
/home/zliu/ubuntu-optee-rpi3/RPi3_OPTEE_3.1/optee_os/lib/libmpa/mpa_addsub.c:368
    9b78:	b9400422 	ldr	w2, [x1, #4]
/home/zliu/ubuntu-optee-rpi3/RPi3_OPTEE_3.1/optee_os/lib/libmpa/mpa_addsub.c:360
    9b7c:	aa0103f7 	mov	x23, x1
    9b80:	a90153f3 	stp	x19, x20, [sp, #16]
/home/zliu/ubuntu-optee-rpi3/RPi3_OPTEE_3.1/optee_os/lib/libmpa/mpa_addsub.c:369
    9b84:	b9400701 	ldr	w1, [x24, #4]
/home/zliu/ubuntu-optee-rpi3/RPi3_OPTEE_3.1/optee_os/lib/libmpa/mpa_addsub.c:368
    9b88:	7100005f 	cmp	w2, #0x0
    9b8c:	5a82a454 	cneg	w20, w2, lt  // lt = tstop
/home/zliu/ubuntu-optee-rpi3/RPi3_OPTEE_3.1/optee_os/lib/libmpa/mpa_addsub.c:360
    9b90:	a9046bf9 	stp	x25, x26, [sp, #64]
/home/zliu/ubuntu-optee-rpi3/RPi3_OPTEE_3.1/optee_os/lib/libmpa/mpa_addsub.c:369
    9b94:	7100003f 	cmp	w1, #0x0
/home/zliu/ubuntu-optee-rpi3/RPi3_OPTEE_3.1/optee_os/lib/libmpa/mpa_addsub.c:360
    9b98:	aa0003f9 	mov	x25, x0
    9b9c:	a9025bf5 	stp	x21, x22, [sp, #32]
/home/zliu/ubuntu-optee-rpi3/RPi3_OPTEE_3.1/optee_os/lib/libmpa/mpa_addsub.c:371
    9ba0:	12800000 	mov	w0, #0xffffffff            	// #-1
/home/zliu/ubuntu-optee-rpi3/RPi3_OPTEE_3.1/optee_os/lib/libmpa/mpa_addsub.c:369
    9ba4:	5a81a436 	cneg	w22, w1, lt  // lt = tstop
/home/zliu/ubuntu-optee-rpi3/RPi3_OPTEE_3.1/optee_os/lib/libmpa/mpa_addsub.c:371
    9ba8:	6b00005f 	cmp	w2, w0
/home/zliu/ubuntu-optee-rpi3/RPi3_OPTEE_3.1/optee_os/lib/libmpa/mpa_addsub.c:360
    9bac:	a90573fb 	stp	x27, x28, [sp, #80]
/home/zliu/ubuntu-optee-rpi3/RPi3_OPTEE_3.1/optee_os/lib/libmpa/mpa_addsub.c:371
    9bb0:	5a80d41c 	cneg	w28, w0, gt
/home/zliu/ubuntu-optee-rpi3/RPi3_OPTEE_3.1/optee_os/lib/libmpa/mpa_addsub.c:372
    9bb4:	6b00003f 	cmp	w1, w0
/home/zliu/ubuntu-optee-rpi3/RPi3_OPTEE_3.1/optee_os/lib/libmpa/mpa_addsub.c:360
    9bb8:	aa0303fa 	mov	x26, x3
/home/zliu/ubuntu-optee-rpi3/RPi3_OPTEE_3.1/optee_os/lib/libmpa/mpa_addsub.c:372
    9bbc:	5a80d413 	cneg	w19, w0, gt
/home/zliu/ubuntu-optee-rpi3/RPi3_OPTEE_3.1/optee_os/lib/libmpa/mpa_addsub.c:375
    9bc0:	eb1902ff 	cmp	x23, x25
    9bc4:	1a9f17fb 	cset	w27, eq  // eq = none
    9bc8:	eb19031f 	cmp	x24, x25
    9bcc:	1a9f17e0 	cset	w0, eq  // eq = none
    9bd0:	2a00037b 	orr	w27, w27, w0
/home/zliu/ubuntu-optee-rpi3/RPi3_OPTEE_3.1/optee_os/lib/libmpa/mpa_addsub.c:376
    9bd4:	3400049b 	cbz	w27, 9c64 <mpa_sub+0xfc>
/home/zliu/ubuntu-optee-rpi3/RPi3_OPTEE_3.1/optee_os/lib/libmpa/mpa_addsub.c:377
    9bd8:	aa0303e1 	mov	x1, x3
    9bdc:	9101a3a0 	add	x0, x29, #0x68
    9be0:	97fffc6b 	bl	8d8c <mpa_alloc_static_temp_var>
/home/zliu/ubuntu-optee-rpi3/RPi3_OPTEE_3.1/optee_os/lib/libmpa/mpa_addsub.c:385
    9be4:	6b13039f 	cmp	w28, w19
    9be8:	91002315 	add	x21, x24, #0x8
    9bec:	910022f3 	add	x19, x23, #0x8
    9bf0:	54000701 	b.ne	9cd0 <mpa_sub+0x168>  // b.any
/home/zliu/ubuntu-optee-rpi3/RPi3_OPTEE_3.1/optee_os/lib/libmpa/mpa_addsub.c:387
    9bf4:	aa1803e1 	mov	x1, x24
    9bf8:	aa1703e0 	mov	x0, x23
/home/zliu/ubuntu-optee-rpi3/RPi3_OPTEE_3.1/optee_os/lib/libmpa/mpa_addsub.c:386
    9bfc:	7100079f 	cmp	w28, #0x1
    9c00:	540004e1 	b.ne	9c9c <mpa_sub+0x134>  // b.any
/home/zliu/ubuntu-optee-rpi3/RPi3_OPTEE_3.1/optee_os/lib/libmpa/mpa_addsub.c:387
    9c04:	94000114 	bl	a054 <__mpa_abs_greater_than>
    9c08:	f94037a6 	ldr	x6, [x29, #104]
    9c0c:	34000300 	cbz	w0, 9c6c <mpa_sub+0x104>
/home/zliu/ubuntu-optee-rpi3/RPi3_OPTEE_3.1/optee_os/lib/libmpa/mpa_addsub.c:390
    9c10:	2a1603e5 	mov	w5, w22
    9c14:	aa1503e4 	mov	x4, x21
    9c18:	2a1403e3 	mov	w3, w20
    9c1c:	aa1303e2 	mov	x2, x19
/home/zliu/ubuntu-optee-rpi3/RPi3_OPTEE_3.1/optee_os/lib/libmpa/mpa_addsub.c:410
    9c20:	910010c1 	add	x1, x6, #0x4
    9c24:	910020c0 	add	x0, x6, #0x8
    9c28:	97ffff2a 	bl	98d0 <__mpa_abs_sub>
/home/zliu/ubuntu-optee-rpi3/RPi3_OPTEE_3.1/optee_os/lib/libmpa/mpa_addsub.c:427
    9c2c:	f94037a1 	ldr	x1, [x29, #104]
    9c30:	aa1903e0 	mov	x0, x25
    9c34:	97fff544 	bl	7144 <mpa_copy>
/home/zliu/ubuntu-optee-rpi3/RPi3_OPTEE_3.1/optee_os/lib/libmpa/mpa_addsub.c:428
    9c38:	3400009b 	cbz	w27, 9c48 <mpa_sub+0xe0>
/home/zliu/ubuntu-optee-rpi3/RPi3_OPTEE_3.1/optee_os/lib/libmpa/mpa_addsub.c:429
    9c3c:	aa1a03e1 	mov	x1, x26
    9c40:	9101a3a0 	add	x0, x29, #0x68
    9c44:	97fffc56 	bl	8d9c <mpa_free_static_temp_var>
/home/zliu/ubuntu-optee-rpi3/RPi3_OPTEE_3.1/optee_os/lib/libmpa/mpa_addsub.c:430
    9c48:	a94153f3 	ldp	x19, x20, [sp, #16]
    9c4c:	a9425bf5 	ldp	x21, x22, [sp, #32]
    9c50:	a94363f7 	ldp	x23, x24, [sp, #48]
    9c54:	a9446bf9 	ldp	x25, x26, [sp, #64]
    9c58:	a94573fb 	ldp	x27, x28, [sp, #80]
    9c5c:	a8c77bfd 	ldp	x29, x30, [sp], #112
    9c60:	d65f03c0 	ret
/home/zliu/ubuntu-optee-rpi3/RPi3_OPTEE_3.1/optee_os/lib/libmpa/mpa_addsub.c:379
    9c64:	f90037b9 	str	x25, [x29, #104]
    9c68:	17ffffdf 	b	9be4 <mpa_sub+0x7c>
/home/zliu/ubuntu-optee-rpi3/RPi3_OPTEE_3.1/optee_os/lib/libmpa/mpa_addsub.c:394
    9c6c:	2a1403e5 	mov	w5, w20
    9c70:	aa1303e4 	mov	x4, x19
    9c74:	2a1603e3 	mov	w3, w22
    9c78:	aa1503e2 	mov	x2, x21
/home/zliu/ubuntu-optee-rpi3/RPi3_OPTEE_3.1/optee_os/lib/libmpa/mpa_addsub.c:405
    9c7c:	910010c1 	add	x1, x6, #0x4
    9c80:	910020c0 	add	x0, x6, #0x8
    9c84:	97ffff13 	bl	98d0 <__mpa_abs_sub>
/home/zliu/ubuntu-optee-rpi3/RPi3_OPTEE_3.1/optee_os/lib/libmpa/mpa_addsub.c:423
    9c88:	f94037a1 	ldr	x1, [x29, #104]
    9c8c:	b9400420 	ldr	w0, [x1, #4]
    9c90:	4b0003e0 	neg	w0, w0
    9c94:	b9000420 	str	w0, [x1, #4]
    9c98:	17ffffe5 	b	9c2c <mpa_sub+0xc4>
/home/zliu/ubuntu-optee-rpi3/RPi3_OPTEE_3.1/optee_os/lib/libmpa/mpa_addsub.c:401
    9c9c:	940000ee 	bl	a054 <__mpa_abs_greater_than>
    9ca0:	f94037a6 	ldr	x6, [x29, #104]
    9ca4:	340000c0 	cbz	w0, 9cbc <mpa_sub+0x154>
/home/zliu/ubuntu-optee-rpi3/RPi3_OPTEE_3.1/optee_os/lib/libmpa/mpa_addsub.c:405
    9ca8:	2a1603e5 	mov	w5, w22
    9cac:	aa1503e4 	mov	x4, x21
    9cb0:	2a1403e3 	mov	w3, w20
    9cb4:	aa1303e2 	mov	x2, x19
    9cb8:	17fffff1 	b	9c7c <mpa_sub+0x114>
/home/zliu/ubuntu-optee-rpi3/RPi3_OPTEE_3.1/optee_os/lib/libmpa/mpa_addsub.c:410
    9cbc:	2a1403e5 	mov	w5, w20
    9cc0:	aa1303e4 	mov	x4, x19
    9cc4:	2a1603e3 	mov	w3, w22
    9cc8:	aa1503e2 	mov	x2, x21
    9ccc:	17ffffd5 	b	9c20 <mpa_sub+0xb8>
    9cd0:	f94037a0 	ldr	x0, [x29, #104]
/home/zliu/ubuntu-optee-rpi3/RPi3_OPTEE_3.1/optee_os/lib/libmpa/mpa_addsub.c:417
    9cd4:	2a1603e5 	mov	w5, w22
    9cd8:	aa1503e4 	mov	x4, x21
    9cdc:	2a1403e3 	mov	w3, w20
    9ce0:	91001001 	add	x1, x0, #0x4
    9ce4:	aa1303e2 	mov	x2, x19
/home/zliu/ubuntu-optee-rpi3/RPi3_OPTEE_3.1/optee_os/lib/libmpa/mpa_addsub.c:415
    9ce8:	7100079f 	cmp	w28, #0x1
/home/zliu/ubuntu-optee-rpi3/RPi3_OPTEE_3.1/optee_os/lib/libmpa/mpa_addsub.c:417
    9cec:	91002000 	add	x0, x0, #0x8
/home/zliu/ubuntu-optee-rpi3/RPi3_OPTEE_3.1/optee_os/lib/libmpa/mpa_addsub.c:415
    9cf0:	54000061 	b.ne	9cfc <mpa_sub+0x194>  // b.any
/home/zliu/ubuntu-optee-rpi3/RPi3_OPTEE_3.1/optee_os/lib/libmpa/mpa_addsub.c:417
    9cf4:	97fffe87 	bl	9710 <__mpa_abs_add>
    9cf8:	17ffffcd 	b	9c2c <mpa_sub+0xc4>
/home/zliu/ubuntu-optee-rpi3/RPi3_OPTEE_3.1/optee_os/lib/libmpa/mpa_addsub.c:421
    9cfc:	97fffe85 	bl	9710 <__mpa_abs_add>
    9d00:	17ffffe2 	b	9c88 <mpa_sub+0x120>

0000000000009d04 <mpa_neg>:
mpa_neg():
/home/zliu/ubuntu-optee-rpi3/RPi3_OPTEE_3.1/optee_os/lib/libmpa/mpa_addsub.c:439
    9d04:	a9be7bfd 	stp	x29, x30, [sp, #-32]!
    9d08:	910003fd 	mov	x29, sp
    9d0c:	f9000bf3 	str	x19, [sp, #16]
    9d10:	aa0003f3 	mov	x19, x0
/home/zliu/ubuntu-optee-rpi3/RPi3_OPTEE_3.1/optee_os/lib/libmpa/mpa_addsub.c:440
    9d14:	97fff50c 	bl	7144 <mpa_copy>
/home/zliu/ubuntu-optee-rpi3/RPi3_OPTEE_3.1/optee_os/lib/libmpa/mpa_addsub.c:441
    9d18:	b9400660 	ldr	w0, [x19, #4]
    9d1c:	4b0003e0 	neg	w0, w0
    9d20:	b9000660 	str	w0, [x19, #4]
/home/zliu/ubuntu-optee-rpi3/RPi3_OPTEE_3.1/optee_os/lib/libmpa/mpa_addsub.c:442
    9d24:	f9400bf3 	ldr	x19, [sp, #16]
    9d28:	a8c27bfd 	ldp	x29, x30, [sp], #32
    9d2c:	d65f03c0 	ret

0000000000009d30 <mpa_add_word>:
mpa_add_word():
/home/zliu/ubuntu-optee-rpi3/RPi3_OPTEE_3.1/optee_os/lib/libmpa/mpa_addsub.c:451
    9d30:	a9ba7bfd 	stp	x29, x30, [sp, #-96]!
    9d34:	910003fd 	mov	x29, sp
    9d38:	a90153f3 	stp	x19, x20, [sp, #16]
    9d3c:	a9025bf5 	stp	x21, x22, [sp, #32]
    9d40:	b9004fa2 	str	w2, [x29, #76]
    9d44:	f9001bf7 	str	x23, [sp, #48]
/home/zliu/ubuntu-optee-rpi3/RPi3_OPTEE_3.1/optee_os/lib/libmpa/mpa_addsub.c:457
    9d48:	350000e2 	cbnz	w2, 9d64 <mpa_add_word+0x34>
/home/zliu/ubuntu-optee-rpi3/RPi3_OPTEE_3.1/optee_os/lib/libmpa/mpa_addsub.c:458
    9d4c:	97fff4fe 	bl	7144 <mpa_copy>
/home/zliu/ubuntu-optee-rpi3/RPi3_OPTEE_3.1/optee_os/lib/libmpa/mpa_addsub.c:501
    9d50:	a94153f3 	ldp	x19, x20, [sp, #16]
    9d54:	a9425bf5 	ldp	x21, x22, [sp, #32]
    9d58:	f9401bf7 	ldr	x23, [sp, #48]
    9d5c:	a8c67bfd 	ldp	x29, x30, [sp], #96
    9d60:	d65f03c0 	ret
    9d64:	aa0303f6 	mov	x22, x3
/home/zliu/ubuntu-optee-rpi3/RPi3_OPTEE_3.1/optee_os/lib/libmpa/mpa_addsub.c:462
    9d68:	b9400423 	ldr	w3, [x1, #4]
    9d6c:	aa0003f5 	mov	x21, x0
    9d70:	aa0103f4 	mov	x20, x1
    9d74:	35000083 	cbnz	w3, 9d84 <mpa_add_word+0x54>
/home/zliu/ubuntu-optee-rpi3/RPi3_OPTEE_3.1/optee_os/lib/libmpa/mpa_addsub.c:463
    9d78:	52800020 	mov	w0, #0x1                   	// #1
/home/zliu/ubuntu-optee-rpi3/RPi3_OPTEE_3.1/optee_os/lib/libmpa/mpa_addsub.c:464
    9d7c:	29008aa0 	stp	w0, w2, [x21, #4]
/home/zliu/ubuntu-optee-rpi3/RPi3_OPTEE_3.1/optee_os/lib/libmpa/mpa_addsub.c:465
    9d80:	17fffff4 	b	9d50 <mpa_add_word+0x20>
/home/zliu/ubuntu-optee-rpi3/RPi3_OPTEE_3.1/optee_os/lib/libmpa/mpa_addsub.c:468
    9d84:	12800017 	mov	w23, #0xffffffff            	// #-1
    9d88:	6b17007f 	cmp	w3, w23
    9d8c:	5a97d6f7 	cneg	w23, w23, gt
/home/zliu/ubuntu-optee-rpi3/RPi3_OPTEE_3.1/optee_os/lib/libmpa/mpa_addsub.c:469
    9d90:	7100007f 	cmp	w3, #0x0
    9d94:	5a83a473 	cneg	w19, w3, lt  // lt = tstop
/home/zliu/ubuntu-optee-rpi3/RPi3_OPTEE_3.1/optee_os/lib/libmpa/mpa_addsub.c:473
    9d98:	eb00003f 	cmp	x1, x0
    9d9c:	540002e1 	b.ne	9df8 <mpa_add_word+0xc8>  // b.any
/home/zliu/ubuntu-optee-rpi3/RPi3_OPTEE_3.1/optee_os/lib/libmpa/mpa_addsub.c:474
    9da0:	aa1603e1 	mov	x1, x22
    9da4:	910163a0 	add	x0, x29, #0x58
    9da8:	97fffbf9 	bl	8d8c <mpa_alloc_static_temp_var>
/home/zliu/ubuntu-optee-rpi3/RPi3_OPTEE_3.1/optee_os/lib/libmpa/mpa_addsub.c:479
    9dac:	710006ff 	cmp	w23, #0x1
    9db0:	f9402fa0 	ldr	x0, [x29, #88]
    9db4:	54000261 	b.ne	9e00 <mpa_add_word+0xd0>  // b.any
/home/zliu/ubuntu-optee-rpi3/RPi3_OPTEE_3.1/optee_os/lib/libmpa/mpa_addsub.c:481
    9db8:	91001001 	add	x1, x0, #0x4
    9dbc:	2a1703e5 	mov	w5, w23
    9dc0:	910133a4 	add	x4, x29, #0x4c
    9dc4:	2a1303e3 	mov	w3, w19
    9dc8:	91002282 	add	x2, x20, #0x8
    9dcc:	91002000 	add	x0, x0, #0x8
    9dd0:	97fffe50 	bl	9710 <__mpa_abs_add>
/home/zliu/ubuntu-optee-rpi3/RPi3_OPTEE_3.1/optee_os/lib/libmpa/mpa_addsub.c:498
    9dd4:	f9402fa1 	ldr	x1, [x29, #88]
    9dd8:	aa1503e0 	mov	x0, x21
    9ddc:	97fff4da 	bl	7144 <mpa_copy>
/home/zliu/ubuntu-optee-rpi3/RPi3_OPTEE_3.1/optee_os/lib/libmpa/mpa_addsub.c:499
    9de0:	eb15029f 	cmp	x20, x21
    9de4:	54fffb61 	b.ne	9d50 <mpa_add_word+0x20>  // b.any
/home/zliu/ubuntu-optee-rpi3/RPi3_OPTEE_3.1/optee_os/lib/libmpa/mpa_addsub.c:500
    9de8:	aa1603e1 	mov	x1, x22
    9dec:	910163a0 	add	x0, x29, #0x58
    9df0:	97fffbeb 	bl	8d9c <mpa_free_static_temp_var>
    9df4:	17ffffd7 	b	9d50 <mpa_add_word+0x20>
/home/zliu/ubuntu-optee-rpi3/RPi3_OPTEE_3.1/optee_os/lib/libmpa/mpa_addsub.c:476
    9df8:	f9002fa0 	str	x0, [x29, #88]
    9dfc:	17ffffec 	b	9dac <mpa_add_word+0x7c>
/home/zliu/ubuntu-optee-rpi3/RPi3_OPTEE_3.1/optee_os/lib/libmpa/mpa_addsub.c:484
    9e00:	b9400681 	ldr	w1, [x20, #4]
    9e04:	7100003f 	cmp	w1, #0x0
    9e08:	5a81a421 	cneg	w1, w1, lt  // lt = tstop
    9e0c:	7100043f 	cmp	w1, #0x1
    9e10:	540000ac 	b.gt	9e24 <mpa_add_word+0xf4>
/home/zliu/ubuntu-optee-rpi3/RPi3_OPTEE_3.1/optee_os/lib/libmpa/mpa_addsub.c:484 (discriminator 1)
    9e14:	b9400a82 	ldr	w2, [x20, #8]
    9e18:	b9404fa1 	ldr	w1, [x29, #76]
    9e1c:	6b01005f 	cmp	w2, w1
    9e20:	540001a9 	b.ls	9e54 <mpa_add_word+0x124>  // b.plast
/home/zliu/ubuntu-optee-rpi3/RPi3_OPTEE_3.1/optee_os/lib/libmpa/mpa_addsub.c:488
    9e24:	91001001 	add	x1, x0, #0x4
    9e28:	52800025 	mov	w5, #0x1                   	// #1
    9e2c:	91002000 	add	x0, x0, #0x8
    9e30:	910133a4 	add	x4, x29, #0x4c
    9e34:	2a1303e3 	mov	w3, w19
    9e38:	91002282 	add	x2, x20, #0x8
    9e3c:	97fffea5 	bl	98d0 <__mpa_abs_sub>
/home/zliu/ubuntu-optee-rpi3/RPi3_OPTEE_3.1/optee_os/lib/libmpa/mpa_addsub.c:490
    9e40:	f9402fa1 	ldr	x1, [x29, #88]
    9e44:	b9400420 	ldr	w0, [x1, #4]
    9e48:	4b0003e0 	neg	w0, w0
    9e4c:	b9000420 	str	w0, [x1, #4]
    9e50:	17ffffe1 	b	9dd4 <mpa_add_word+0xa4>
/home/zliu/ubuntu-optee-rpi3/RPi3_OPTEE_3.1/optee_os/lib/libmpa/mpa_addsub.c:493
    9e54:	4b020021 	sub	w1, w1, w2
    9e58:	b9000801 	str	w1, [x0, #8]
/home/zliu/ubuntu-optee-rpi3/RPi3_OPTEE_3.1/optee_os/lib/libmpa/mpa_addsub.c:494
    9e5c:	7100003f 	cmp	w1, #0x0
    9e60:	1a9f07e1 	cset	w1, ne  // ne = any
    9e64:	b9000401 	str	w1, [x0, #4]
    9e68:	17ffffdb 	b	9dd4 <mpa_add_word+0xa4>

0000000000009e6c <mpa_sub_word>:
mpa_sub_word():
/home/zliu/ubuntu-optee-rpi3/RPi3_OPTEE_3.1/optee_os/lib/libmpa/mpa_addsub.c:510
    9e6c:	a9ba7bfd 	stp	x29, x30, [sp, #-96]!
    9e70:	910003fd 	mov	x29, sp
    9e74:	a90153f3 	stp	x19, x20, [sp, #16]
    9e78:	a9025bf5 	stp	x21, x22, [sp, #32]
    9e7c:	b9004fa2 	str	w2, [x29, #76]
    9e80:	f9001bf7 	str	x23, [sp, #48]
/home/zliu/ubuntu-optee-rpi3/RPi3_OPTEE_3.1/optee_os/lib/libmpa/mpa_addsub.c:516
    9e84:	350000e2 	cbnz	w2, 9ea0 <mpa_sub_word+0x34>
/home/zliu/ubuntu-optee-rpi3/RPi3_OPTEE_3.1/optee_os/lib/libmpa/mpa_addsub.c:517
    9e88:	97fff4af 	bl	7144 <mpa_copy>
/home/zliu/ubuntu-optee-rpi3/RPi3_OPTEE_3.1/optee_os/lib/libmpa/mpa_addsub.c:562
    9e8c:	a94153f3 	ldp	x19, x20, [sp, #16]
    9e90:	a9425bf5 	ldp	x21, x22, [sp, #32]
    9e94:	f9401bf7 	ldr	x23, [sp, #48]
    9e98:	a8c67bfd 	ldp	x29, x30, [sp], #96
    9e9c:	d65f03c0 	ret
    9ea0:	aa0303f6 	mov	x22, x3
/home/zliu/ubuntu-optee-rpi3/RPi3_OPTEE_3.1/optee_os/lib/libmpa/mpa_addsub.c:521
    9ea4:	b9400423 	ldr	w3, [x1, #4]
    9ea8:	aa0003f5 	mov	x21, x0
    9eac:	aa0103f4 	mov	x20, x1
/home/zliu/ubuntu-optee-rpi3/RPi3_OPTEE_3.1/optee_os/lib/libmpa/mpa_addsub.c:522
    9eb0:	12800000 	mov	w0, #0xffffffff            	// #-1
/home/zliu/ubuntu-optee-rpi3/RPi3_OPTEE_3.1/optee_os/lib/libmpa/mpa_addsub.c:521
    9eb4:	35000063 	cbnz	w3, 9ec0 <mpa_sub_word+0x54>
/home/zliu/ubuntu-optee-rpi3/RPi3_OPTEE_3.1/optee_os/lib/libmpa/mpa_addsub.c:523
    9eb8:	29008aa0 	stp	w0, w2, [x21, #4]
/home/zliu/ubuntu-optee-rpi3/RPi3_OPTEE_3.1/optee_os/lib/libmpa/mpa_addsub.c:524
    9ebc:	17fffff4 	b	9e8c <mpa_sub_word+0x20>
/home/zliu/ubuntu-optee-rpi3/RPi3_OPTEE_3.1/optee_os/lib/libmpa/mpa_addsub.c:527
    9ec0:	6b00007f 	cmp	w3, w0
    9ec4:	5a80d417 	cneg	w23, w0, gt
/home/zliu/ubuntu-optee-rpi3/RPi3_OPTEE_3.1/optee_os/lib/libmpa/mpa_addsub.c:528
    9ec8:	7100007f 	cmp	w3, #0x0
    9ecc:	5a83a473 	cneg	w19, w3, lt  // lt = tstop
/home/zliu/ubuntu-optee-rpi3/RPi3_OPTEE_3.1/optee_os/lib/libmpa/mpa_addsub.c:532
    9ed0:	eb15003f 	cmp	x1, x21
    9ed4:	54000401 	b.ne	9f54 <mpa_sub_word+0xe8>  // b.any
/home/zliu/ubuntu-optee-rpi3/RPi3_OPTEE_3.1/optee_os/lib/libmpa/mpa_addsub.c:533
    9ed8:	aa1603e1 	mov	x1, x22
    9edc:	910163a0 	add	x0, x29, #0x58
    9ee0:	97fffbab 	bl	8d8c <mpa_alloc_static_temp_var>
/home/zliu/ubuntu-optee-rpi3/RPi3_OPTEE_3.1/optee_os/lib/libmpa/mpa_addsub.c:545
    9ee4:	710006ff 	cmp	w23, #0x1
    9ee8:	f9402fa0 	ldr	x0, [x29, #88]
    9eec:	54000441 	b.ne	9f74 <mpa_sub_word+0x108>  // b.any
/home/zliu/ubuntu-optee-rpi3/RPi3_OPTEE_3.1/optee_os/lib/libmpa/mpa_addsub.c:546
    9ef0:	b9400681 	ldr	w1, [x20, #4]
    9ef4:	7100003f 	cmp	w1, #0x0
    9ef8:	5a81a421 	cneg	w1, w1, lt  // lt = tstop
    9efc:	7100043f 	cmp	w1, #0x1
    9f00:	540000ac 	b.gt	9f14 <mpa_sub_word+0xa8>
/home/zliu/ubuntu-optee-rpi3/RPi3_OPTEE_3.1/optee_os/lib/libmpa/mpa_addsub.c:546 (discriminator 1)
    9f04:	b9400a82 	ldr	w2, [x20, #8]
    9f08:	b9404fa1 	ldr	w1, [x29, #76]
    9f0c:	6b01005f 	cmp	w2, w1
    9f10:	54000269 	b.ls	9f5c <mpa_sub_word+0xf0>  // b.plast
/home/zliu/ubuntu-optee-rpi3/RPi3_OPTEE_3.1/optee_os/lib/libmpa/mpa_addsub.c:547
    9f14:	91001001 	add	x1, x0, #0x4
    9f18:	52800025 	mov	w5, #0x1                   	// #1
    9f1c:	910133a4 	add	x4, x29, #0x4c
    9f20:	2a1303e3 	mov	w3, w19
    9f24:	91002282 	add	x2, x20, #0x8
    9f28:	91002000 	add	x0, x0, #0x8
    9f2c:	97fffe69 	bl	98d0 <__mpa_abs_sub>
/home/zliu/ubuntu-optee-rpi3/RPi3_OPTEE_3.1/optee_os/lib/libmpa/mpa_addsub.c:559
    9f30:	f9402fa1 	ldr	x1, [x29, #88]
    9f34:	aa1503e0 	mov	x0, x21
    9f38:	97fff483 	bl	7144 <mpa_copy>
/home/zliu/ubuntu-optee-rpi3/RPi3_OPTEE_3.1/optee_os/lib/libmpa/mpa_addsub.c:560
    9f3c:	eb15029f 	cmp	x20, x21
    9f40:	54fffa61 	b.ne	9e8c <mpa_sub_word+0x20>  // b.any
/home/zliu/ubuntu-optee-rpi3/RPi3_OPTEE_3.1/optee_os/lib/libmpa/mpa_addsub.c:561
    9f44:	aa1603e1 	mov	x1, x22
    9f48:	910163a0 	add	x0, x29, #0x58
    9f4c:	97fffb94 	bl	8d9c <mpa_free_static_temp_var>
    9f50:	17ffffcf 	b	9e8c <mpa_sub_word+0x20>
/home/zliu/ubuntu-optee-rpi3/RPi3_OPTEE_3.1/optee_os/lib/libmpa/mpa_addsub.c:535
    9f54:	f9002fb5 	str	x21, [x29, #88]
    9f58:	17ffffe3 	b	9ee4 <mpa_sub_word+0x78>
/home/zliu/ubuntu-optee-rpi3/RPi3_OPTEE_3.1/optee_os/lib/libmpa/mpa_addsub.c:550
    9f5c:	4b020021 	sub	w1, w1, w2
    9f60:	b9000801 	str	w1, [x0, #8]
/home/zliu/ubuntu-optee-rpi3/RPi3_OPTEE_3.1/optee_os/lib/libmpa/mpa_addsub.c:551
    9f64:	7100003f 	cmp	w1, #0x0
    9f68:	5a9f03e1 	csetm	w1, ne  // ne = any
    9f6c:	b9000401 	str	w1, [x0, #4]
    9f70:	17fffff0 	b	9f30 <mpa_sub_word+0xc4>
/home/zliu/ubuntu-optee-rpi3/RPi3_OPTEE_3.1/optee_os/lib/libmpa/mpa_addsub.c:554
    9f74:	91001001 	add	x1, x0, #0x4
    9f78:	52800025 	mov	w5, #0x1                   	// #1
    9f7c:	91002000 	add	x0, x0, #0x8
    9f80:	910133a4 	add	x4, x29, #0x4c
    9f84:	2a1303e3 	mov	w3, w19
    9f88:	91002282 	add	x2, x20, #0x8
    9f8c:	97fffde1 	bl	9710 <__mpa_abs_add>
/home/zliu/ubuntu-optee-rpi3/RPi3_OPTEE_3.1/optee_os/lib/libmpa/mpa_addsub.c:556
    9f90:	f9402fa1 	ldr	x1, [x29, #88]
    9f94:	b9400420 	ldr	w0, [x1, #4]
    9f98:	4b0003e0 	neg	w0, w0
    9f9c:	b9000420 	str	w0, [x1, #4]
    9fa0:	17ffffe4 	b	9f30 <mpa_sub_word+0xc4>

0000000000009fa4 <__mpa_abs_cmp>:
__mpa_abs_cmp():
/home/zliu/ubuntu-optee-rpi3/RPi3_OPTEE_3.1/optee_os/lib/libmpa/mpa_cmp.c:44
    9fa4:	aa0003e4 	mov	x4, x0
/home/zliu/ubuntu-optee-rpi3/RPi3_OPTEE_3.1/optee_os/lib/libmpa/mpa_cmp.c:49
    9fa8:	eb01001f 	cmp	x0, x1
    9fac:	54000500 	b.eq	a04c <__mpa_abs_cmp+0xa8>  // b.none
/home/zliu/ubuntu-optee-rpi3/RPi3_OPTEE_3.1/optee_os/lib/libmpa/mpa_cmp.c:53
    9fb0:	b9400482 	ldr	w2, [x4, #4]
    9fb4:	b9400420 	ldr	w0, [x1, #4]
    9fb8:	7100005f 	cmp	w2, #0x0
    9fbc:	5a82a443 	cneg	w3, w2, lt  // lt = tstop
    9fc0:	7100001f 	cmp	w0, #0x0
    9fc4:	5a80a405 	cneg	w5, w0, lt  // lt = tstop
    9fc8:	6b05007f 	cmp	w3, w5
    9fcc:	54000060 	b.eq	9fd8 <__mpa_abs_cmp+0x34>  // b.none
/home/zliu/ubuntu-optee-rpi3/RPi3_OPTEE_3.1/optee_os/lib/libmpa/mpa_cmp.c:54
    9fd0:	4b050060 	sub	w0, w3, w5
    9fd4:	d65f03c0 	ret
/home/zliu/ubuntu-optee-rpi3/RPi3_OPTEE_3.1/optee_os/lib/libmpa/mpa_cmp.c:56 (discriminator 1)
    9fd8:	2a000040 	orr	w0, w2, w0
    9fdc:	340003a0 	cbz	w0, a050 <__mpa_abs_cmp+0xac>
/home/zliu/ubuntu-optee-rpi3/RPi3_OPTEE_3.1/optee_os/lib/libmpa/mpa_cmp.c:60
    9fe0:	51000462 	sub	w2, w3, #0x1
/home/zliu/ubuntu-optee-rpi3/RPi3_OPTEE_3.1/optee_os/lib/libmpa/mpa_cmp.c:61
    9fe4:	52800025 	mov	w5, #0x1                   	// #1
    9fe8:	93407c43 	sxtw	x3, w2
    9fec:	91000863 	add	x3, x3, #0x2
    9ff0:	d37ef463 	lsl	x3, x3, #2
/home/zliu/ubuntu-optee-rpi3/RPi3_OPTEE_3.1/optee_os/lib/libmpa/mpa_cmp.c:62
    9ff4:	2a2203e0 	mvn	w0, w2
    9ff8:	6a407cbf 	tst	w5, w0, lsr #31
    9ffc:	540001a1 	b.ne	a030 <__mpa_abs_cmp+0x8c>  // b.any
/home/zliu/ubuntu-optee-rpi3/RPi3_OPTEE_3.1/optee_os/lib/libmpa/mpa_cmp.c:50
    a000:	52800000 	mov	w0, #0x0                   	// #0
/home/zliu/ubuntu-optee-rpi3/RPi3_OPTEE_3.1/optee_os/lib/libmpa/mpa_cmp.c:66
    a004:	35000265 	cbnz	w5, a050 <__mpa_abs_cmp+0xac>
/home/zliu/ubuntu-optee-rpi3/RPi3_OPTEE_3.1/optee_os/lib/libmpa/mpa_cmp.c:68
    a008:	11000442 	add	w2, w2, #0x1
/home/zliu/ubuntu-optee-rpi3/RPi3_OPTEE_3.1/optee_os/lib/libmpa/mpa_cmp.c:69
    a00c:	12800000 	mov	w0, #0xffffffff            	// #-1
    a010:	937e7c42 	sbfiz	x2, x2, #2, #32
    a014:	8b020084 	add	x4, x4, x2
    a018:	8b020022 	add	x2, x1, x2
    a01c:	b9400883 	ldr	w3, [x4, #8]
    a020:	b9400841 	ldr	w1, [x2, #8]
    a024:	6b01007f 	cmp	w3, w1
    a028:	5a809400 	cneg	w0, w0, hi  // hi = pmore
    a02c:	d65f03c0 	ret
/home/zliu/ubuntu-optee-rpi3/RPi3_OPTEE_3.1/optee_os/lib/libmpa/mpa_cmp.c:63
    a030:	b8636885 	ldr	w5, [x4, x3]
/home/zliu/ubuntu-optee-rpi3/RPi3_OPTEE_3.1/optee_os/lib/libmpa/mpa_cmp.c:64
    a034:	51000442 	sub	w2, w2, #0x1
/home/zliu/ubuntu-optee-rpi3/RPi3_OPTEE_3.1/optee_os/lib/libmpa/mpa_cmp.c:63
    a038:	b8636820 	ldr	w0, [x1, x3]
    a03c:	d1001063 	sub	x3, x3, #0x4
    a040:	6b0000bf 	cmp	w5, w0
    a044:	1a9f17e5 	cset	w5, eq  // eq = none
    a048:	17ffffeb 	b	9ff4 <__mpa_abs_cmp+0x50>
/home/zliu/ubuntu-optee-rpi3/RPi3_OPTEE_3.1/optee_os/lib/libmpa/mpa_cmp.c:50
    a04c:	52800000 	mov	w0, #0x0                   	// #0
/home/zliu/ubuntu-optee-rpi3/RPi3_OPTEE_3.1/optee_os/lib/libmpa/mpa_cmp.c:70
    a050:	d65f03c0 	ret

000000000000a054 <__mpa_abs_greater_than>:
__mpa_abs_greater_than():
/home/zliu/ubuntu-optee-rpi3/RPi3_OPTEE_3.1/optee_os/lib/libmpa/mpa_cmp.c:78
    a054:	a9bf7bfd 	stp	x29, x30, [sp, #-16]!
    a058:	910003fd 	mov	x29, sp
/home/zliu/ubuntu-optee-rpi3/RPi3_OPTEE_3.1/optee_os/lib/libmpa/mpa_cmp.c:79
    a05c:	97ffffd2 	bl	9fa4 <__mpa_abs_cmp>
    a060:	7100001f 	cmp	w0, #0x0
/home/zliu/ubuntu-optee-rpi3/RPi3_OPTEE_3.1/optee_os/lib/libmpa/mpa_cmp.c:80
    a064:	1a9fd7e0 	cset	w0, gt
    a068:	a8c17bfd 	ldp	x29, x30, [sp], #16
    a06c:	d65f03c0 	ret

000000000000a070 <__mpa_abs_less_than>:
__mpa_abs_less_than():
/home/zliu/ubuntu-optee-rpi3/RPi3_OPTEE_3.1/optee_os/lib/libmpa/mpa_cmp.c:88
    a070:	a9bf7bfd 	stp	x29, x30, [sp, #-16]!
    a074:	910003fd 	mov	x29, sp
/home/zliu/ubuntu-optee-rpi3/RPi3_OPTEE_3.1/optee_os/lib/libmpa/mpa_cmp.c:89
    a078:	97ffffcb 	bl	9fa4 <__mpa_abs_cmp>
/home/zliu/ubuntu-optee-rpi3/RPi3_OPTEE_3.1/optee_os/lib/libmpa/mpa_cmp.c:90
    a07c:	531f7c00 	lsr	w0, w0, #31
    a080:	a8c17bfd 	ldp	x29, x30, [sp], #16
    a084:	d65f03c0 	ret

000000000000a088 <mpa_cmp>:
mpa_cmp():
/home/zliu/ubuntu-optee-rpi3/RPi3_OPTEE_3.1/optee_os/lib/libmpa/mpa_cmp.c:106
    a088:	a9be7bfd 	stp	x29, x30, [sp, #-32]!
/home/zliu/ubuntu-optee-rpi3/RPi3_OPTEE_3.1/optee_os/lib/libmpa/mpa_cmp.c:111
    a08c:	12800002 	mov	w2, #0xffffffff            	// #-1
/home/zliu/ubuntu-optee-rpi3/RPi3_OPTEE_3.1/optee_os/lib/libmpa/mpa_cmp.c:106
    a090:	910003fd 	mov	x29, sp
/home/zliu/ubuntu-optee-rpi3/RPi3_OPTEE_3.1/optee_os/lib/libmpa/mpa_cmp.c:111
    a094:	b9400404 	ldr	w4, [x0, #4]
/home/zliu/ubuntu-optee-rpi3/RPi3_OPTEE_3.1/optee_os/lib/libmpa/mpa_cmp.c:112
    a098:	b9400423 	ldr	w3, [x1, #4]
/home/zliu/ubuntu-optee-rpi3/RPi3_OPTEE_3.1/optee_os/lib/libmpa/mpa_cmp.c:111
    a09c:	6b02009f 	cmp	w4, w2
/home/zliu/ubuntu-optee-rpi3/RPi3_OPTEE_3.1/optee_os/lib/libmpa/mpa_cmp.c:106
    a0a0:	f9000bf3 	str	x19, [sp, #16]
/home/zliu/ubuntu-optee-rpi3/RPi3_OPTEE_3.1/optee_os/lib/libmpa/mpa_cmp.c:111
    a0a4:	5a82d453 	cneg	w19, w2, gt
/home/zliu/ubuntu-optee-rpi3/RPi3_OPTEE_3.1/optee_os/lib/libmpa/mpa_cmp.c:112
    a0a8:	6b02007f 	cmp	w3, w2
    a0ac:	5a82d442 	cneg	w2, w2, gt
    a0b0:	6b02027f 	cmp	w19, w2
    a0b4:	540000e1 	b.ne	a0d0 <mpa_cmp+0x48>  // b.any
/home/zliu/ubuntu-optee-rpi3/RPi3_OPTEE_3.1/optee_os/lib/libmpa/mpa_cmp.c:116
    a0b8:	35000144 	cbnz	w4, a0e0 <mpa_cmp+0x58>
/home/zliu/ubuntu-optee-rpi3/RPi3_OPTEE_3.1/optee_os/lib/libmpa/mpa_cmp.c:117
    a0bc:	52800013 	mov	w19, #0x0                   	// #0
    a0c0:	34000083 	cbz	w3, a0d0 <mpa_cmp+0x48>
/home/zliu/ubuntu-optee-rpi3/RPi3_OPTEE_3.1/optee_os/lib/libmpa/mpa_cmp.c:117 (discriminator 1)
    a0c4:	3100047f 	cmn	w3, #0x1
    a0c8:	52800026 	mov	w6, #0x1                   	// #1
    a0cc:	5a86d4d3 	cneg	w19, w6, gt
/home/zliu/ubuntu-optee-rpi3/RPi3_OPTEE_3.1/optee_os/lib/libmpa/mpa_cmp.c:127
    a0d0:	2a1303e0 	mov	w0, w19
    a0d4:	f9400bf3 	ldr	x19, [sp, #16]
    a0d8:	a8c27bfd 	ldp	x29, x30, [sp], #32
    a0dc:	d65f03c0 	ret
/home/zliu/ubuntu-optee-rpi3/RPi3_OPTEE_3.1/optee_os/lib/libmpa/mpa_cmp.c:123
    a0e0:	97ffffb1 	bl	9fa4 <__mpa_abs_cmp>
/home/zliu/ubuntu-optee-rpi3/RPi3_OPTEE_3.1/optee_os/lib/libmpa/mpa_cmp.c:125
    a0e4:	7100067f 	cmp	w19, #0x1
    a0e8:	5a800413 	cneg	w19, w0, ne  // ne = any
    a0ec:	17fffff9 	b	a0d0 <mpa_cmp+0x48>

000000000000a0f0 <mpa_cmp_short>:
mpa_cmp_short():
/home/zliu/ubuntu-optee-rpi3/RPi3_OPTEE_3.1/optee_os/lib/libmpa/mpa_cmp.c:145
    a0f0:	b9400403 	ldr	w3, [x0, #4]
/home/zliu/ubuntu-optee-rpi3/RPi3_OPTEE_3.1/optee_os/lib/libmpa/mpa_cmp.c:138
    a0f4:	aa0003e4 	mov	x4, x0
/home/zliu/ubuntu-optee-rpi3/RPi3_OPTEE_3.1/optee_os/lib/libmpa/mpa_cmp.c:145
    a0f8:	37f80343 	tbnz	w3, #31, a160 <mpa_cmp_short+0x70>
/home/zliu/ubuntu-optee-rpi3/RPi3_OPTEE_3.1/optee_os/lib/libmpa/mpa_cmp.c:146 (discriminator 4)
    a0fc:	37f802a1 	tbnz	w1, #31, a150 <mpa_cmp_short+0x60>
/home/zliu/ubuntu-optee-rpi3/RPi3_OPTEE_3.1/optee_os/lib/libmpa/mpa_cmp.c:149 (discriminator 4)
    a100:	350000c3 	cbnz	w3, a118 <mpa_cmp_short+0x28>
/home/zliu/ubuntu-optee-rpi3/RPi3_OPTEE_3.1/optee_os/lib/libmpa/mpa_cmp.c:150
    a104:	52800000 	mov	w0, #0x0                   	// #0
    a108:	34000341 	cbz	w1, a170 <mpa_cmp_short+0x80>
/home/zliu/ubuntu-optee-rpi3/RPi3_OPTEE_3.1/optee_os/lib/libmpa/mpa_cmp.c:146
    a10c:	52800022 	mov	w2, #0x1                   	// #1
/home/zliu/ubuntu-optee-rpi3/RPi3_OPTEE_3.1/optee_os/lib/libmpa/mpa_cmp.c:150 (discriminator 1)
    a110:	4b0203e0 	neg	w0, w2
    a114:	d65f03c0 	ret
/home/zliu/ubuntu-optee-rpi3/RPi3_OPTEE_3.1/optee_os/lib/libmpa/mpa_cmp.c:145
    a118:	52800020 	mov	w0, #0x1                   	// #1
/home/zliu/ubuntu-optee-rpi3/RPi3_OPTEE_3.1/optee_os/lib/libmpa/mpa_cmp.c:146
    a11c:	52800022 	mov	w2, #0x1                   	// #1
/home/zliu/ubuntu-optee-rpi3/RPi3_OPTEE_3.1/optee_os/lib/libmpa/mpa_cmp.c:153
    a120:	7100007f 	cmp	w3, #0x0
    a124:	5a83a463 	cneg	w3, w3, lt  // lt = tstop
/home/zliu/ubuntu-optee-rpi3/RPi3_OPTEE_3.1/optee_os/lib/libmpa/mpa_cmp.c:157
    a128:	7100047f 	cmp	w3, #0x1
    a12c:	7a420000 	ccmp	w0, w2, #0x0, eq  // eq = none
    a130:	54000201 	b.ne	a170 <mpa_cmp_short+0x80>  // b.any
/home/zliu/ubuntu-optee-rpi3/RPi3_OPTEE_3.1/optee_os/lib/libmpa/mpa_cmp.c:162
    a134:	7100003f 	cmp	w1, #0x0
/home/zliu/ubuntu-optee-rpi3/RPi3_OPTEE_3.1/optee_os/lib/libmpa/mpa_cmp.c:164
    a138:	b9400882 	ldr	w2, [x4, #8]
/home/zliu/ubuntu-optee-rpi3/RPi3_OPTEE_3.1/optee_os/lib/libmpa/mpa_cmp.c:162
    a13c:	5a81a421 	cneg	w1, w1, lt  // lt = tstop
/home/zliu/ubuntu-optee-rpi3/RPi3_OPTEE_3.1/optee_os/lib/libmpa/mpa_cmp.c:164
    a140:	6b02003f 	cmp	w1, w2
/home/zliu/ubuntu-optee-rpi3/RPi3_OPTEE_3.1/optee_os/lib/libmpa/mpa_cmp.c:167
    a144:	5a803400 	cneg	w0, w0, cs  // cs = hs, nlast
    a148:	1a9f1000 	csel	w0, w0, wzr, ne  // ne = any
    a14c:	d65f03c0 	ret
/home/zliu/ubuntu-optee-rpi3/RPi3_OPTEE_3.1/optee_os/lib/libmpa/mpa_cmp.c:146
    a150:	12800002 	mov	w2, #0xffffffff            	// #-1
/home/zliu/ubuntu-optee-rpi3/RPi3_OPTEE_3.1/optee_os/lib/libmpa/mpa_cmp.c:145
    a154:	52800020 	mov	w0, #0x1                   	// #1
/home/zliu/ubuntu-optee-rpi3/RPi3_OPTEE_3.1/optee_os/lib/libmpa/mpa_cmp.c:149
    a158:	34fffdc3 	cbz	w3, a110 <mpa_cmp_short+0x20>
    a15c:	17fffff1 	b	a120 <mpa_cmp_short+0x30>
/home/zliu/ubuntu-optee-rpi3/RPi3_OPTEE_3.1/optee_os/lib/libmpa/mpa_cmp.c:145
    a160:	12800000 	mov	w0, #0xffffffff            	// #-1
/home/zliu/ubuntu-optee-rpi3/RPi3_OPTEE_3.1/optee_os/lib/libmpa/mpa_cmp.c:146
    a164:	2a0003e2 	mov	w2, w0
    a168:	36fffda1 	tbz	w1, #31, a11c <mpa_cmp_short+0x2c>
    a16c:	17ffffed 	b	a120 <mpa_cmp_short+0x30>
/home/zliu/ubuntu-optee-rpi3/RPi3_OPTEE_3.1/optee_os/lib/libmpa/mpa_cmp.c:172
    a170:	d65f03c0 	ret

000000000000a174 <mpa_exp_mod>:
mpa_exp_mod():
/home/zliu/ubuntu-optee-rpi3/RPi3_OPTEE_3.1/optee_os/lib/libmpa/mpa_expmod.c:52
    a174:	a9b67bfd 	stp	x29, x30, [sp, #-160]!
    a178:	910003fd 	mov	x29, sp
    a17c:	a90573fb 	stp	x27, x28, [sp, #80]
/home/zliu/ubuntu-optee-rpi3/RPi3_OPTEE_3.1/optee_os/lib/libmpa/mpa_expmod.c:63
    a180:	910203bc 	add	x28, x29, #0x80
/home/zliu/ubuntu-optee-rpi3/RPi3_OPTEE_3.1/optee_os/lib/libmpa/mpa_expmod.c:52
    a184:	a90153f3 	stp	x19, x20, [sp, #16]
/home/zliu/ubuntu-optee-rpi3/RPi3_OPTEE_3.1/optee_os/lib/libmpa/mpa_expmod.c:64
    a188:	910223bb 	add	x27, x29, #0x88
/home/zliu/ubuntu-optee-rpi3/RPi3_OPTEE_3.1/optee_os/lib/libmpa/mpa_expmod.c:52
    a18c:	aa0703f3 	mov	x19, x7
    a190:	aa0403f4 	mov	x20, x4
    a194:	a9060ba0 	stp	x0, x2, [x29, #96]
/home/zliu/ubuntu-optee-rpi3/RPi3_OPTEE_3.1/optee_os/lib/libmpa/mpa_expmod.c:63
    a198:	aa1c03e0 	mov	x0, x28
/home/zliu/ubuntu-optee-rpi3/RPi3_OPTEE_3.1/optee_os/lib/libmpa/mpa_expmod.c:52
    a19c:	a9025bf5 	stp	x21, x22, [sp, #32]
    a1a0:	2a0603f6 	mov	w22, w6
    a1a4:	aa0303f5 	mov	x21, x3
    a1a8:	a90363f7 	stp	x23, x24, [sp, #48]
    a1ac:	a9046bf9 	stp	x25, x26, [sp, #64]
    a1b0:	aa0503f8 	mov	x24, x5
    a1b4:	aa0103f7 	mov	x23, x1
/home/zliu/ubuntu-optee-rpi3/RPi3_OPTEE_3.1/optee_os/lib/libmpa/mpa_expmod.c:63
    a1b8:	aa0703e1 	mov	x1, x7
    a1bc:	97fffaf4 	bl	8d8c <mpa_alloc_static_temp_var>
/home/zliu/ubuntu-optee-rpi3/RPi3_OPTEE_3.1/optee_os/lib/libmpa/mpa_expmod.c:76
    a1c0:	aa1c03fa 	mov	x26, x28
/home/zliu/ubuntu-optee-rpi3/RPi3_OPTEE_3.1/optee_os/lib/libmpa/mpa_expmod.c:64
    a1c4:	aa1303e1 	mov	x1, x19
    a1c8:	aa1b03e0 	mov	x0, x27
    a1cc:	97fffaf0 	bl	8d8c <mpa_alloc_static_temp_var>
/home/zliu/ubuntu-optee-rpi3/RPi3_OPTEE_3.1/optee_os/lib/libmpa/mpa_expmod.c:65
    a1d0:	910243a0 	add	x0, x29, #0x90
    a1d4:	aa1303e1 	mov	x1, x19
    a1d8:	f9003fa0 	str	x0, [x29, #120]
    a1dc:	97fffaec 	bl	8d8c <mpa_alloc_static_temp_var>
/home/zliu/ubuntu-optee-rpi3/RPi3_OPTEE_3.1/optee_os/lib/libmpa/mpa_expmod.c:66
    a1e0:	910263a0 	add	x0, x29, #0x98
    a1e4:	aa1303e1 	mov	x1, x19
    a1e8:	f9003ba0 	str	x0, [x29, #112]
    a1ec:	97fffae8 	bl	8d8c <mpa_alloc_static_temp_var>
/home/zliu/ubuntu-optee-rpi3/RPi3_OPTEE_3.1/optee_os/lib/libmpa/mpa_expmod.c:72
    a1f0:	f9404ba0 	ldr	x0, [x29, #144]
    a1f4:	aa1803e2 	mov	x2, x24
    a1f8:	2a1603e4 	mov	w4, w22
    a1fc:	aa1503e3 	mov	x3, x21
    a200:	aa1703e1 	mov	x1, x23
    a204:	97fff462 	bl	738c <__mpa_montgomery_mul>
/home/zliu/ubuntu-optee-rpi3/RPi3_OPTEE_3.1/optee_os/lib/libmpa/mpa_expmod.c:74
    a208:	f94043a0 	ldr	x0, [x29, #128]
    a20c:	aa1403e1 	mov	x1, x20
/home/zliu/ubuntu-optee-rpi3/RPi3_OPTEE_3.1/optee_os/lib/libmpa/mpa_expmod.c:77
    a210:	aa1b03f4 	mov	x20, x27
/home/zliu/ubuntu-optee-rpi3/RPi3_OPTEE_3.1/optee_os/lib/libmpa/mpa_expmod.c:74
    a214:	97fff3cc 	bl	7144 <mpa_copy>
/home/zliu/ubuntu-optee-rpi3/RPi3_OPTEE_3.1/optee_os/lib/libmpa/mpa_expmod.c:81
    a218:	f94043a0 	ldr	x0, [x29, #128]
    a21c:	97fff3b5 	bl	70f0 <__mpa_set_unused_digits_to_zero>
/home/zliu/ubuntu-optee-rpi3/RPi3_OPTEE_3.1/optee_os/lib/libmpa/mpa_expmod.c:82
    a220:	f9404ba0 	ldr	x0, [x29, #144]
    a224:	97fff3b3 	bl	70f0 <__mpa_set_unused_digits_to_zero>
/home/zliu/ubuntu-optee-rpi3/RPi3_OPTEE_3.1/optee_os/lib/libmpa/mpa_expmod.c:84
    a228:	f94037a0 	ldr	x0, [x29, #104]
    a22c:	97fff3e7 	bl	71c8 <mpa_highest_bit_index>
    a230:	2a0003f8 	mov	w24, w0
/home/zliu/ubuntu-optee-rpi3/RPi3_OPTEE_3.1/optee_os/lib/libmpa/mpa_expmod.c:78
    a234:	a9475fb9 	ldp	x25, x23, [x29, #112]
/home/zliu/ubuntu-optee-rpi3/RPi3_OPTEE_3.1/optee_os/lib/libmpa/mpa_expmod.c:84 (discriminator 1)
    a238:	36f803d8 	tbz	w24, #31, a2b0 <mpa_exp_mod+0x13c>
/home/zliu/ubuntu-optee-rpi3/RPi3_OPTEE_3.1/optee_os/lib/libmpa/mpa_expmod.c:112
    a23c:	d0000001 	adrp	x1, c000 <__func__.3927+0x294>
    a240:	f9400342 	ldr	x2, [x26]
    a244:	f9400280 	ldr	x0, [x20]
    a248:	2a1603e4 	mov	w4, w22
    a24c:	f9447821 	ldr	x1, [x1, #2288]
    a250:	aa1503e3 	mov	x3, x21
    a254:	97fff44e 	bl	738c <__mpa_montgomery_mul>
/home/zliu/ubuntu-optee-rpi3/RPi3_OPTEE_3.1/optee_os/lib/libmpa/mpa_expmod.c:115
    a258:	f9400281 	ldr	x1, [x20]
    a25c:	f94033a0 	ldr	x0, [x29, #96]
    a260:	97fff3b9 	bl	7144 <mpa_copy>
/home/zliu/ubuntu-optee-rpi3/RPi3_OPTEE_3.1/optee_os/lib/libmpa/mpa_expmod.c:117
    a264:	aa1303e1 	mov	x1, x19
    a268:	aa1c03e0 	mov	x0, x28
    a26c:	97fffacc 	bl	8d9c <mpa_free_static_temp_var>
/home/zliu/ubuntu-optee-rpi3/RPi3_OPTEE_3.1/optee_os/lib/libmpa/mpa_expmod.c:118
    a270:	aa1303e1 	mov	x1, x19
    a274:	aa1b03e0 	mov	x0, x27
    a278:	97fffac9 	bl	8d9c <mpa_free_static_temp_var>
/home/zliu/ubuntu-optee-rpi3/RPi3_OPTEE_3.1/optee_os/lib/libmpa/mpa_expmod.c:119
    a27c:	f9403fa0 	ldr	x0, [x29, #120]
    a280:	aa1303e1 	mov	x1, x19
    a284:	97fffac6 	bl	8d9c <mpa_free_static_temp_var>
/home/zliu/ubuntu-optee-rpi3/RPi3_OPTEE_3.1/optee_os/lib/libmpa/mpa_expmod.c:120
    a288:	f9403ba0 	ldr	x0, [x29, #112]
    a28c:	aa1303e1 	mov	x1, x19
    a290:	97fffac3 	bl	8d9c <mpa_free_static_temp_var>
/home/zliu/ubuntu-optee-rpi3/RPi3_OPTEE_3.1/optee_os/lib/libmpa/mpa_expmod.c:121
    a294:	a94153f3 	ldp	x19, x20, [sp, #16]
    a298:	a9425bf5 	ldp	x21, x22, [sp, #32]
    a29c:	a94363f7 	ldp	x23, x24, [sp, #48]
    a2a0:	a9446bf9 	ldp	x25, x26, [sp, #64]
    a2a4:	a94573fb 	ldp	x27, x28, [sp, #80]
    a2a8:	a8ca7bfd 	ldp	x29, x30, [sp], #160
    a2ac:	d65f03c0 	ret
/home/zliu/ubuntu-optee-rpi3/RPi3_OPTEE_3.1/optee_os/lib/libmpa/mpa_expmod.c:85
    a2b0:	f94037a0 	ldr	x0, [x29, #104]
    a2b4:	2a1803e1 	mov	w1, w24
    a2b8:	97fff3d5 	bl	720c <mpa_get_bit>
/home/zliu/ubuntu-optee-rpi3/RPi3_OPTEE_3.1/optee_os/lib/libmpa/mpa_expmod.c:87
    a2bc:	2a1603e4 	mov	w4, w22
    a2c0:	aa1503e3 	mov	x3, x21
    a2c4:	f94002e2 	ldr	x2, [x23]
    a2c8:	f9400341 	ldr	x1, [x26]
/home/zliu/ubuntu-optee-rpi3/RPi3_OPTEE_3.1/optee_os/lib/libmpa/mpa_expmod.c:85
    a2cc:	35000220 	cbnz	w0, a310 <mpa_exp_mod+0x19c>
/home/zliu/ubuntu-optee-rpi3/RPi3_OPTEE_3.1/optee_os/lib/libmpa/mpa_expmod.c:87
    a2d0:	f9400320 	ldr	x0, [x25]
    a2d4:	97fff42e 	bl	738c <__mpa_montgomery_mul>
/home/zliu/ubuntu-optee-rpi3/RPi3_OPTEE_3.1/optee_os/lib/libmpa/mpa_expmod.c:91
    a2d8:	f9400342 	ldr	x2, [x26]
    a2dc:	2a1603e4 	mov	w4, w22
    a2e0:	f9400280 	ldr	x0, [x20]
    a2e4:	aa1503e3 	mov	x3, x21
    a2e8:	aa0203e1 	mov	x1, x2
/home/zliu/ubuntu-optee-rpi3/RPi3_OPTEE_3.1/optee_os/lib/libmpa/mpa_expmod.c:99
    a2ec:	97fff428 	bl	738c <__mpa_montgomery_mul>
/home/zliu/ubuntu-optee-rpi3/RPi3_OPTEE_3.1/optee_os/lib/libmpa/mpa_expmod.c:84
    a2f0:	51000718 	sub	w24, w24, #0x1
    a2f4:	aa1703e0 	mov	x0, x23
    a2f8:	aa1903f7 	mov	x23, x25
    a2fc:	aa0003f9 	mov	x25, x0
    a300:	aa1a03e0 	mov	x0, x26
    a304:	aa1403fa 	mov	x26, x20
    a308:	aa0003f4 	mov	x20, x0
    a30c:	17ffffcb 	b	a238 <mpa_exp_mod+0xc4>
/home/zliu/ubuntu-optee-rpi3/RPi3_OPTEE_3.1/optee_os/lib/libmpa/mpa_expmod.c:95
    a310:	f9400280 	ldr	x0, [x20]
    a314:	97fff41e 	bl	738c <__mpa_montgomery_mul>
/home/zliu/ubuntu-optee-rpi3/RPi3_OPTEE_3.1/optee_os/lib/libmpa/mpa_expmod.c:99
    a318:	f94002e2 	ldr	x2, [x23]
    a31c:	2a1603e4 	mov	w4, w22
    a320:	aa1503e3 	mov	x3, x21
    a324:	f9400320 	ldr	x0, [x25]
    a328:	aa0203e1 	mov	x1, x2
    a32c:	17fffff0 	b	a2ec <mpa_exp_mod+0x178>

000000000000a330 <mpa_init_static>:
mpa_init_static():
/home/zliu/ubuntu-optee-rpi3/RPi3_OPTEE_3.1/optee_os/lib/libmpa/mpa_init.c:36
    a330:	531e7421 	lsl	w1, w1, #2
    a334:	51002021 	sub	w1, w1, #0x8
    a338:	d3427c21 	ubfx	x1, x1, #2, #30
/home/zliu/ubuntu-optee-rpi3/RPi3_OPTEE_3.1/optee_os/lib/libmpa/mpa_init.c:37
    a33c:	29007c01 	stp	w1, wzr, [x0]
/home/zliu/ubuntu-optee-rpi3/RPi3_OPTEE_3.1/optee_os/lib/libmpa/mpa_init.c:38
    a340:	b4000041 	cbz	x1, a348 <mpa_init_static+0x18>
/home/zliu/ubuntu-optee-rpi3/RPi3_OPTEE_3.1/optee_os/lib/libmpa/mpa_init.c:39
    a344:	b900081f 	str	wzr, [x0, #8]
    a348:	d65f03c0 	ret

000000000000a34c <mpa_init_static_fmm_context>:
mpa_init_static_fmm_context():
/home/zliu/ubuntu-optee-rpi3/RPi3_OPTEE_3.1/optee_os/lib/libmpa/mpa_init.c:48
    a34c:	a9bd7bfd 	stp	x29, x30, [sp, #-48]!
    a350:	910003fd 	mov	x29, sp
    a354:	a90153f3 	stp	x19, x20, [sp, #16]
/home/zliu/ubuntu-optee-rpi3/RPi3_OPTEE_3.1/optee_os/lib/libmpa/mpa_init.c:52
    a358:	531e7433 	lsl	w19, w1, #2
    a35c:	51006273 	sub	w19, w19, #0x18
/home/zliu/ubuntu-optee-rpi3/RPi3_OPTEE_3.1/optee_os/lib/libmpa/mpa_init.c:55
    a360:	91005014 	add	x20, x0, #0x14
/home/zliu/ubuntu-optee-rpi3/RPi3_OPTEE_3.1/optee_os/lib/libmpa/mpa_init.c:48
    a364:	f90013f5 	str	x21, [sp, #32]
/home/zliu/ubuntu-optee-rpi3/RPi3_OPTEE_3.1/optee_os/lib/libmpa/mpa_init.c:55
    a368:	52800001 	mov	w1, #0x0                   	// #0
/home/zliu/ubuntu-optee-rpi3/RPi3_OPTEE_3.1/optee_os/lib/libmpa/mpa_init.c:52
    a36c:	d3427e73 	ubfx	x19, x19, #2, #30
/home/zliu/ubuntu-optee-rpi3/RPi3_OPTEE_3.1/optee_os/lib/libmpa/mpa_init.c:48
    a370:	aa0003f5 	mov	x21, x0
/home/zliu/ubuntu-optee-rpi3/RPi3_OPTEE_3.1/optee_os/lib/libmpa/mpa_init.c:55
    a374:	d37ef662 	lsl	x2, x19, #2
    a378:	aa1403e0 	mov	x0, x20
/home/zliu/ubuntu-optee-rpi3/RPi3_OPTEE_3.1/optee_os/lib/libmpa/mpa_init.c:56
    a37c:	53017e73 	lsr	w19, w19, #1
/home/zliu/ubuntu-optee-rpi3/RPi3_OPTEE_3.1/optee_os/lib/libmpa/mpa_init.c:55
    a380:	97ffef7e 	bl	6178 <memset>
/home/zliu/ubuntu-optee-rpi3/RPi3_OPTEE_3.1/optee_os/lib/libmpa/mpa_init.c:63
    a384:	51000a61 	sub	w1, w19, #0x2
/home/zliu/ubuntu-optee-rpi3/RPi3_OPTEE_3.1/optee_os/lib/libmpa/mpa_init.c:66
    a388:	d37e7273 	ubfiz	x19, x19, #2, #29
    a38c:	8b130280 	add	x0, x20, x19
/home/zliu/ubuntu-optee-rpi3/RPi3_OPTEE_3.1/optee_os/lib/libmpa/mpa_init.c:62
    a390:	290206bf 	stp	wzr, w1, [x21, #16]
/home/zliu/ubuntu-optee-rpi3/RPi3_OPTEE_3.1/optee_os/lib/libmpa/mpa_init.c:66
    a394:	a90002b4 	stp	x20, x0, [x21]
/home/zliu/ubuntu-optee-rpi3/RPi3_OPTEE_3.1/optee_os/lib/libmpa/mpa_init.c:64
    a398:	b9001abf 	str	wzr, [x21, #24]
/home/zliu/ubuntu-optee-rpi3/RPi3_OPTEE_3.1/optee_os/lib/libmpa/mpa_init.c:67
    a39c:	b8336a81 	str	w1, [x20, x19]
/home/zliu/ubuntu-optee-rpi3/RPi3_OPTEE_3.1/optee_os/lib/libmpa/mpa_init.c:70
    a3a0:	f94013f5 	ldr	x21, [sp, #32]
    a3a4:	a94153f3 	ldp	x19, x20, [sp, #16]
/home/zliu/ubuntu-optee-rpi3/RPi3_OPTEE_3.1/optee_os/lib/libmpa/mpa_init.c:69
    a3a8:	b900041f 	str	wzr, [x0, #4]
/home/zliu/ubuntu-optee-rpi3/RPi3_OPTEE_3.1/optee_os/lib/libmpa/mpa_init.c:70
    a3ac:	a8c37bfd 	ldp	x29, x30, [sp], #48
    a3b0:	d65f03c0 	ret

000000000000a3b4 <__mpa_word_to_hexstr>:
__mpa_word_to_hexstr():
/home/zliu/ubuntu-optee-rpi3/RPi3_OPTEE_3.1/optee_os/lib/libmpa/mpa_io.c:130
    a3b4:	d28000e4 	mov	x4, #0x7                   	// #7
/home/zliu/ubuntu-optee-rpi3/RPi3_OPTEE_3.1/optee_os/lib/libmpa/mpa_io.c:134 (discriminator 3)
    a3b8:	531e7483 	lsl	w3, w4, #2
    a3bc:	1ac32423 	lsr	w3, w1, w3
    a3c0:	12000c63 	and	w3, w3, #0xf
__mpa_nibble_to_char():
/home/zliu/ubuntu-optee-rpi3/RPi3_OPTEE_3.1/optee_os/lib/libmpa/mpa_io.c:119 (discriminator 3)
    a3c4:	7100247f 	cmp	w3, #0x9
    a3c8:	540000e8 	b.hi	a3e4 <__mpa_word_to_hexstr+0x30>  // b.pmore
/home/zliu/ubuntu-optee-rpi3/RPi3_OPTEE_3.1/optee_os/lib/libmpa/mpa_io.c:120
    a3cc:	1100c063 	add	w3, w3, #0x30
__mpa_word_to_hexstr():
/home/zliu/ubuntu-optee-rpi3/RPi3_OPTEE_3.1/optee_os/lib/libmpa/mpa_io.c:133
    a3d0:	38246803 	strb	w3, [x0, x4]
    a3d4:	d1000484 	sub	x4, x4, #0x1
/home/zliu/ubuntu-optee-rpi3/RPi3_OPTEE_3.1/optee_os/lib/libmpa/mpa_io.c:132
    a3d8:	b100049f 	cmn	x4, #0x1
    a3dc:	54fffee1 	b.ne	a3b8 <__mpa_word_to_hexstr+0x4>  // b.any
/home/zliu/ubuntu-optee-rpi3/RPi3_OPTEE_3.1/optee_os/lib/libmpa/mpa_io.c:136
    a3e0:	d65f03c0 	ret
__mpa_nibble_to_char():
/home/zliu/ubuntu-optee-rpi3/RPi3_OPTEE_3.1/optee_os/lib/libmpa/mpa_io.c:121
    a3e4:	1100dc65 	add	w5, w3, #0x37
    a3e8:	7100005f 	cmp	w2, #0x0
    a3ec:	11015c63 	add	w3, w3, #0x57
    a3f0:	1a851063 	csel	w3, w3, w5, ne  // ne = any
    a3f4:	17fffff7 	b	a3d0 <__mpa_word_to_hexstr+0x1c>

000000000000a3f8 <__mpa_mpanum_to_hexstr>:
__mpa_mpanum_to_hexstr():
/home/zliu/ubuntu-optee-rpi3/RPi3_OPTEE_3.1/optee_os/lib/libmpa/mpa_io.c:152
    a3f8:	b9400447 	ldr	w7, [x2, #4]
/home/zliu/ubuntu-optee-rpi3/RPi3_OPTEE_3.1/optee_os/lib/libmpa/mpa_io.c:153
    a3fc:	710000ff 	cmp	w7, #0x0
    a400:	540000c1 	b.ne	a418 <__mpa_mpanum_to_hexstr+0x20>  // b.any
/home/zliu/ubuntu-optee-rpi3/RPi3_OPTEE_3.1/optee_os/lib/libmpa/mpa_io.c:154
    a404:	52800601 	mov	w1, #0x30                  	// #48
/home/zliu/ubuntu-optee-rpi3/RPi3_OPTEE_3.1/optee_os/lib/libmpa/mpa_io.c:155
    a408:	3900041f 	strb	wzr, [x0, #1]
/home/zliu/ubuntu-optee-rpi3/RPi3_OPTEE_3.1/optee_os/lib/libmpa/mpa_io.c:154
    a40c:	39000001 	strb	w1, [x0]
/home/zliu/ubuntu-optee-rpi3/RPi3_OPTEE_3.1/optee_os/lib/libmpa/mpa_io.c:156
    a410:	52800020 	mov	w0, #0x1                   	// #1
    a414:	d65f03c0 	ret
/home/zliu/ubuntu-optee-rpi3/RPi3_OPTEE_3.1/optee_os/lib/libmpa/mpa_io.c:144
    a418:	a9bb7bfd 	stp	x29, x30, [sp, #-80]!
    a41c:	910003fd 	mov	x29, sp
    a420:	a9025bf5 	stp	x21, x22, [sp, #32]
/home/zliu/ubuntu-optee-rpi3/RPi3_OPTEE_3.1/optee_os/lib/libmpa/mpa_io.c:152
    a424:	5a87a4f6 	cneg	w22, w7, lt  // lt = tstop
    a428:	aa0003f5 	mov	x21, x0
/home/zliu/ubuntu-optee-rpi3/RPi3_OPTEE_3.1/optee_os/lib/libmpa/mpa_io.c:158
    a42c:	510006c0 	sub	w0, w22, #0x1
/home/zliu/ubuntu-optee-rpi3/RPi3_OPTEE_3.1/optee_os/lib/libmpa/mpa_io.c:164
    a430:	8b20c840 	add	x0, x2, w0, sxtw #2
/home/zliu/ubuntu-optee-rpi3/RPi3_OPTEE_3.1/optee_os/lib/libmpa/mpa_io.c:144
    a434:	a90363f7 	stp	x23, x24, [sp, #48]
    a438:	aa0203f8 	mov	x24, x2
    a43c:	2a0103f7 	mov	w23, w1
/home/zliu/ubuntu-optee-rpi3/RPi3_OPTEE_3.1/optee_os/lib/libmpa/mpa_io.c:164
    a440:	2a0103e2 	mov	w2, w1
/home/zliu/ubuntu-optee-rpi3/RPi3_OPTEE_3.1/optee_os/lib/libmpa/mpa_io.c:144
    a444:	a90153f3 	stp	x19, x20, [sp, #16]
/home/zliu/ubuntu-optee-rpi3/RPi3_OPTEE_3.1/optee_os/lib/libmpa/mpa_io.c:164
    a448:	b9400801 	ldr	w1, [x0, #8]
    a44c:	910123b4 	add	x20, x29, #0x48
    a450:	aa1403e0 	mov	x0, x20
    a454:	97ffffd8 	bl	a3b4 <__mpa_word_to_hexstr>
/home/zliu/ubuntu-optee-rpi3/RPi3_OPTEE_3.1/optee_os/lib/libmpa/mpa_io.c:168
    a458:	d28000e6 	mov	x6, #0x7                   	// #7
    a45c:	93407cc0 	sxtw	x0, w6
    a460:	b10004df 	cmn	x6, #0x1
    a464:	54000181 	b.ne	a494 <__mpa_mpanum_to_hexstr+0x9c>  // b.any
    a468:	aa1503f3 	mov	x19, x21
/home/zliu/ubuntu-optee-rpi3/RPi3_OPTEE_3.1/optee_os/lib/libmpa/mpa_io.c:175
    a46c:	51000ac7 	sub	w7, w22, #0x2
    a470:	93407cf6 	sxtw	x22, w7
/home/zliu/ubuntu-optee-rpi3/RPi3_OPTEE_3.1/optee_os/lib/libmpa/mpa_io.c:176
    a474:	36f802f6 	tbz	w22, #31, a4d0 <__mpa_mpanum_to_hexstr+0xd8>
/home/zliu/ubuntu-optee-rpi3/RPi3_OPTEE_3.1/optee_os/lib/libmpa/mpa_io.c:184
    a478:	3900027f 	strb	wzr, [x19]
/home/zliu/ubuntu-optee-rpi3/RPi3_OPTEE_3.1/optee_os/lib/libmpa/mpa_io.c:183
    a47c:	4b150260 	sub	w0, w19, w21
/home/zliu/ubuntu-optee-rpi3/RPi3_OPTEE_3.1/optee_os/lib/libmpa/mpa_io.c:186
    a480:	a94153f3 	ldp	x19, x20, [sp, #16]
    a484:	a9425bf5 	ldp	x21, x22, [sp, #32]
    a488:	a94363f7 	ldp	x23, x24, [sp, #48]
    a48c:	a8c57bfd 	ldp	x29, x30, [sp], #80
    a490:	d65f03c0 	ret
/home/zliu/ubuntu-optee-rpi3/RPi3_OPTEE_3.1/optee_os/lib/libmpa/mpa_io.c:169
    a494:	38666a82 	ldrb	w2, [x20, x6]
    a498:	d10004c1 	sub	x1, x6, #0x1
    a49c:	7100c05f 	cmp	w2, #0x30
    a4a0:	540000c0 	b.eq	a4b8 <__mpa_mpanum_to_hexstr+0xc0>  // b.none
    a4a4:	aa1503e1 	mov	x1, x21
/home/zliu/ubuntu-optee-rpi3/RPi3_OPTEE_3.1/optee_os/lib/libmpa/mpa_io.c:171
    a4a8:	36f800c0 	tbz	w0, #31, a4c0 <__mpa_mpanum_to_hexstr+0xc8>
    a4ac:	110004c6 	add	w6, w6, #0x1
    a4b0:	8b0602b3 	add	x19, x21, x6
    a4b4:	17ffffee 	b	a46c <__mpa_mpanum_to_hexstr+0x74>
    a4b8:	aa0103e6 	mov	x6, x1
    a4bc:	17ffffe8 	b	a45c <__mpa_mpanum_to_hexstr+0x64>
/home/zliu/ubuntu-optee-rpi3/RPi3_OPTEE_3.1/optee_os/lib/libmpa/mpa_io.c:172
    a4c0:	38606a82 	ldrb	w2, [x20, x0]
    a4c4:	d1000400 	sub	x0, x0, #0x1
    a4c8:	38001422 	strb	w2, [x1], #1
    a4cc:	17fffff7 	b	a4a8 <__mpa_mpanum_to_hexstr+0xb0>
/home/zliu/ubuntu-optee-rpi3/RPi3_OPTEE_3.1/optee_os/lib/libmpa/mpa_io.c:177
    a4d0:	8b160b00 	add	x0, x24, x22, lsl #2
    a4d4:	2a1703e2 	mov	w2, w23
    a4d8:	b9400801 	ldr	w1, [x0, #8]
    a4dc:	aa1403e0 	mov	x0, x20
    a4e0:	97ffffb5 	bl	a3b4 <__mpa_word_to_hexstr>
    a4e4:	d28000e0 	mov	x0, #0x7                   	// #7
/home/zliu/ubuntu-optee-rpi3/RPi3_OPTEE_3.1/optee_os/lib/libmpa/mpa_io.c:180
    a4e8:	cb000261 	sub	x1, x19, x0
    a4ec:	38606a82 	ldrb	w2, [x20, x0]
    a4f0:	d1000400 	sub	x0, x0, #0x1
/home/zliu/ubuntu-optee-rpi3/RPi3_OPTEE_3.1/optee_os/lib/libmpa/mpa_io.c:179
    a4f4:	b100041f 	cmn	x0, #0x1
/home/zliu/ubuntu-optee-rpi3/RPi3_OPTEE_3.1/optee_os/lib/libmpa/mpa_io.c:180
    a4f8:	39001c22 	strb	w2, [x1, #7]
/home/zliu/ubuntu-optee-rpi3/RPi3_OPTEE_3.1/optee_os/lib/libmpa/mpa_io.c:179
    a4fc:	54ffff61 	b.ne	a4e8 <__mpa_mpanum_to_hexstr+0xf0>  // b.any
    a500:	91002273 	add	x19, x19, #0x8
    a504:	d10006d6 	sub	x22, x22, #0x1
    a508:	17ffffdb 	b	a474 <__mpa_mpanum_to_hexstr+0x7c>

000000000000a50c <__mpa_isspace>:
__mpa_isspace():
/home/zliu/ubuntu-optee-rpi3/RPi3_OPTEE_3.1/optee_os/lib/libmpa/mpa_io.c:50
    a50c:	12001c02 	and	w2, w0, #0xff
/home/zliu/ubuntu-optee-rpi3/RPi3_OPTEE_3.1/optee_os/lib/libmpa/mpa_io.c:51
    a510:	71017c5f 	cmp	w2, #0x5f
    a514:	1a9f17e1 	cset	w1, eq  // eq = none
/home/zliu/ubuntu-optee-rpi3/RPi3_OPTEE_3.1/optee_os/lib/libmpa/mpa_io.c:53
    a518:	7100805f 	cmp	w2, #0x20
    a51c:	1a9f17e0 	cset	w0, eq  // eq = none
/home/zliu/ubuntu-optee-rpi3/RPi3_OPTEE_3.1/optee_os/lib/libmpa/mpa_io.c:51
    a520:	2a000020 	orr	w0, w1, w0
/home/zliu/ubuntu-optee-rpi3/RPi3_OPTEE_3.1/optee_os/lib/libmpa/mpa_io.c:55
    a524:	35000100 	cbnz	w0, a544 <__mpa_isspace+0x38>
    a528:	51002440 	sub	w0, w2, #0x9
    a52c:	12001c00 	and	w0, w0, #0xff
    a530:	7100041f 	cmp	w0, #0x1
    a534:	1a9f87e1 	cset	w1, ls  // ls = plast
    a538:	7100345f 	cmp	w2, #0xd
    a53c:	1a9f17e0 	cset	w0, eq  // eq = none
    a540:	2a000020 	orr	w0, w1, w0
/home/zliu/ubuntu-optee-rpi3/RPi3_OPTEE_3.1/optee_os/lib/libmpa/mpa_io.c:57 (discriminator 5)
    a544:	d65f03c0 	ret

000000000000a548 <mpa_get_str_size>:
mpa_get_str_size():
/home/zliu/ubuntu-optee-rpi3/RPi3_OPTEE_3.1/optee_os/lib/libmpa/mpa_io.c:238
    a548:	52820040 	mov	w0, #0x1002                	// #4098
    a54c:	d65f03c0 	ret

000000000000a550 <mpa_set_str>:
mpa_set_str():
/home/zliu/ubuntu-optee-rpi3/RPi3_OPTEE_3.1/optee_os/lib/libmpa/mpa_io.c:262
    a550:	a9bc7bfd 	stp	x29, x30, [sp, #-64]!
    a554:	910003fd 	mov	x29, sp
    a558:	a90153f3 	stp	x19, x20, [sp, #16]
    a55c:	aa0003f4 	mov	x20, x0
    a560:	a90363f7 	stp	x23, x24, [sp, #48]
    a564:	aa0103f8 	mov	x24, x1
    a568:	a9025bf5 	stp	x21, x22, [sp, #32]
/home/zliu/ubuntu-optee-rpi3/RPi3_OPTEE_3.1/optee_os/lib/libmpa/mpa_io.c:281
    a56c:	39400020 	ldrb	w0, [x1]
    a570:	35000080 	cbnz	w0, a580 <mpa_set_str+0x30>
/home/zliu/ubuntu-optee-rpi3/RPi3_OPTEE_3.1/optee_os/lib/libmpa/mpa_io.c:282
    a574:	52800013 	mov	w19, #0x0                   	// #0
    a578:	14000013 	b	a5c4 <mpa_set_str+0x74>
    a57c:	aa1703f8 	mov	x24, x23
/home/zliu/ubuntu-optee-rpi3/RPi3_OPTEE_3.1/optee_os/lib/libmpa/mpa_io.c:286 (discriminator 1)
    a580:	aa1803f7 	mov	x23, x24
    a584:	384016f5 	ldrb	w21, [x23], #1
/home/zliu/ubuntu-optee-rpi3/RPi3_OPTEE_3.1/optee_os/lib/libmpa/mpa_io.c:287 (discriminator 1)
    a588:	2a1503e0 	mov	w0, w21
    a58c:	97ffffe0 	bl	a50c <__mpa_isspace>
    a590:	2a0003f3 	mov	w19, w0
    a594:	35ffff40 	cbnz	w0, a57c <mpa_set_str+0x2c>
/home/zliu/ubuntu-optee-rpi3/RPi3_OPTEE_3.1/optee_os/lib/libmpa/mpa_io.c:286
    a598:	2a1503f6 	mov	w22, w21
/home/zliu/ubuntu-optee-rpi3/RPi3_OPTEE_3.1/optee_os/lib/libmpa/mpa_io.c:290
    a59c:	52800015 	mov	w21, #0x0                   	// #0
/home/zliu/ubuntu-optee-rpi3/RPi3_OPTEE_3.1/optee_os/lib/libmpa/mpa_io.c:291
    a5a0:	7100b6df 	cmp	w22, #0x2d
    a5a4:	54000081 	b.ne	a5b4 <mpa_set_str+0x64>  // b.any
/home/zliu/ubuntu-optee-rpi3/RPi3_OPTEE_3.1/optee_os/lib/libmpa/mpa_io.c:293
    a5a8:	394002f6 	ldrb	w22, [x23]
    a5ac:	91000b17 	add	x23, x24, #0x2
/home/zliu/ubuntu-optee-rpi3/RPi3_OPTEE_3.1/optee_os/lib/libmpa/mpa_io.c:292
    a5b0:	52800035 	mov	w21, #0x1                   	// #1
/home/zliu/ubuntu-optee-rpi3/RPi3_OPTEE_3.1/optee_os/lib/libmpa/mpa_io.c:295
    a5b4:	35000156 	cbnz	w22, a5dc <mpa_set_str+0x8c>
/home/zliu/ubuntu-optee-rpi3/RPi3_OPTEE_3.1/optee_os/lib/libmpa/mpa_io.c:296
    a5b8:	52800001 	mov	w1, #0x0                   	// #0
    a5bc:	aa1403e0 	mov	x0, x20
    a5c0:	97fff540 	bl	7ac0 <mpa_set_word>
/home/zliu/ubuntu-optee-rpi3/RPi3_OPTEE_3.1/optee_os/lib/libmpa/mpa_io.c:383
    a5c4:	2a1303e0 	mov	w0, w19
    a5c8:	a94153f3 	ldp	x19, x20, [sp, #16]
    a5cc:	a9425bf5 	ldp	x21, x22, [sp, #32]
    a5d0:	a94363f7 	ldp	x23, x24, [sp, #48]
    a5d4:	a8c47bfd 	ldp	x29, x30, [sp], #64
    a5d8:	d65f03c0 	ret
/home/zliu/ubuntu-optee-rpi3/RPi3_OPTEE_3.1/optee_os/lib/libmpa/mpa_io.c:301
    a5dc:	7100c2df 	cmp	w22, #0x30
    a5e0:	540000e1 	b.ne	a5fc <mpa_set_str+0xac>  // b.any
/home/zliu/ubuntu-optee-rpi3/RPi3_OPTEE_3.1/optee_os/lib/libmpa/mpa_io.c:302
    a5e4:	394002e3 	ldrb	w3, [x23]
/home/zliu/ubuntu-optee-rpi3/RPi3_OPTEE_3.1/optee_os/lib/libmpa/mpa_io.c:303
    a5e8:	121a7860 	and	w0, w3, #0xffffffdf
    a5ec:	7101601f 	cmp	w0, #0x58
    a5f0:	54000540 	b.eq	a698 <mpa_set_str+0x148>  // b.none
/home/zliu/ubuntu-optee-rpi3/RPi3_OPTEE_3.1/optee_os/lib/libmpa/mpa_io.c:302
    a5f4:	910006f7 	add	x23, x23, #0x1
    a5f8:	2a0303f6 	mov	w22, w3
/home/zliu/ubuntu-optee-rpi3/RPi3_OPTEE_3.1/optee_os/lib/libmpa/mpa_io.c:308
    a5fc:	7100c2df 	cmp	w22, #0x30
    a600:	54000520 	b.eq	a6a4 <mpa_set_str+0x154>  // b.none
/home/zliu/ubuntu-optee-rpi3/RPi3_OPTEE_3.1/optee_os/lib/libmpa/mpa_io.c:308 (discriminator 1)
    a604:	2a1603e0 	mov	w0, w22
    a608:	97ffffc1 	bl	a50c <__mpa_isspace>
    a60c:	350004c0 	cbnz	w0, a6a4 <mpa_set_str+0x154>
    a610:	aa1703e5 	mov	x5, x23
/home/zliu/ubuntu-optee-rpi3/RPi3_OPTEE_3.1/optee_os/lib/libmpa/mpa_io.c:312
    a614:	34fffd36 	cbz	w22, a5b8 <mpa_set_str+0x68>
/home/zliu/ubuntu-optee-rpi3/RPi3_OPTEE_3.1/optee_os/lib/libmpa/mpa_io.c:319
    a618:	394000a0 	ldrb	w0, [x5]
    a61c:	35000480 	cbnz	w0, a6ac <mpa_set_str+0x15c>
/home/zliu/ubuntu-optee-rpi3/RPi3_OPTEE_3.1/optee_os/lib/libmpa/mpa_io.c:323
    a620:	cb1700a5 	sub	x5, x5, x23
/home/zliu/ubuntu-optee-rpi3/RPi3_OPTEE_3.1/optee_os/lib/libmpa/mpa_io.c:324
    a624:	52820046 	mov	w6, #0x1002                	// #4098
/home/zliu/ubuntu-optee-rpi3/RPi3_OPTEE_3.1/optee_os/lib/libmpa/mpa_io.c:323
    a628:	110004a5 	add	w5, w5, #0x1
/home/zliu/ubuntu-optee-rpi3/RPi3_OPTEE_3.1/optee_os/lib/libmpa/mpa_io.c:324
    a62c:	6b0600bf 	cmp	w5, w6
    a630:	5400042c 	b.gt	a6b4 <mpa_set_str+0x164>
/home/zliu/ubuntu-optee-rpi3/RPi3_OPTEE_3.1/optee_os/lib/libmpa/mpa_io.c:334
    a634:	90000025 	adrp	x5, e000 <mempool_u32+0xe50>
    a638:	913500b8 	add	x24, x5, #0xd40
/home/zliu/ubuntu-optee-rpi3/RPi3_OPTEE_3.1/optee_os/lib/libmpa/mpa_io.c:324
    a63c:	52800013 	mov	w19, #0x0                   	// #0
__mpa_is_char_in_base():
/home/zliu/ubuntu-optee-rpi3/RPi3_OPTEE_3.1/optee_os/lib/libmpa/mpa_io.c:67
    a640:	2a1603e0 	mov	w0, w22
    a644:	97ffffb2 	bl	a50c <__mpa_isspace>
    a648:	350005c0 	cbnz	w0, a700 <mpa_set_str+0x1b0>
/home/zliu/ubuntu-optee-rpi3/RPi3_OPTEE_3.1/optee_os/lib/libmpa/mpa_io.c:75
    a64c:	121a7ac1 	and	w1, w22, #0xffffffdf
/home/zliu/ubuntu-optee-rpi3/RPi3_OPTEE_3.1/optee_os/lib/libmpa/mpa_io.c:74
    a650:	5100c2c0 	sub	w0, w22, #0x30
/home/zliu/ubuntu-optee-rpi3/RPi3_OPTEE_3.1/optee_os/lib/libmpa/mpa_io.c:75
    a654:	51010421 	sub	w1, w1, #0x41
    a658:	7100143f 	cmp	w1, #0x5
    a65c:	7a498800 	ccmp	w0, #0x9, #0x0, hi  // hi = pmore
    a660:	540003e9 	b.ls	a6dc <mpa_set_str+0x18c>  // b.plast
mpa_set_str():
/home/zliu/ubuntu-optee-rpi3/RPi3_OPTEE_3.1/optee_os/lib/libmpa/mpa_io.c:338
    a664:	34000393 	cbz	w19, a6d4 <mpa_set_str+0x184>
__mpa_digitstr_to_binary_wsize_base_16():
/home/zliu/ubuntu-optee-rpi3/RPi3_OPTEE_3.1/optee_os/lib/libmpa/mpa_io.c:108
    a668:	11001e65 	add	w5, w19, #0x7
mpa_set_str():
/home/zliu/ubuntu-optee-rpi3/RPi3_OPTEE_3.1/optee_os/lib/libmpa/mpa_io.c:343
    a66c:	b9400286 	ldr	w6, [x20]
__mpa_digitstr_to_binary_wsize_base_16():
/home/zliu/ubuntu-optee-rpi3/RPi3_OPTEE_3.1/optee_os/lib/libmpa/mpa_io.c:108
    a670:	13037ca0 	asr	w0, w5, #3
mpa_set_str():
/home/zliu/ubuntu-optee-rpi3/RPi3_OPTEE_3.1/optee_os/lib/libmpa/mpa_io.c:342
    a674:	6b06001f 	cmp	w0, w6
    a678:	54000529 	b.ls	a71c <mpa_set_str+0x1cc>  // b.plast
/home/zliu/ubuntu-optee-rpi3/RPi3_OPTEE_3.1/optee_os/lib/libmpa/mpa_io.c:344
    a67c:	d0000004 	adrp	x4, c000 <__func__.3927+0x294>
    a680:	2a0003e5 	mov	w5, w0
    a684:	91186484 	add	x4, x4, #0x619
    a688:	52800023 	mov	w3, #0x1                   	// #1
    a68c:	52800022 	mov	w2, #0x1                   	// #1
    a690:	52802b41 	mov	w1, #0x15a                 	// #346
    a694:	1400000d 	b	a6c8 <mpa_set_str+0x178>
/home/zliu/ubuntu-optee-rpi3/RPi3_OPTEE_3.1/optee_os/lib/libmpa/mpa_io.c:304
    a698:	394006f6 	ldrb	w22, [x23, #1]
    a69c:	91000af7 	add	x23, x23, #0x2
    a6a0:	17ffffd7 	b	a5fc <mpa_set_str+0xac>
/home/zliu/ubuntu-optee-rpi3/RPi3_OPTEE_3.1/optee_os/lib/libmpa/mpa_io.c:309
    a6a4:	384016f6 	ldrb	w22, [x23], #1
    a6a8:	17ffffd5 	b	a5fc <mpa_set_str+0xac>
/home/zliu/ubuntu-optee-rpi3/RPi3_OPTEE_3.1/optee_os/lib/libmpa/mpa_io.c:320
    a6ac:	910004a5 	add	x5, x5, #0x1
    a6b0:	17ffffda 	b	a618 <mpa_set_str+0xc8>
/home/zliu/ubuntu-optee-rpi3/RPi3_OPTEE_3.1/optee_os/lib/libmpa/mpa_io.c:325
    a6b4:	d0000004 	adrp	x4, c000 <__func__.3927+0x294>
    a6b8:	9117ec84 	add	x4, x4, #0x5fb
    a6bc:	52800023 	mov	w3, #0x1                   	// #1
    a6c0:	52800022 	mov	w2, #0x1                   	// #1
    a6c4:	528028a1 	mov	w1, #0x145                 	// #325
/home/zliu/ubuntu-optee-rpi3/RPi3_OPTEE_3.1/optee_os/lib/libmpa/mpa_io.c:344
    a6c8:	b0000000 	adrp	x0, b000 <PRIME_TABLE+0x88>
    a6cc:	9132c000 	add	x0, x0, #0xcb0
    a6d0:	97fff1f1 	bl	6e94 <trace_printf>
/home/zliu/ubuntu-optee-rpi3/RPi3_OPTEE_3.1/optee_os/lib/libmpa/mpa_io.c:347
    a6d4:	12800013 	mov	w19, #0xffffffff            	// #-1
/home/zliu/ubuntu-optee-rpi3/RPi3_OPTEE_3.1/optee_os/lib/libmpa/mpa_io.c:348
    a6d8:	17ffffbb 	b	a5c4 <mpa_set_str+0x74>
/home/zliu/ubuntu-optee-rpi3/RPi3_OPTEE_3.1/optee_os/lib/libmpa/mpa_io.c:334
    a6dc:	11000661 	add	w1, w19, #0x1
__mpa_digit_value():
/home/zliu/ubuntu-optee-rpi3/RPi3_OPTEE_3.1/optee_os/lib/libmpa/mpa_io.c:89
    a6e0:	7100241f 	cmp	w0, #0x9
    a6e4:	540000a9 	b.ls	a6f8 <mpa_set_str+0x1a8>  // b.plast
/home/zliu/ubuntu-optee-rpi3/RPi3_OPTEE_3.1/optee_os/lib/libmpa/mpa_io.c:91
    a6e8:	510106c0 	sub	w0, w22, #0x41
    a6ec:	7100141f 	cmp	w0, #0x5
    a6f0:	540000c8 	b.hi	a708 <mpa_set_str+0x1b8>  // b.pmore
/home/zliu/ubuntu-optee-rpi3/RPi3_OPTEE_3.1/optee_os/lib/libmpa/mpa_io.c:92
    a6f4:	5100dec0 	sub	w0, w22, #0x37
mpa_set_str():
/home/zliu/ubuntu-optee-rpi3/RPi3_OPTEE_3.1/optee_os/lib/libmpa/mpa_io.c:334
    a6f8:	3833cb00 	strb	w0, [x24, w19, sxtw]
    a6fc:	2a0103f3 	mov	w19, w1
/home/zliu/ubuntu-optee-rpi3/RPi3_OPTEE_3.1/optee_os/lib/libmpa/mpa_io.c:335
    a700:	384016f6 	ldrb	w22, [x23], #1
    a704:	17ffffcf 	b	a640 <mpa_set_str+0xf0>
__mpa_digit_value():
/home/zliu/ubuntu-optee-rpi3/RPi3_OPTEE_3.1/optee_os/lib/libmpa/mpa_io.c:93
    a708:	510186c0 	sub	w0, w22, #0x61
/home/zliu/ubuntu-optee-rpi3/RPi3_OPTEE_3.1/optee_os/lib/libmpa/mpa_io.c:94
    a70c:	51015ec3 	sub	w3, w22, #0x57
    a710:	7100141f 	cmp	w0, #0x5
    a714:	1a9f9060 	csel	w0, w3, wzr, ls  // ls = plast
    a718:	17fffff8 	b	a6f8 <mpa_set_str+0x1a8>
mpa_set_str():
/home/zliu/ubuntu-optee-rpi3/RPi3_OPTEE_3.1/optee_os/lib/libmpa/mpa_io.c:353
    a71c:	aa1403e0 	mov	x0, x20
    a720:	52800001 	mov	w1, #0x0                   	// #0
    a724:	97fff4e7 	bl	7ac0 <mpa_set_word>
/home/zliu/ubuntu-optee-rpi3/RPi3_OPTEE_3.1/optee_os/lib/libmpa/mpa_io.c:352
    a728:	91002296 	add	x22, x20, #0x8
/home/zliu/ubuntu-optee-rpi3/RPi3_OPTEE_3.1/optee_os/lib/libmpa/mpa_io.c:357
    a72c:	52800020 	mov	w0, #0x1                   	// #1
/home/zliu/ubuntu-optee-rpi3/RPi3_OPTEE_3.1/optee_os/lib/libmpa/mpa_io.c:358
    a730:	51000666 	sub	w6, w19, #0x1
    a734:	90000024 	adrp	x4, e000 <mempool_u32+0xe50>
/home/zliu/ubuntu-optee-rpi3/RPi3_OPTEE_3.1/optee_os/lib/libmpa/mpa_io.c:355
    a738:	2900fe80 	stp	w0, wzr, [x20, #4]
    a73c:	93407cc3 	sxtw	x3, w6
/home/zliu/ubuntu-optee-rpi3/RPi3_OPTEE_3.1/optee_os/lib/libmpa/mpa_io.c:356
    a740:	52800080 	mov	w0, #0x4                   	// #4
/home/zliu/ubuntu-optee-rpi3/RPi3_OPTEE_3.1/optee_os/lib/libmpa/mpa_io.c:360
    a744:	91350087 	add	x7, x4, #0xd40
/home/zliu/ubuntu-optee-rpi3/RPi3_OPTEE_3.1/optee_os/lib/libmpa/mpa_io.c:361
    a748:	2a0003e8 	mov	w8, w0
/home/zliu/ubuntu-optee-rpi3/RPi3_OPTEE_3.1/optee_os/lib/libmpa/mpa_io.c:359
    a74c:	7100047f 	cmp	w3, #0x1
    a750:	b94002c2 	ldr	w2, [x22]
    a754:	5400024c 	b.gt	a79c <mpa_set_str+0x24c>
/home/zliu/ubuntu-optee-rpi3/RPi3_OPTEE_3.1/optee_os/lib/libmpa/mpa_io.c:375
    a758:	39750081 	ldrb	w1, [x4, #3392]
/home/zliu/ubuntu-optee-rpi3/RPi3_OPTEE_3.1/optee_os/lib/libmpa/mpa_io.c:371
    a75c:	360000a6 	tbz	w6, #0, a770 <mpa_set_str+0x220>
/home/zliu/ubuntu-optee-rpi3/RPi3_OPTEE_3.1/optee_os/lib/libmpa/mpa_io.c:372
    a760:	91350083 	add	x3, x4, #0xd40
    a764:	39750081 	ldrb	w1, [x4, #3392]
    a768:	39400463 	ldrb	w3, [x3, #1]
    a76c:	4a011061 	eor	w1, w3, w1, lsl #4
/home/zliu/ubuntu-optee-rpi3/RPi3_OPTEE_3.1/optee_os/lib/libmpa/mpa_io.c:373
    a770:	52800083 	mov	w3, #0x4                   	// #4
    a774:	4b000060 	sub	w0, w3, w0
    a778:	531d7000 	lsl	w0, w0, #3
/home/zliu/ubuntu-optee-rpi3/RPi3_OPTEE_3.1/optee_os/lib/libmpa/mpa_io.c:372
    a77c:	1ac02020 	lsl	w0, w1, w0
    a780:	4a000040 	eor	w0, w2, w0
    a784:	b90002c0 	str	w0, [x22]
/home/zliu/ubuntu-optee-rpi3/RPi3_OPTEE_3.1/optee_os/lib/libmpa/mpa_io.c:378
    a788:	34fff1f5 	cbz	w21, a5c4 <mpa_set_str+0x74>
/home/zliu/ubuntu-optee-rpi3/RPi3_OPTEE_3.1/optee_os/lib/libmpa/mpa_io.c:379
    a78c:	b9400680 	ldr	w0, [x20, #4]
    a790:	4b0003e0 	neg	w0, w0
    a794:	b9000680 	str	w0, [x20, #4]
    a798:	17ffff8b 	b	a5c4 <mpa_set_str+0x74>
/home/zliu/ubuntu-optee-rpi3/RPi3_OPTEE_3.1/optee_os/lib/libmpa/mpa_io.c:360
    a79c:	8b0300e1 	add	x1, x7, x3
    a7a0:	38676865 	ldrb	w5, [x3, x7]
    a7a4:	385ff021 	ldurb	w1, [x1, #-1]
    a7a8:	4a0110a1 	eor	w1, w5, w1, lsl #4
/home/zliu/ubuntu-optee-rpi3/RPi3_OPTEE_3.1/optee_os/lib/libmpa/mpa_io.c:361
    a7ac:	4b000105 	sub	w5, w8, w0
    a7b0:	531d70a5 	lsl	w5, w5, #3
/home/zliu/ubuntu-optee-rpi3/RPi3_OPTEE_3.1/optee_os/lib/libmpa/mpa_io.c:364
    a7b4:	71000400 	subs	w0, w0, #0x1
/home/zliu/ubuntu-optee-rpi3/RPi3_OPTEE_3.1/optee_os/lib/libmpa/mpa_io.c:360
    a7b8:	1ac52021 	lsl	w1, w1, w5
    a7bc:	4a010041 	eor	w1, w2, w1
    a7c0:	b90002c1 	str	w1, [x22]
/home/zliu/ubuntu-optee-rpi3/RPi3_OPTEE_3.1/optee_os/lib/libmpa/mpa_io.c:364
    a7c4:	540000e1 	b.ne	a7e0 <mpa_set_str+0x290>  // b.any
/home/zliu/ubuntu-optee-rpi3/RPi3_OPTEE_3.1/optee_os/lib/libmpa/mpa_io.c:366
    a7c8:	b90006df 	str	wzr, [x22, #4]
/home/zliu/ubuntu-optee-rpi3/RPi3_OPTEE_3.1/optee_os/lib/libmpa/mpa_io.c:365
    a7cc:	910012d6 	add	x22, x22, #0x4
/home/zliu/ubuntu-optee-rpi3/RPi3_OPTEE_3.1/optee_os/lib/libmpa/mpa_io.c:368
    a7d0:	b9400680 	ldr	w0, [x20, #4]
    a7d4:	11000400 	add	w0, w0, #0x1
    a7d8:	b9000680 	str	w0, [x20, #4]
/home/zliu/ubuntu-optee-rpi3/RPi3_OPTEE_3.1/optee_os/lib/libmpa/mpa_io.c:367
    a7dc:	52800080 	mov	w0, #0x4                   	// #4
    a7e0:	d1000863 	sub	x3, x3, #0x2
    a7e4:	17ffffda 	b	a74c <mpa_set_str+0x1fc>

000000000000a7e8 <mpa_get_str>:
mpa_get_str():
/home/zliu/ubuntu-optee-rpi3/RPi3_OPTEE_3.1/optee_os/lib/libmpa/mpa_io.c:399
    a7e8:	a9be7bfd 	stp	x29, x30, [sp, #-32]!
    a7ec:	910003fd 	mov	x29, sp
    a7f0:	f9000bf3 	str	x19, [sp, #16]
/home/zliu/ubuntu-optee-rpi3/RPi3_OPTEE_3.1/optee_os/lib/libmpa/mpa_io.c:402
    a7f4:	b5000160 	cbnz	x0, a820 <mpa_get_str+0x38>
/home/zliu/ubuntu-optee-rpi3/RPi3_OPTEE_3.1/optee_os/lib/libmpa/mpa_io.c:402 (discriminator 1)
    a7f8:	b0000003 	adrp	x3, b000 <PRIME_TABLE+0x88>
    a7fc:	9132c063 	add	x3, x3, #0xcb0
    a800:	91004063 	add	x3, x3, #0x10
    a804:	d0000001 	adrp	x1, c000 <__func__.3927+0x294>
    a808:	d0000000 	adrp	x0, c000 <__func__.3927+0x294>
    a80c:	91190821 	add	x1, x1, #0x642
    a810:	91195800 	add	x0, x0, #0x656
    a814:	52803242 	mov	w2, #0x192                 	// #402
    a818:	97ffe7ba 	bl	4700 <_assert_log>
    a81c:	97ffe7ca 	bl	4744 <_assert_break>
/home/zliu/ubuntu-optee-rpi3/RPi3_OPTEE_3.1/optee_os/lib/libmpa/mpa_io.c:405
    a820:	b9400443 	ldr	w3, [x2, #4]
    a824:	aa0003f3 	mov	x19, x0
    a828:	36f80063 	tbz	w3, #31, a834 <mpa_get_str+0x4c>
/home/zliu/ubuntu-optee-rpi3/RPi3_OPTEE_3.1/optee_os/lib/libmpa/mpa_io.c:406
    a82c:	528005a3 	mov	w3, #0x2d                  	// #45
    a830:	38001403 	strb	w3, [x0], #1
/home/zliu/ubuntu-optee-rpi3/RPi3_OPTEE_3.1/optee_os/lib/libmpa/mpa_io.c:409
    a834:	7100403f 	cmp	w1, #0x10
    a838:	540000a0 	b.eq	a84c <mpa_get_str+0x64>  // b.none
    a83c:	7100443f 	cmp	w1, #0x11
    a840:	54000120 	b.eq	a864 <mpa_get_str+0x7c>  // b.none
/home/zliu/ubuntu-optee-rpi3/RPi3_OPTEE_3.1/optee_os/lib/libmpa/mpa_io.c:417
    a844:	d2800013 	mov	x19, #0x0                   	// #0
    a848:	14000003 	b	a854 <mpa_get_str+0x6c>
/home/zliu/ubuntu-optee-rpi3/RPi3_OPTEE_3.1/optee_os/lib/libmpa/mpa_io.c:411
    a84c:	52800001 	mov	w1, #0x0                   	// #0
/home/zliu/ubuntu-optee-rpi3/RPi3_OPTEE_3.1/optee_os/lib/libmpa/mpa_io.c:414
    a850:	97fffeea 	bl	a3f8 <__mpa_mpanum_to_hexstr>
/home/zliu/ubuntu-optee-rpi3/RPi3_OPTEE_3.1/optee_os/lib/libmpa/mpa_io.c:421
    a854:	aa1303e0 	mov	x0, x19
    a858:	f9400bf3 	ldr	x19, [sp, #16]
    a85c:	a8c27bfd 	ldp	x29, x30, [sp], #32
    a860:	d65f03c0 	ret
/home/zliu/ubuntu-optee-rpi3/RPi3_OPTEE_3.1/optee_os/lib/libmpa/mpa_io.c:414
    a864:	52800021 	mov	w1, #0x1                   	// #1
    a868:	17fffffa 	b	a850 <mpa_get_str+0x68>

000000000000a86c <mpa_set_oct_str>:
mpa_set_oct_str():
/home/zliu/ubuntu-optee-rpi3/RPi3_OPTEE_3.1/optee_os/lib/libmpa/mpa_io.c:438
    a86c:	a9bc7bfd 	stp	x29, x30, [sp, #-64]!
    a870:	910003fd 	mov	x29, sp
    a874:	a90153f3 	stp	x19, x20, [sp, #16]
    a878:	aa0003f4 	mov	x20, x0
    a87c:	a9025bf5 	stp	x21, x22, [sp, #32]
/home/zliu/ubuntu-optee-rpi3/RPi3_OPTEE_3.1/optee_os/lib/libmpa/mpa_io.c:440
    a880:	2a0203f3 	mov	w19, w2
/home/zliu/ubuntu-optee-rpi3/RPi3_OPTEE_3.1/optee_os/lib/libmpa/mpa_io.c:438
    a884:	f9001bf7 	str	x23, [sp, #48]
    a888:	aa0103f5 	mov	x21, x1
    a88c:	12001c77 	and	w23, w3, #0xff
/home/zliu/ubuntu-optee-rpi3/RPi3_OPTEE_3.1/optee_os/lib/libmpa/mpa_io.c:444
    a890:	7100027f 	cmp	w19, #0x0
    a894:	5400016c 	b.gt	a8c0 <mpa_set_oct_str+0x54>
/home/zliu/ubuntu-optee-rpi3/RPi3_OPTEE_3.1/optee_os/lib/libmpa/mpa_io.c:451
    a898:	540001e1 	b.ne	a8d4 <mpa_set_oct_str+0x68>  // b.any
/home/zliu/ubuntu-optee-rpi3/RPi3_OPTEE_3.1/optee_os/lib/libmpa/mpa_io.c:452
    a89c:	52800001 	mov	w1, #0x0                   	// #0
    a8a0:	aa1403e0 	mov	x0, x20
    a8a4:	97fff487 	bl	7ac0 <mpa_set_word>
/home/zliu/ubuntu-optee-rpi3/RPi3_OPTEE_3.1/optee_os/lib/libmpa/mpa_io.c:481
    a8a8:	2a1303e0 	mov	w0, w19
    a8ac:	f9401bf7 	ldr	x23, [sp, #48]
    a8b0:	a94153f3 	ldp	x19, x20, [sp, #16]
    a8b4:	a9425bf5 	ldp	x21, x22, [sp, #32]
    a8b8:	a8c47bfd 	ldp	x29, x30, [sp], #64
    a8bc:	d65f03c0 	ret
/home/zliu/ubuntu-optee-rpi3/RPi3_OPTEE_3.1/optee_os/lib/libmpa/mpa_io.c:445
    a8c0:	394002a0 	ldrb	w0, [x21]
    a8c4:	35000080 	cbnz	w0, a8d4 <mpa_set_oct_str+0x68>
/home/zliu/ubuntu-optee-rpi3/RPi3_OPTEE_3.1/optee_os/lib/libmpa/mpa_io.c:447
    a8c8:	51000673 	sub	w19, w19, #0x1
/home/zliu/ubuntu-optee-rpi3/RPi3_OPTEE_3.1/optee_os/lib/libmpa/mpa_io.c:448
    a8cc:	910006b5 	add	x21, x21, #0x1
    a8d0:	17fffff0 	b	a890 <mpa_set_oct_str+0x24>
/home/zliu/ubuntu-optee-rpi3/RPi3_OPTEE_3.1/optee_os/lib/libmpa/mpa_io.c:461
    a8d4:	b9400280 	ldr	w0, [x20]
    a8d8:	51000661 	sub	w1, w19, #0x1
    a8dc:	d37e7400 	ubfiz	x0, x0, #2, #30
    a8e0:	eb21c01f 	cmp	x0, w1, sxtw
    a8e4:	54000483 	b.cc	a974 <mpa_set_oct_str+0x108>  // b.lo, b.ul, b.last
/home/zliu/ubuntu-optee-rpi3/RPi3_OPTEE_3.1/optee_os/lib/libmpa/mpa_io.c:465
    a8e8:	52800001 	mov	w1, #0x0                   	// #0
    a8ec:	aa1403e0 	mov	x0, x20
/home/zliu/ubuntu-optee-rpi3/RPi3_OPTEE_3.1/optee_os/lib/libmpa/mpa_io.c:464
    a8f0:	91002296 	add	x22, x20, #0x8
/home/zliu/ubuntu-optee-rpi3/RPi3_OPTEE_3.1/optee_os/lib/libmpa/mpa_io.c:465
    a8f4:	97fff473 	bl	7ac0 <mpa_set_word>
/home/zliu/ubuntu-optee-rpi3/RPi3_OPTEE_3.1/optee_os/lib/libmpa/mpa_io.c:469
    a8f8:	52800083 	mov	w3, #0x4                   	// #4
    a8fc:	12bc0005 	mov	w5, #0x1fffffff            	// #536870911
/home/zliu/ubuntu-optee-rpi3/RPi3_OPTEE_3.1/optee_os/lib/libmpa/mpa_io.c:467
    a900:	b900069f 	str	wzr, [x20, #4]
/home/zliu/ubuntu-optee-rpi3/RPi3_OPTEE_3.1/optee_os/lib/libmpa/mpa_io.c:468
    a904:	7100027f 	cmp	w19, #0x0
    a908:	540000ec 	b.gt	a924 <mpa_set_oct_str+0xb8>
/home/zliu/ubuntu-optee-rpi3/RPi3_OPTEE_3.1/optee_os/lib/libmpa/mpa_io.c:480
    a90c:	52800013 	mov	w19, #0x0                   	// #0
/home/zliu/ubuntu-optee-rpi3/RPi3_OPTEE_3.1/optee_os/lib/libmpa/mpa_io.c:477
    a910:	34fffcd7 	cbz	w23, a8a8 <mpa_set_oct_str+0x3c>
/home/zliu/ubuntu-optee-rpi3/RPi3_OPTEE_3.1/optee_os/lib/libmpa/mpa_io.c:478
    a914:	b9400680 	ldr	w0, [x20, #4]
    a918:	4b0003e0 	neg	w0, w0
    a91c:	b9000680 	str	w0, [x20, #4]
    a920:	17ffffe2 	b	a8a8 <mpa_set_oct_str+0x3c>
/home/zliu/ubuntu-optee-rpi3/RPi3_OPTEE_3.1/optee_os/lib/libmpa/mpa_io.c:469
    a924:	7100127f 	cmp	w19, #0x4
    a928:	110004a1 	add	w1, w5, #0x1
    a92c:	1a83d260 	csel	w0, w19, w3, le
    a930:	531d7021 	lsl	w1, w1, #3
/home/zliu/ubuntu-optee-rpi3/RPi3_OPTEE_3.1/optee_os/lib/libmpa/mpa_io.c:471
    a934:	4b000273 	sub	w19, w19, w0
    a938:	51000400 	sub	w0, w0, #0x1
set_word():
/home/zliu/ubuntu-optee-rpi3/RPi3_OPTEE_3.1/optee_os/lib/libmpa/mpa_io.c:432
    a93c:	8b33c2a6 	add	x6, x21, w19, sxtw
/home/zliu/ubuntu-optee-rpi3/RPi3_OPTEE_3.1/optee_os/lib/libmpa/mpa_io.c:430
    a940:	52800002 	mov	w2, #0x0                   	// #0
/home/zliu/ubuntu-optee-rpi3/RPi3_OPTEE_3.1/optee_os/lib/libmpa/mpa_io.c:432
    a944:	386068c4 	ldrb	w4, [x6, x0]
    a948:	d1000400 	sub	x0, x0, #0x1
/home/zliu/ubuntu-optee-rpi3/RPi3_OPTEE_3.1/optee_os/lib/libmpa/mpa_io.c:431
    a94c:	3100041f 	cmn	w0, #0x1
/home/zliu/ubuntu-optee-rpi3/RPi3_OPTEE_3.1/optee_os/lib/libmpa/mpa_io.c:432
    a950:	1ac12084 	lsl	w4, w4, w1
    a954:	11002021 	add	w1, w1, #0x8
    a958:	2a040042 	orr	w2, w2, w4
/home/zliu/ubuntu-optee-rpi3/RPi3_OPTEE_3.1/optee_os/lib/libmpa/mpa_io.c:431
    a95c:	54ffff41 	b.ne	a944 <mpa_set_oct_str+0xd8>  // b.any
mpa_set_oct_str():
/home/zliu/ubuntu-optee-rpi3/RPi3_OPTEE_3.1/optee_os/lib/libmpa/mpa_io.c:472
    a960:	b80046c2 	str	w2, [x22], #4
/home/zliu/ubuntu-optee-rpi3/RPi3_OPTEE_3.1/optee_os/lib/libmpa/mpa_io.c:474
    a964:	b9400680 	ldr	w0, [x20, #4]
    a968:	11000400 	add	w0, w0, #0x1
    a96c:	b9000680 	str	w0, [x20, #4]
    a970:	17ffffe5 	b	a904 <mpa_set_oct_str+0x98>
/home/zliu/ubuntu-optee-rpi3/RPi3_OPTEE_3.1/optee_os/lib/libmpa/mpa_io.c:462
    a974:	12800013 	mov	w19, #0xffffffff            	// #-1
    a978:	17ffffcc 	b	a8a8 <mpa_set_oct_str+0x3c>

000000000000a97c <mpa_get_oct_str>:
mpa_get_oct_str():
/home/zliu/ubuntu-optee-rpi3/RPi3_OPTEE_3.1/optee_os/lib/libmpa/mpa_io.c:494
    a97c:	a9bb7bfd 	stp	x29, x30, [sp, #-80]!
    a980:	52800024 	mov	w4, #0x1                   	// #1
    a984:	910003fd 	mov	x29, sp
    a988:	a90153f3 	stp	x19, x20, [sp, #16]
__mpa_size_in_base_255():
/home/zliu/ubuntu-optee-rpi3/RPi3_OPTEE_3.1/optee_os/lib/libmpa/mpa_io.c:220
    a98c:	b9400443 	ldr	w3, [x2, #4]
mpa_get_oct_str():
/home/zliu/ubuntu-optee-rpi3/RPi3_OPTEE_3.1/optee_os/lib/libmpa/mpa_io.c:494
    a990:	a9025bf5 	stp	x21, x22, [sp, #32]
    a994:	f9001bf7 	str	x23, [sp, #48]
__mpa_size_in_base_255():
/home/zliu/ubuntu-optee-rpi3/RPi3_OPTEE_3.1/optee_os/lib/libmpa/mpa_io.c:220
    a998:	7100007f 	cmp	w3, #0x0
    a99c:	540001e0 	b.eq	a9d8 <mpa_get_oct_str+0x5c>  // b.none
/home/zliu/ubuntu-optee-rpi3/RPi3_OPTEE_3.1/optee_os/lib/libmpa/mpa_io.c:224
    a9a0:	5a83a464 	cneg	w4, w3, lt  // lt = tstop
    a9a4:	51000485 	sub	w5, w4, #0x1
/home/zliu/ubuntu-optee-rpi3/RPi3_OPTEE_3.1/optee_os/lib/libmpa/mpa_io.c:223
    a9a8:	8b25c845 	add	x5, x2, w5, sxtw #2
    a9ac:	b94008a7 	ldr	w7, [x5, #8]
__mpa_count_leading_zero_bits():
/home/zliu/ubuntu-optee-rpi3/RPi3_OPTEE_3.1/optee_os/lib/libmpa/mpa_io.c:199
    a9b0:	52800405 	mov	w5, #0x20                  	// #32
/home/zliu/ubuntu-optee-rpi3/RPi3_OPTEE_3.1/optee_os/lib/libmpa/mpa_io.c:198
    a9b4:	340000a7 	cbz	w7, a9c8 <mpa_get_oct_str+0x4c>
    a9b8:	52800005 	mov	w5, #0x0                   	// #0
    a9bc:	52b00006 	mov	w6, #0x80000000            	// #-2147483648
/home/zliu/ubuntu-optee-rpi3/RPi3_OPTEE_3.1/optee_os/lib/libmpa/mpa_io.c:202
    a9c0:	6a0600ff 	tst	w7, w6
    a9c4:	54000180 	b.eq	a9f4 <mpa_get_oct_str+0x78>  // b.none
__mpa_size_in_base_255():
/home/zliu/ubuntu-optee-rpi3/RPi3_OPTEE_3.1/optee_os/lib/libmpa/mpa_io.c:225
    a9c8:	531b6893 	lsl	w19, w4, #5
/home/zliu/ubuntu-optee-rpi3/RPi3_OPTEE_3.1/optee_os/lib/libmpa/mpa_io.c:227
    a9cc:	11001e73 	add	w19, w19, #0x7
    a9d0:	4b050273 	sub	w19, w19, w5
    a9d4:	53037e64 	lsr	w4, w19, #3
mpa_get_oct_str():
/home/zliu/ubuntu-optee-rpi3/RPi3_OPTEE_3.1/optee_os/lib/libmpa/mpa_io.c:501
    a9d8:	f9400025 	ldr	x5, [x1]
/home/zliu/ubuntu-optee-rpi3/RPi3_OPTEE_3.1/optee_os/lib/libmpa/mpa_io.c:495
    a9dc:	2a0403f3 	mov	w19, w4
/home/zliu/ubuntu-optee-rpi3/RPi3_OPTEE_3.1/optee_os/lib/libmpa/mpa_io.c:501
    a9e0:	eb05027f 	cmp	x19, x5
    a9e4:	540000e9 	b.ls	aa00 <mpa_get_oct_str+0x84>  // b.plast
/home/zliu/ubuntu-optee-rpi3/RPi3_OPTEE_3.1/optee_os/lib/libmpa/mpa_io.c:502
    a9e8:	f9000033 	str	x19, [x1]
/home/zliu/ubuntu-optee-rpi3/RPi3_OPTEE_3.1/optee_os/lib/libmpa/mpa_io.c:527
    a9ec:	12800000 	mov	w0, #0xffffffff            	// #-1
    a9f0:	1400000e 	b	aa28 <mpa_get_oct_str+0xac>
__mpa_count_leading_zero_bits():
/home/zliu/ubuntu-optee-rpi3/RPi3_OPTEE_3.1/optee_os/lib/libmpa/mpa_io.c:203
    a9f4:	110004a5 	add	w5, w5, #0x1
/home/zliu/ubuntu-optee-rpi3/RPi3_OPTEE_3.1/optee_os/lib/libmpa/mpa_io.c:204
    a9f8:	53017cc6 	lsr	w6, w6, #1
    a9fc:	17fffff1 	b	a9c0 <mpa_get_oct_str+0x44>
    aa00:	aa0203f7 	mov	x23, x2
    aa04:	aa0103f6 	mov	x22, x1
    aa08:	aa0003e4 	mov	x4, x0
mpa_get_oct_str():
/home/zliu/ubuntu-optee-rpi3/RPi3_OPTEE_3.1/optee_os/lib/libmpa/mpa_io.c:507
    aa0c:	7100007f 	cmp	w3, #0x0
    aa10:	54000161 	b.ne	aa3c <mpa_get_oct_str+0xc0>  // b.any
/home/zliu/ubuntu-optee-rpi3/RPi3_OPTEE_3.1/optee_os/lib/libmpa/mpa_io.c:508
    aa14:	aa0503e2 	mov	x2, x5
    aa18:	52800001 	mov	w1, #0x0                   	// #0
    aa1c:	97ffedd7 	bl	6178 <memset>
/home/zliu/ubuntu-optee-rpi3/RPi3_OPTEE_3.1/optee_os/lib/libmpa/mpa_io.c:536
    aa20:	52800000 	mov	w0, #0x0                   	// #0
/home/zliu/ubuntu-optee-rpi3/RPi3_OPTEE_3.1/optee_os/lib/libmpa/mpa_io.c:535
    aa24:	f90002d3 	str	x19, [x22]
/home/zliu/ubuntu-optee-rpi3/RPi3_OPTEE_3.1/optee_os/lib/libmpa/mpa_io.c:537
    aa28:	a94153f3 	ldp	x19, x20, [sp, #16]
    aa2c:	a9425bf5 	ldp	x21, x22, [sp, #32]
    aa30:	f9401bf7 	ldr	x23, [sp, #48]
    aa34:	a8c57bfd 	ldp	x29, x30, [sp], #80
    aa38:	d65f03c0 	ret
/home/zliu/ubuntu-optee-rpi3/RPi3_OPTEE_3.1/optee_os/lib/libmpa/mpa_io.c:506
    aa3c:	5a83a474 	cneg	w20, w3, lt  // lt = tstop
/home/zliu/ubuntu-optee-rpi3/RPi3_OPTEE_3.1/optee_os/lib/libmpa/mpa_io.c:511
    aa40:	51000680 	sub	w0, w20, #0x1
/home/zliu/ubuntu-optee-rpi3/RPi3_OPTEE_3.1/optee_os/lib/libmpa/mpa_io.c:514
    aa44:	8b20c840 	add	x0, x2, w0, sxtw #2
    aa48:	b9400801 	ldr	w1, [x0, #8]
get_word():
/home/zliu/ubuntu-optee-rpi3/RPi3_OPTEE_3.1/optee_os/lib/libmpa/mpa_io.c:488
    aa4c:	39012fa1 	strb	w1, [x29, #75]
/home/zliu/ubuntu-optee-rpi3/RPi3_OPTEE_3.1/optee_os/lib/libmpa/mpa_io.c:489
    aa50:	53087c20 	lsr	w0, w1, #8
    aa54:	53187c23 	lsr	w3, w1, #24
/home/zliu/ubuntu-optee-rpi3/RPi3_OPTEE_3.1/optee_os/lib/libmpa/mpa_io.c:488
    aa58:	39012ba0 	strb	w0, [x29, #74]
/home/zliu/ubuntu-optee-rpi3/RPi3_OPTEE_3.1/optee_os/lib/libmpa/mpa_io.c:489
    aa5c:	53107c20 	lsr	w0, w1, #16
/home/zliu/ubuntu-optee-rpi3/RPi3_OPTEE_3.1/optee_os/lib/libmpa/mpa_io.c:488
    aa60:	910143a1 	add	x1, x29, #0x50
    aa64:	390127a0 	strb	w0, [x29, #73]
    aa68:	d2800000 	mov	x0, #0x0                   	// #0
    aa6c:	381f8c23 	strb	w3, [x1, #-8]!
mpa_get_oct_str():
/home/zliu/ubuntu-optee-rpi3/RPi3_OPTEE_3.1/optee_os/lib/libmpa/mpa_io.c:517
    aa70:	38616802 	ldrb	w2, [x0, x1]
    aa74:	34000342 	cbz	w2, aadc <mpa_get_oct_str+0x160>
/home/zliu/ubuntu-optee-rpi3/RPi3_OPTEE_3.1/optee_os/lib/libmpa/mpa_io.c:518
    aa78:	52800095 	mov	w21, #0x4                   	// #4
    aa7c:	4b0002b5 	sub	w21, w21, w0
    aa80:	93407eb5 	sxtw	x21, w21
    aa84:	8b20c021 	add	x1, x1, w0, sxtw
    aa88:	aa1503e2 	mov	x2, x21
    aa8c:	aa0403e0 	mov	x0, x4
    aa90:	97ffed9f 	bl	610c <memcpy>
    aa94:	aa0003e4 	mov	x4, x0
/home/zliu/ubuntu-optee-rpi3/RPi3_OPTEE_3.1/optee_os/lib/libmpa/mpa_io.c:523
    aa98:	51000a83 	sub	w3, w20, #0x2
    aa9c:	93407c63 	sxtw	x3, w3
/home/zliu/ubuntu-optee-rpi3/RPi3_OPTEE_3.1/optee_os/lib/libmpa/mpa_io.c:525
    aaa0:	37fffc03 	tbnz	w3, #31, aa20 <mpa_get_oct_str+0xa4>
/home/zliu/ubuntu-optee-rpi3/RPi3_OPTEE_3.1/optee_os/lib/libmpa/mpa_io.c:526
    aaa4:	eb1302bf 	cmp	x21, x19
    aaa8:	54fffa28 	b.hi	a9ec <mpa_get_oct_str+0x70>  // b.pmore
/home/zliu/ubuntu-optee-rpi3/RPi3_OPTEE_3.1/optee_os/lib/libmpa/mpa_io.c:528
    aaac:	8b030ae0 	add	x0, x23, x3, lsl #2
get_word():
/home/zliu/ubuntu-optee-rpi3/RPi3_OPTEE_3.1/optee_os/lib/libmpa/mpa_io.c:488
    aab0:	8b150082 	add	x2, x4, x21
mpa_get_oct_str():
/home/zliu/ubuntu-optee-rpi3/RPi3_OPTEE_3.1/optee_os/lib/libmpa/mpa_io.c:528
    aab4:	b9400801 	ldr	w1, [x0, #8]
    aab8:	d2800060 	mov	x0, #0x3                   	// #3
get_word():
/home/zliu/ubuntu-optee-rpi3/RPi3_OPTEE_3.1/optee_os/lib/libmpa/mpa_io.c:488
    aabc:	38206841 	strb	w1, [x2, x0]
    aac0:	d1000400 	sub	x0, x0, #0x1
/home/zliu/ubuntu-optee-rpi3/RPi3_OPTEE_3.1/optee_os/lib/libmpa/mpa_io.c:489
    aac4:	53087c21 	lsr	w1, w1, #8
/home/zliu/ubuntu-optee-rpi3/RPi3_OPTEE_3.1/optee_os/lib/libmpa/mpa_io.c:487
    aac8:	b100041f 	cmn	x0, #0x1
    aacc:	54ffff81 	b.ne	aabc <mpa_get_oct_str+0x140>  // b.any
mpa_get_oct_str():
/home/zliu/ubuntu-optee-rpi3/RPi3_OPTEE_3.1/optee_os/lib/libmpa/mpa_io.c:530
    aad0:	910012b5 	add	x21, x21, #0x4
    aad4:	d1000463 	sub	x3, x3, #0x1
    aad8:	17fffff2 	b	aaa0 <mpa_get_oct_str+0x124>
    aadc:	91000400 	add	x0, x0, #0x1
/home/zliu/ubuntu-optee-rpi3/RPi3_OPTEE_3.1/optee_os/lib/libmpa/mpa_io.c:516 (discriminator 2)
    aae0:	f100101f 	cmp	x0, #0x4
    aae4:	54fffc61 	b.ne	aa70 <mpa_get_oct_str+0xf4>  // b.any
/home/zliu/ubuntu-optee-rpi3/RPi3_OPTEE_3.1/optee_os/lib/libmpa/mpa_io.c:497
    aae8:	d2800015 	mov	x21, #0x0                   	// #0
    aaec:	17ffffeb 	b	aa98 <mpa_get_oct_str+0x11c>

000000000000aaf0 <mpa_mod>:
mpa_mod():
/home/zliu/ubuntu-optee-rpi3/RPi3_OPTEE_3.1/optee_os/lib/libmpa/mpa_modulus.c:43
    aaf0:	aa0303e4 	mov	x4, x3
    aaf4:	aa0203e3 	mov	x3, x2
    aaf8:	aa0103e2 	mov	x2, x1
    aafc:	aa0003e1 	mov	x1, x0
    ab00:	d2800000 	mov	x0, #0x0                   	// #0
    ab04:	17fff602 	b	830c <mpa_div>

000000000000ab08 <mpa_add_mod>:
mpa_add_mod():
/home/zliu/ubuntu-optee-rpi3/RPi3_OPTEE_3.1/optee_os/lib/libmpa/mpa_modulus.c:54
    ab08:	a9bb7bfd 	stp	x29, x30, [sp, #-80]!
    ab0c:	910003fd 	mov	x29, sp
    ab10:	a90153f3 	stp	x19, x20, [sp, #16]
/home/zliu/ubuntu-optee-rpi3/RPi3_OPTEE_3.1/optee_os/lib/libmpa/mpa_modulus.c:57
    ab14:	910123b3 	add	x19, x29, #0x48
/home/zliu/ubuntu-optee-rpi3/RPi3_OPTEE_3.1/optee_os/lib/libmpa/mpa_modulus.c:54
    ab18:	aa0403f4 	mov	x20, x4
    ab1c:	a9025bf5 	stp	x21, x22, [sp, #32]
    ab20:	a90363f7 	stp	x23, x24, [sp, #48]
    ab24:	aa0303f6 	mov	x22, x3
    ab28:	aa0003f5 	mov	x21, x0
    ab2c:	aa0103f7 	mov	x23, x1
    ab30:	aa0203f8 	mov	x24, x2
/home/zliu/ubuntu-optee-rpi3/RPi3_OPTEE_3.1/optee_os/lib/libmpa/mpa_modulus.c:57
    ab34:	aa0403e1 	mov	x1, x4
    ab38:	aa1303e0 	mov	x0, x19
    ab3c:	97fff894 	bl	8d8c <mpa_alloc_static_temp_var>
/home/zliu/ubuntu-optee-rpi3/RPi3_OPTEE_3.1/optee_os/lib/libmpa/mpa_modulus.c:59
    ab40:	f94027a0 	ldr	x0, [x29, #72]
    ab44:	aa1403e3 	mov	x3, x20
    ab48:	aa1803e2 	mov	x2, x24
    ab4c:	aa1703e1 	mov	x1, x23
    ab50:	97fffba1 	bl	99d4 <mpa_add>
/home/zliu/ubuntu-optee-rpi3/RPi3_OPTEE_3.1/optee_os/lib/libmpa/mpa_modulus.c:60
    ab54:	f94027a2 	ldr	x2, [x29, #72]
    ab58:	aa1403e4 	mov	x4, x20
    ab5c:	aa1603e3 	mov	x3, x22
    ab60:	aa1503e1 	mov	x1, x21
    ab64:	d2800000 	mov	x0, #0x0                   	// #0
    ab68:	97fff5e9 	bl	830c <mpa_div>
/home/zliu/ubuntu-optee-rpi3/RPi3_OPTEE_3.1/optee_os/lib/libmpa/mpa_modulus.c:62
    ab6c:	aa1403e1 	mov	x1, x20
    ab70:	aa1303e0 	mov	x0, x19
    ab74:	97fff88a 	bl	8d9c <mpa_free_static_temp_var>
/home/zliu/ubuntu-optee-rpi3/RPi3_OPTEE_3.1/optee_os/lib/libmpa/mpa_modulus.c:63
    ab78:	a94153f3 	ldp	x19, x20, [sp, #16]
    ab7c:	a9425bf5 	ldp	x21, x22, [sp, #32]
    ab80:	a94363f7 	ldp	x23, x24, [sp, #48]
    ab84:	a8c57bfd 	ldp	x29, x30, [sp], #80
    ab88:	d65f03c0 	ret

000000000000ab8c <mpa_sub_mod>:
mpa_sub_mod():
/home/zliu/ubuntu-optee-rpi3/RPi3_OPTEE_3.1/optee_os/lib/libmpa/mpa_modulus.c:73
    ab8c:	a9bb7bfd 	stp	x29, x30, [sp, #-80]!
    ab90:	910003fd 	mov	x29, sp
    ab94:	a90153f3 	stp	x19, x20, [sp, #16]
/home/zliu/ubuntu-optee-rpi3/RPi3_OPTEE_3.1/optee_os/lib/libmpa/mpa_modulus.c:76
    ab98:	910123b3 	add	x19, x29, #0x48
/home/zliu/ubuntu-optee-rpi3/RPi3_OPTEE_3.1/optee_os/lib/libmpa/mpa_modulus.c:73
    ab9c:	aa0403f4 	mov	x20, x4
    aba0:	a9025bf5 	stp	x21, x22, [sp, #32]
    aba4:	a90363f7 	stp	x23, x24, [sp, #48]
    aba8:	aa0303f6 	mov	x22, x3
    abac:	aa0003f5 	mov	x21, x0
    abb0:	aa0103f7 	mov	x23, x1
    abb4:	aa0203f8 	mov	x24, x2
/home/zliu/ubuntu-optee-rpi3/RPi3_OPTEE_3.1/optee_os/lib/libmpa/mpa_modulus.c:76
    abb8:	aa0403e1 	mov	x1, x4
    abbc:	aa1303e0 	mov	x0, x19
    abc0:	97fff873 	bl	8d8c <mpa_alloc_static_temp_var>
/home/zliu/ubuntu-optee-rpi3/RPi3_OPTEE_3.1/optee_os/lib/libmpa/mpa_modulus.c:78
    abc4:	f94027a0 	ldr	x0, [x29, #72]
    abc8:	aa1403e3 	mov	x3, x20
    abcc:	aa1803e2 	mov	x2, x24
    abd0:	aa1703e1 	mov	x1, x23
    abd4:	97fffbe5 	bl	9b68 <mpa_sub>
/home/zliu/ubuntu-optee-rpi3/RPi3_OPTEE_3.1/optee_os/lib/libmpa/mpa_modulus.c:79
    abd8:	f94027a2 	ldr	x2, [x29, #72]
    abdc:	aa1403e4 	mov	x4, x20
    abe0:	aa1603e3 	mov	x3, x22
    abe4:	aa1503e1 	mov	x1, x21
    abe8:	d2800000 	mov	x0, #0x0                   	// #0
    abec:	97fff5c8 	bl	830c <mpa_div>
/home/zliu/ubuntu-optee-rpi3/RPi3_OPTEE_3.1/optee_os/lib/libmpa/mpa_modulus.c:81
    abf0:	aa1403e1 	mov	x1, x20
    abf4:	aa1303e0 	mov	x0, x19
    abf8:	97fff869 	bl	8d9c <mpa_free_static_temp_var>
/home/zliu/ubuntu-optee-rpi3/RPi3_OPTEE_3.1/optee_os/lib/libmpa/mpa_modulus.c:82
    abfc:	a94153f3 	ldp	x19, x20, [sp, #16]
    ac00:	a9425bf5 	ldp	x21, x22, [sp, #32]
    ac04:	a94363f7 	ldp	x23, x24, [sp, #48]
    ac08:	a8c57bfd 	ldp	x29, x30, [sp], #80
    ac0c:	d65f03c0 	ret

000000000000ac10 <mpa_mul_mod>:
mpa_mul_mod():
/home/zliu/ubuntu-optee-rpi3/RPi3_OPTEE_3.1/optee_os/lib/libmpa/mpa_modulus.c:92
    ac10:	a9bb7bfd 	stp	x29, x30, [sp, #-80]!
    ac14:	910003fd 	mov	x29, sp
    ac18:	a90153f3 	stp	x19, x20, [sp, #16]
/home/zliu/ubuntu-optee-rpi3/RPi3_OPTEE_3.1/optee_os/lib/libmpa/mpa_modulus.c:95
    ac1c:	910123b3 	add	x19, x29, #0x48
/home/zliu/ubuntu-optee-rpi3/RPi3_OPTEE_3.1/optee_os/lib/libmpa/mpa_modulus.c:92
    ac20:	aa0403f4 	mov	x20, x4
    ac24:	a9025bf5 	stp	x21, x22, [sp, #32]
    ac28:	a90363f7 	stp	x23, x24, [sp, #48]
    ac2c:	aa0303f6 	mov	x22, x3
    ac30:	aa0003f5 	mov	x21, x0
    ac34:	aa0103f7 	mov	x23, x1
    ac38:	aa0203f8 	mov	x24, x2
/home/zliu/ubuntu-optee-rpi3/RPi3_OPTEE_3.1/optee_os/lib/libmpa/mpa_modulus.c:95
    ac3c:	aa0403e1 	mov	x1, x4
    ac40:	aa1303e0 	mov	x0, x19
    ac44:	97fff852 	bl	8d8c <mpa_alloc_static_temp_var>
/home/zliu/ubuntu-optee-rpi3/RPi3_OPTEE_3.1/optee_os/lib/libmpa/mpa_modulus.c:97
    ac48:	f94027a0 	ldr	x0, [x29, #72]
    ac4c:	aa1403e3 	mov	x3, x20
    ac50:	aa1803e2 	mov	x2, x24
    ac54:	aa1703e1 	mov	x1, x23
    ac58:	97fff8d5 	bl	8fac <mpa_mul>
/home/zliu/ubuntu-optee-rpi3/RPi3_OPTEE_3.1/optee_os/lib/libmpa/mpa_modulus.c:98
    ac5c:	f94027a2 	ldr	x2, [x29, #72]
    ac60:	aa1403e4 	mov	x4, x20
    ac64:	aa1603e3 	mov	x3, x22
    ac68:	aa1503e1 	mov	x1, x21
    ac6c:	d2800000 	mov	x0, #0x0                   	// #0
    ac70:	97fff5a7 	bl	830c <mpa_div>
/home/zliu/ubuntu-optee-rpi3/RPi3_OPTEE_3.1/optee_os/lib/libmpa/mpa_modulus.c:100
    ac74:	aa1403e1 	mov	x1, x20
    ac78:	aa1303e0 	mov	x0, x19
    ac7c:	97fff848 	bl	8d9c <mpa_free_static_temp_var>
/home/zliu/ubuntu-optee-rpi3/RPi3_OPTEE_3.1/optee_os/lib/libmpa/mpa_modulus.c:101
    ac80:	a94153f3 	ldp	x19, x20, [sp, #16]
    ac84:	a9425bf5 	ldp	x21, x22, [sp, #32]
    ac88:	a94363f7 	ldp	x23, x24, [sp, #48]
    ac8c:	a8c57bfd 	ldp	x29, x30, [sp], #80
    ac90:	d65f03c0 	ret

000000000000ac94 <mpa_inv_mod>:
mpa_inv_mod():
/home/zliu/ubuntu-optee-rpi3/RPi3_OPTEE_3.1/optee_os/lib/libmpa/mpa_modulus.c:110
    ac94:	a9bb7bfd 	stp	x29, x30, [sp, #-80]!
    ac98:	910003fd 	mov	x29, sp
    ac9c:	a9025bf5 	stp	x21, x22, [sp, #32]
    aca0:	aa0103f6 	mov	x22, x1
    aca4:	a90153f3 	stp	x19, x20, [sp, #16]
/home/zliu/ubuntu-optee-rpi3/RPi3_OPTEE_3.1/optee_os/lib/libmpa/mpa_modulus.c:116
    aca8:	52800021 	mov	w1, #0x1                   	// #1
/home/zliu/ubuntu-optee-rpi3/RPi3_OPTEE_3.1/optee_os/lib/libmpa/mpa_modulus.c:110
    acac:	a90363f7 	stp	x23, x24, [sp, #48]
    acb0:	aa0003f3 	mov	x19, x0
    acb4:	aa0203f7 	mov	x23, x2
    acb8:	aa0303f4 	mov	x20, x3
/home/zliu/ubuntu-optee-rpi3/RPi3_OPTEE_3.1/optee_os/lib/libmpa/mpa_modulus.c:116
    acbc:	aa1603e0 	mov	x0, x22
    acc0:	97fffd0c 	bl	a0f0 <mpa_cmp_short>
    acc4:	35000160 	cbnz	w0, acf0 <mpa_inv_mod+0x5c>
/home/zliu/ubuntu-optee-rpi3/RPi3_OPTEE_3.1/optee_os/lib/libmpa/mpa_modulus.c:118
    acc8:	52800015 	mov	w21, #0x0                   	// #0
/home/zliu/ubuntu-optee-rpi3/RPi3_OPTEE_3.1/optee_os/lib/libmpa/mpa_modulus.c:117
    accc:	52800021 	mov	w1, #0x1                   	// #1
    acd0:	aa1303e0 	mov	x0, x19
    acd4:	97fff353 	bl	7a20 <mpa_set_S32>
/home/zliu/ubuntu-optee-rpi3/RPi3_OPTEE_3.1/optee_os/lib/libmpa/mpa_modulus.c:145
    acd8:	2a1503e0 	mov	w0, w21
    acdc:	a94153f3 	ldp	x19, x20, [sp, #16]
    ace0:	a9425bf5 	ldp	x21, x22, [sp, #32]
    ace4:	a94363f7 	ldp	x23, x24, [sp, #48]
    ace8:	a8c57bfd 	ldp	x29, x30, [sp], #80
    acec:	d65f03c0 	ret
/home/zliu/ubuntu-optee-rpi3/RPi3_OPTEE_3.1/optee_os/lib/libmpa/mpa_modulus.c:122
    acf0:	eb1302df 	cmp	x22, x19
    acf4:	54000421 	b.ne	ad78 <mpa_inv_mod+0xe4>  // b.any
/home/zliu/ubuntu-optee-rpi3/RPi3_OPTEE_3.1/optee_os/lib/libmpa/mpa_modulus.c:123
    acf8:	aa1403e1 	mov	x1, x20
    acfc:	910123a0 	add	x0, x29, #0x48
    ad00:	97fff823 	bl	8d8c <mpa_alloc_static_temp_var>
/home/zliu/ubuntu-optee-rpi3/RPi3_OPTEE_3.1/optee_os/lib/libmpa/mpa_modulus.c:127
    ad04:	910103b8 	add	x24, x29, #0x40
    ad08:	aa1403e1 	mov	x1, x20
    ad0c:	aa1803e0 	mov	x0, x24
    ad10:	97fff81f 	bl	8d8c <mpa_alloc_static_temp_var>
/home/zliu/ubuntu-optee-rpi3/RPi3_OPTEE_3.1/optee_os/lib/libmpa/mpa_modulus.c:129
    ad14:	a94407a0 	ldp	x0, x1, [x29, #64]
    ad18:	aa1403e5 	mov	x5, x20
    ad1c:	aa1703e4 	mov	x4, x23
    ad20:	aa1603e3 	mov	x3, x22
    ad24:	d2800002 	mov	x2, #0x0                   	// #0
    ad28:	97fff758 	bl	8a88 <mpa_extended_gcd>
/home/zliu/ubuntu-optee-rpi3/RPi3_OPTEE_3.1/optee_os/lib/libmpa/mpa_modulus.c:130
    ad2c:	f94023a0 	ldr	x0, [x29, #64]
    ad30:	52800021 	mov	w1, #0x1                   	// #1
    ad34:	97fffcef 	bl	a0f0 <mpa_cmp_short>
    ad38:	2a0003f5 	mov	w21, w0
/home/zliu/ubuntu-optee-rpi3/RPi3_OPTEE_3.1/optee_os/lib/libmpa/mpa_modulus.c:132
    ad3c:	eb1302df 	cmp	x22, x19
    ad40:	54000101 	b.ne	ad60 <mpa_inv_mod+0xcc>  // b.any
/home/zliu/ubuntu-optee-rpi3/RPi3_OPTEE_3.1/optee_os/lib/libmpa/mpa_modulus.c:133
    ad44:	910143b6 	add	x22, x29, #0x50
    ad48:	aa1303e0 	mov	x0, x19
    ad4c:	f85f8ec1 	ldr	x1, [x22, #-8]!
    ad50:	97fff0fd 	bl	7144 <mpa_copy>
/home/zliu/ubuntu-optee-rpi3/RPi3_OPTEE_3.1/optee_os/lib/libmpa/mpa_modulus.c:134
    ad54:	aa1403e1 	mov	x1, x20
    ad58:	aa1603e0 	mov	x0, x22
    ad5c:	97fff810 	bl	8d9c <mpa_free_static_temp_var>
/home/zliu/ubuntu-optee-rpi3/RPi3_OPTEE_3.1/optee_os/lib/libmpa/mpa_modulus.c:137
    ad60:	aa1403e1 	mov	x1, x20
    ad64:	aa1803e0 	mov	x0, x24
    ad68:	97fff80d 	bl	8d9c <mpa_free_static_temp_var>
/home/zliu/ubuntu-optee-rpi3/RPi3_OPTEE_3.1/optee_os/lib/libmpa/mpa_modulus.c:138
    ad6c:	34000155 	cbz	w21, ad94 <mpa_inv_mod+0x100>
/home/zliu/ubuntu-optee-rpi3/RPi3_OPTEE_3.1/optee_os/lib/libmpa/mpa_modulus.c:143
    ad70:	12800015 	mov	w21, #0xffffffff            	// #-1
    ad74:	17ffffd9 	b	acd8 <mpa_inv_mod+0x44>
/home/zliu/ubuntu-optee-rpi3/RPi3_OPTEE_3.1/optee_os/lib/libmpa/mpa_modulus.c:125
    ad78:	f90027b3 	str	x19, [x29, #72]
    ad7c:	17ffffe2 	b	ad04 <mpa_inv_mod+0x70>
/home/zliu/ubuntu-optee-rpi3/RPi3_OPTEE_3.1/optee_os/lib/libmpa/mpa_modulus.c:140
    ad80:	aa1403e3 	mov	x3, x20
    ad84:	aa1703e2 	mov	x2, x23
    ad88:	aa1303e1 	mov	x1, x19
    ad8c:	aa1303e0 	mov	x0, x19
    ad90:	97fffb11 	bl	99d4 <mpa_add>
/home/zliu/ubuntu-optee-rpi3/RPi3_OPTEE_3.1/optee_os/lib/libmpa/mpa_modulus.c:139
    ad94:	52800001 	mov	w1, #0x0                   	// #0
    ad98:	aa1303e0 	mov	x0, x19
    ad9c:	97fffcd5 	bl	a0f0 <mpa_cmp_short>
    ada0:	37ffff00 	tbnz	w0, #31, ad80 <mpa_inv_mod+0xec>
    ada4:	17ffffcd 	b	acd8 <mpa_inv_mod+0x44>
