
5dbac793-f574-4871-8ad3-04331ec17f24.elf:     file format elf64-littleaarch64
5dbac793-f574-4871-8ad3-04331ec17f24.elf
architecture: aarch64, flags 0x00000150:
HAS_SYMS, DYNAMIC, D_PAGED
start address 0x0000000000000020

Program Header:
    LOAD off    0x0000000000010000 vaddr 0x0000000000000000 paddr 0x0000000000000000 align 2**16
         filesz 0x000000000000ada8 memsz 0x000000000000ada8 flags r-x
    LOAD off    0x000000000001ada8 vaddr 0x000000000000ada8 paddr 0x000000000000ada8 align 2**16
         filesz 0x0000000000001e50 memsz 0x0000000000001e50 flags r--
    LOAD off    0x000000000001d000 vaddr 0x000000000000d000 paddr 0x000000000000d000 align 2**16
         filesz 0x0000000000000144 memsz 0x000000000000ad48 flags rw-
 DYNAMIC off    0x000000000001ca80 vaddr 0x000000000000ca80 paddr 0x000000000000ca80 align 2**3
         filesz 0x0000000000000110 memsz 0x0000000000000110 flags rw-

Dynamic Section:
  HASH                 0x000000000000cbe0
  GNU_HASH             0x000000000000c660
  STRTAB               0x000000000000cbd8
  SYMTAB               0x000000000000cb90
  STRSZ                0x0000000000000001
  SYMENT               0x0000000000000018
  DEBUG                0x0000000000000000
  RELA                 0x000000000000c680
  RELASZ               0x0000000000000378
  RELAENT              0x0000000000000018
  FLAGS_1              0x0000000008000000
  RELACOUNT            0x0000000000000018
private flags = 0:

Sections:
Idx Name          Size      VMA               LMA               File off  Algn
  0 .ta_head      00000020  0000000000000000  0000000000000000  00010000  2**3
                  CONTENTS, ALLOC, LOAD, DATA
  1 .text         0000ad88  0000000000000020  0000000000000020  00010020  2**2
                  CONTENTS, ALLOC, LOAD, READONLY, CODE
  2 .rodata       000018b2  000000000000ada8  000000000000ada8  0001ada8  2**3
                  CONTENTS, ALLOC, LOAD, READONLY, DATA
  3 .gnu.hash     0000001c  000000000000c660  000000000000c660  0001c660  2**3
                  CONTENTS, ALLOC, LOAD, READONLY, DATA
  4 .dynsym       00000048  000000000000cb90  000000000000cb90  0001cb90  2**3
                  CONTENTS, ALLOC, LOAD, READONLY, DATA
  5 .rela.dyn     00000240  000000000000c680  000000000000c680  0001c680  2**3
                  CONTENTS, ALLOC, LOAD, READONLY, DATA
  6 .got          00000088  000000000000c8c0  000000000000c8c0  0001c8c0  2**3
                  CONTENTS, ALLOC, LOAD, DATA
  7 .rela.got     00000138  000000000000c948  000000000000c948  0001c948  2**3
                  CONTENTS, ALLOC, LOAD, READONLY, DATA
  8 .dynamic      00000110  000000000000ca80  000000000000ca80  0001ca80  2**3
                  CONTENTS, ALLOC, LOAD, DATA
  9 .dynstr       00000001  000000000000cbd8  000000000000cbd8  0001cbd8  2**0
                  CONTENTS, ALLOC, LOAD, READONLY, DATA
 10 .hash         00000018  000000000000cbe0  000000000000cbe0  0001cbe0  2**3
                  CONTENTS, ALLOC, LOAD, READONLY, DATA
 11 .data         00000144  000000000000d000  000000000000d000  0001d000  2**3
                  CONTENTS, ALLOC, LOAD, DATA
 12 .bss          0000ac00  000000000000d148  000000000000d148  0001d144  2**3
                  ALLOC
 13 .debug_info   00014e05  0000000000000000  0000000000000000  0001d144  2**0
                  CONTENTS, READONLY, DEBUGGING
 14 .debug_abbrev 00004770  0000000000000000  0000000000000000  00031f49  2**0
                  CONTENTS, READONLY, DEBUGGING
 15 .debug_loc    0001dc9c  0000000000000000  0000000000000000  000366b9  2**0
                  CONTENTS, READONLY, DEBUGGING
 16 .debug_aranges 00000c70  0000000000000000  0000000000000000  00054360  2**4
                  CONTENTS, READONLY, DEBUGGING
 17 .debug_ranges 00001400  0000000000000000  0000000000000000  00054fd0  2**4
                  CONTENTS, READONLY, DEBUGGING
 18 .debug_macro  000056bc  0000000000000000  0000000000000000  000563d0  2**0
                  CONTENTS, READONLY, DEBUGGING
 19 .debug_line   00007217  0000000000000000  0000000000000000  0005ba8c  2**0
                  CONTENTS, READONLY, DEBUGGING
 20 .debug_str    00011daa  0000000000000000  0000000000000000  00062ca3  2**0
                  CONTENTS, READONLY, DEBUGGING
 21 .comment      0000005d  0000000000000000  0000000000000000  00074a4d  2**0
                  CONTENTS, READONLY
 22 .debug_frame  00003180  0000000000000000  0000000000000000  00074ab0  2**3
                  CONTENTS, READONLY, DEBUGGING
SYMBOL TABLE:
0000000000000000 l    d  .ta_head	0000000000000000 .ta_head
0000000000000020 l    d  .text	0000000000000000 .text
000000000000ada8 l    d  .rodata	0000000000000000 .rodata
000000000000c660 l    d  .gnu.hash	0000000000000000 .gnu.hash
000000000000c680 l    d  .rela.dyn	0000000000000000 .rela.dyn
000000000000c8c0 l    d  .got	0000000000000000 .got
000000000000c948 l    d  .rela.got	0000000000000000 .rela.got
000000000000ca80 l    d  .dynamic	0000000000000000 .dynamic
000000000000cb90 l    d  .dynsym	0000000000000000 .dynsym
000000000000cbd8 l    d  .dynstr	0000000000000000 .dynstr
000000000000cbe0 l    d  .hash	0000000000000000 .hash
000000000000d000 l    d  .data	0000000000000000 .data
000000000000d148 l    d  .bss	0000000000000000 .bss
0000000000000000 l    d  .debug_info	0000000000000000 .debug_info
0000000000000000 l    d  .debug_abbrev	0000000000000000 .debug_abbrev
0000000000000000 l    d  .debug_loc	0000000000000000 .debug_loc
0000000000000000 l    d  .debug_aranges	0000000000000000 .debug_aranges
0000000000000000 l    d  .debug_ranges	0000000000000000 .debug_ranges
0000000000000000 l    d  .debug_macro	0000000000000000 .debug_macro
0000000000000000 l    d  .debug_line	0000000000000000 .debug_line
0000000000000000 l    d  .debug_str	0000000000000000 .debug_str
0000000000000000 l    d  .comment	0000000000000000 .comment
0000000000000000 l    d  .debug_frame	0000000000000000 .debug_frame
0000000000000000 l    df *ABS*	0000000000000000 user_ta_header.c
000000000000adb0 l     O .rodata	0000000000000004 __compound_literal.5
000000000000adb4 l     O .rodata	0000000000000004 __compound_literal.4
000000000000adb8 l     O .rodata	0000000000000004 __compound_literal.3
000000000000adbc l     O .rodata	0000000000000001 __compound_literal.2
000000000000adbd l     O .rodata	0000000000000001 __compound_literal.1
000000000000adbe l     O .rodata	0000000000000001 __compound_literal.0
0000000000000000 l    df *ABS*	0000000000000000 aes_ta.c
000000000000bcd4 l     O .rodata	0000000000000019 __func__.3910
000000000000bced l     O .rodata	000000000000001a __func__.3915
000000000000bd07 l     O .rodata	0000000000000010 __func__.3866
000000000000bd17 l     O .rodata	000000000000000f __func__.3839
000000000000bd26 l     O .rodata	0000000000000010 __func__.3847
000000000000bd36 l     O .rodata	000000000000000f __func__.3855
000000000000bd45 l     O .rodata	000000000000000c __func__.3879
000000000000bd51 l     O .rodata	000000000000000d __func__.3889
000000000000bd5e l     O .rodata	000000000000000e __func__.3897
000000000000bd6c l     O .rodata	000000000000001b __func__.3927
0000000000000000 l    df *ABS*	0000000000000000 tee_api.c
000000000000d148 l     O .bss	0000000000000008 tee_api_instance_data
0000000000000000 l    df *ABS*	0000000000000000 tee_api_objects.c
0000000000000000 l    df *ABS*	0000000000000000 tee_api_operations.c
00000000000038f8 l     F .text	000000000000021c tee_buffer_update
0000000000000000 l    df *ABS*	0000000000000000 tee_api_panic.c
0000000000000000 l    df *ABS*	0000000000000000 user_ta_entry.c
0000000000003b1c l     F .text	0000000000000028 ta_header_get_session
0000000000003b44 l     F .text	0000000000000088 ta_header_remove_session
0000000000017d42 l     O .bss	0000000000000001 init_done
000000000000d0e0 l     O .data	0000000000000010 ta_sessions
0000000000000000 l    df *ABS*	0000000000000000 utee_syscalls_a64.o
0000000000000000 l    df *ABS*	0000000000000000 gprof_a64.o
0000000000000000 l    df *ABS*	0000000000000000 tee_user_mem.c
0000000000004138 l     F .text	0000000000000058 print_buf
0000000000004190 l     F .text	0000000000000104 check_elem
000000000000add0 l     O .rodata	000000000000000b __func__.3881
000000000000ade0 l     O .rodata	000000000000000f __func__.3876
000000000000adf0 l     O .rodata	0000000000000013 __func__.3901
000000000000ae08 l     O .rodata	0000000000000012 __func__.3918
000000000000ae20 l     O .rodata	0000000000000018 __func__.3926
000000000000ae38 l     O .rodata	0000000000000010 __func__.3886
000000000000ae48 l     O .rodata	0000000000000014 __func__.3931
000000000000d198 l     O .bss	0000000000000008 heap_level
000000000000d1a0 l     O .bss	0000000000000010 global_stats
0000000000000000 l    df *ABS*	0000000000000000 assert.c
0000000000000000 l    df *ABS*	0000000000000000 tee_api_arith.c
0000000000004dec l     F .text	0000000000000028 TEE_BigInt_Panic
000000000000d1b0 l     O .bss	0000000000001b40 mempool_u32
0000000000000000 l    df *ABS*	0000000000000000 utee_misc.c
0000000000000000 l    df *ABS*	0000000000000000 trace_ext.c
0000000000000000 l    df *ABS*	0000000000000000 bget_malloc.c
0000000000004fa8 l     F .text	0000000000000040 raw_malloc_return_hook.isra.3
0000000000004fe8 l     F .text	0000000000000110 create_free_block.constprop.11
000000000000ae60 l     O .rodata	0000000000000012 __func__.3452
000000000000ae78 l     O .rodata	0000000000000005 __func__.3308
000000000000ae80 l     O .rodata	0000000000000006 __func__.3323
000000000000ae88 l     O .rodata	0000000000000005 __func__.3340
000000000000ae90 l     O .rodata	0000000000000006 __func__.3332
000000000000ae98 l     O .rodata	0000000000000006 __func__.3349
000000000000aea0 l     O .rodata	0000000000000007 __func__.3359
000000000000aea8 l     O .rodata	000000000000000d __func__.3488
000000000000aeb8 l     O .rodata	000000000000000c __func__.3462
000000000000aec8 l     O .rodata	000000000000000b __func__.3473
000000000000aed8 l     O .rodata	0000000000000010 __func__.3540
000000000000aee8 l     O .rodata	000000000000000e __func__.3494
000000000000aef8 l     O .rodata	0000000000000013 __func__.3400
000000000000ecf0 l     O .bss	0000000000000038 mstats
000000000000ed28 l     O .bss	0000000000000008 malloc_pool_len
000000000000ed30 l     O .bss	0000000000000008 malloc_pool
000000000000d100 l     O .data	0000000000000038 malloc_poolset
0000000000000000 l    df *ABS*	0000000000000000 snprintf.c
0000000000000000 l    df *ABS*	0000000000000000 stack_check.c
0000000000000000 l    df *ABS*	0000000000000000 memcmp.c
0000000000000000 l    df *ABS*	0000000000000000 memcpy.c
0000000000000000 l    df *ABS*	0000000000000000 memmove.c
0000000000000000 l    df *ABS*	0000000000000000 memset.c
0000000000000000 l    df *ABS*	0000000000000000 strlen.c
0000000000000000 l    df *ABS*	0000000000000000 snprintk.c
000000000000af10 l     O .rodata	0000000000000011 HEXDIGITS
000000000000af28 l     O .rodata	0000000000000011 hexdigits
0000000000000000 l    df *ABS*	0000000000000000 buf_compare_ct.c
0000000000000000 l    df *ABS*	0000000000000000 trace.c
000000000000af40 l     O .rodata	0000000000000005 lvl_strs.3168
0000000000000000 l    df *ABS*	0000000000000000 memchr.c
0000000000000000 l    df *ABS*	0000000000000000 mpa_misc.c
0000000000000000 l    df *ABS*	0000000000000000 mpa_montgomery.c
0000000000000000 l    df *ABS*	0000000000000000 mpa_primetest.c
000000000000bbb0 l     O .rodata	0000000000000010 const_miller_rabin_proof_limit
000000000000bbc0 l     O .rodata	000000000000001c proof_a.3549
000000000000bbe0 l     O .rodata	000000000000000c const_two
000000000000bbf0 l     O .rodata	00000000000000b8 const_small_prime_factors
0000000000000000 l    df *ABS*	0000000000000000 mpa_conv.c
0000000000000000 l    df *ABS*	0000000000000000 mpa_div.c
0000000000000000 l    df *ABS*	0000000000000000 mpa_gcd.c
00000000000083fc l     F .text	0000000000000080 __mpa_divby2
000000000000847c l     F .text	000000000000016c __mpa_gcd.part.0
00000000000085e8 l     F .text	0000000000000380 __mpa_egcd
0000000000000000 l    df *ABS*	0000000000000000 mpa_mem_static.c
0000000000000000 l    df *ABS*	0000000000000000 mpa_mul.c
0000000000000000 l    df *ABS*	0000000000000000 mpa_random.c
000000000000ed38 l     O .bss	0000000000000008 get_rng_array
0000000000000000 l    df *ABS*	0000000000000000 mpa_shift.c
0000000000000000 l    df *ABS*	0000000000000000 mpa_addsub.c
0000000000000000 l    df *ABS*	0000000000000000 mpa_cmp.c
0000000000000000 l    df *ABS*	0000000000000000 mpa_expmod.c
0000000000000000 l    df *ABS*	0000000000000000 mpa_init.c
0000000000000000 l    df *ABS*	0000000000000000 mpa_io.c
000000000000a3b4 l     F .text	0000000000000044 __mpa_word_to_hexstr
000000000000a3f8 l     F .text	0000000000000114 __mpa_mpanum_to_hexstr
000000000000a50c l     F .text	000000000000003c __mpa_isspace
000000000000bcb0 l     O .rodata	000000000000000c __func__.3623
000000000000bcc0 l     O .rodata	000000000000000c __func__.3637
000000000000ed40 l     O .bss	0000000000001002 buf.3609
0000000000000000 l    df *ABS*	0000000000000000 mpa_modulus.c
0000000000000000 l    df *ABS*	0000000000000000 
000000000000ca80 l     O *ABS*	0000000000000000 _DYNAMIC
000000000000c8d8 l     O *ABS*	0000000000000000 _GLOBAL_OFFSET_TABLE_
0000000000004110 g     F .text	000000000000000c utee_se_channel_transmit
0000000000004f6c g     F .text	000000000000003c putchar
000000000000a330 g     F .text	000000000000001c mpa_init_static
0000000000000e6c g     F .text	00000000000000c0 TEE_PopulateTransientObject
0000000000007144 g     F .text	0000000000000054 mpa_copy
0000000000004d2c g     F .text	000000000000001c TEE_BigIntConvertToFMM
0000000000004c0c g     F .text	000000000000000c TEE_BigIntSquareMod
000000000000488c g     F .text	0000000000000004 TEE_BigIntShiftRight
0000000000007a4c g     F .text	0000000000000074 mpa_get_S32
00000000000071c8 g     F .text	0000000000000044 mpa_highest_bit_index
0000000000003fd8 g     F .text	000000000000000c utee_storage_obj_create
00000000000040ec g     F .text	000000000000000c utee_se_session_close
0000000000003de0 g     F .text	000000000000000c utee_return
0000000000002518 g     F .text	0000000000000070 TEE_DigestUpdate
000000000000408c g     F .text	000000000000000c utee_se_service_get_readers
0000000000000a30 g     F .text	0000000000000008 TEE_Realloc
0000000000007b3c g     F .text	0000000000000148 __mpa_div_q_r_internal_word
0000000000004524 g     F .text	00000000000000bc tee_user_mem_realloc
0000000000002268 g     F .text	0000000000000190 TEE_SetOperationKey2
0000000000009b68 g     F .text	000000000000019c mpa_sub
0000000000004e60 g     F .text	00000000000000cc printf
00000000000043e0 g     F .text	0000000000000144 tee_user_mem_free
0000000000003dec g     F .text	000000000000000c utee_log
000000000000bca8 g     O .rodata	0000000000000004 NR_STORED_PRIMES
0000000000000f2c g     F .text	0000000000000054 TEE_InitRefAttribute
0000000000000760 g     F .text	00000000000000b4 TEE_InvokeTACommand
0000000000007250 g     F .text	000000000000001c mpa_can_hold
0000000000008e20 g     F .text	0000000000000098 __mpa_abs_mul_word
0000000000002f5c g     F .text	00000000000001a8 TEE_AEEncryptFinal
00000000000075ec g     F .text	0000000000000088 mpa_montgomery_mul
0000000000006d58 g     F .text	0000000000000054 vsnprintk
000000000000726c g     F .text	000000000000000c mpa_parity
000000000000612c g     F .text	000000000000004c memmove
00000000000096f0 g     F .text	0000000000000020 __mpa_full_adder_ackum
0000000000006008 g     F .text	0000000000000078 snprintf
0000000000004888 g     F .text	0000000000000004 TEE_BigIntCmpS32
000000000000d138 g     O .data	0000000000000008 __stack_chk_guard
0000000000000f80 g     F .text	0000000000000050 TEE_InitValueAttribute
00000000000048c4 g     F .text	000000000000000c TEE_BigIntAdd
0000000000003e10 g     F .text	000000000000000c utee_get_property_name_to_index
000000000000adc0 g     O .rodata	0000000000000008 ta_heap_size
000000000000bcac g     O .rodata	0000000000000004 MAX_TABULATED_PRIME
0000000000000e18 g     F .text	0000000000000054 TEE_ResetTransientObject
0000000000004e1c g     F .text	0000000000000004 utee_malloc
0000000000003e94 g     F .text	000000000000000c utee_cryp_state_alloc
0000000000003f9c g     F .text	000000000000000c utee_authenc_enc_final
0000000000008e00 g     F .text	0000000000000020 __mpa_mul_add_word_cum
000000000000264c g     F .text	00000000000000a4 TEE_CipherInit
00000000000048dc g     F .text	0000000000000004 TEE_BigIntNeg
000000000000830c g     F .text	00000000000000f0 mpa_div
0000000000000020 g       .text	0000000000000000 __text_start
000000000000143c g     F .text	0000000000000050 TEE_StartPersistentObjectEnumerator
000000000000af48 g     O .rodata	000000000000000c const_one
0000000000005f9c g     F .text	000000000000006c malloc_buffer_overlaps_heap
000000000000a070 g     F .text	0000000000000018 __mpa_abs_less_than
0000000000004a9c g     F .text	00000000000000a8 TEE_BigIntSubMod
0000000000002cb4 g     F .text	00000000000000c4 TEE_AEInit
0000000000009160 g     F .text	0000000000000114 mpa_get_random
0000000000004e2c g     F .text	0000000000000004 get_rng_array
0000000000006e94 g     F .text	000000000000022c trace_printf
0000000000004074 g     F .text	000000000000000c utee_se_service_open
000000000000610c g     F .text	0000000000000020 memcpy
0000000000003eac g     F .text	000000000000000c utee_cryp_state_free
0000000000007114 g     F .text	0000000000000030 mpa_wipe
0000000000004d48 g     F .text	0000000000000094 TEE_BigIntConvertFromFMM
0000000000003b14 g     F .text	0000000000000008 TEE_Panic
0000000000004104 g     F .text	000000000000000c utee_se_channel_get_select_resp
00000000000023f8 g     F .text	0000000000000120 TEE_CopyOperation
0000000000004f2c g     F .text	0000000000000040 puts
0000000000004ddc g     F .text	0000000000000010 TEE_BigIntComputeFMM
0000000000007ac0 g     F .text	0000000000000014 mpa_set_word
0000000000005808 g     F .text	0000000000000030 malloc_get_stats
00000000000093dc g     F .text	0000000000000190 mpa_shift_left
0000000000003ef4 g     F .text	000000000000000c utee_cipher_final
0000000000008fac g     F .text	00000000000000e4 mpa_mul
0000000000000a00 g     F .text	0000000000000028 TEE_GetREETime
0000000000001390 g     F .text	000000000000005c TEE_AllocatePersistentObjectEnumerator
000000000000d000 g     O .data	00000000000000d8 ta_props
000000000000329c g     F .text	0000000000000144 TEE_AsymmetricEncrypt
0000000000005838 g     F .text	0000000000000050 malloc
0000000000003f30 g     F .text	000000000000000c utee_cryp_obj_close
00000000000040b0 g     F .text	000000000000000c utee_se_reader_open_session
0000000000006080 g     F .text	0000000000000054 vsnprintf
00000000000010d0 g     F .text	0000000000000084 TEE_GenerateKey
000000000000d140 g     O .data	0000000000000004 trace_level
0000000000004e14 g     F .text	0000000000000008 utee_get_ta_exec_id
0000000000004884 g     F .text	0000000000000004 TEE_BigIntCmp
0000000000004e20 g     F .text	0000000000000004 utee_realloc
000000000000ada8 g     O .rodata	0000000000000008 ta_num_props
00000000000055dc g     F .text	00000000000000a8 bgetr
0000000000003f90 g     F .text	000000000000000c utee_authenc_update_payload
00000000000026f0 g     F .text	000000000000015c TEE_CipherUpdate
0000000000004820 g     F .text	0000000000000040 TEE_BigIntConvertToOctetString
0000000000001fb8 g     F .text	0000000000000148 TEE_GetOperationInfoMultiple
0000000000004128 g     F .text	000000000000000c utee_cache_operation
0000000000003f78 g     F .text	000000000000000c utee_authenc_init
0000000000004890 g     F .text	000000000000001c TEE_BigIntGetBit
000000000000adc8 g     O .rodata	0000000000000003 trace_ext_prefix
0000000000009710 g     F .text	00000000000000f4 __mpa_abs_add
00000000000052b8 g     F .text	0000000000000088 bgetz
00000000000008b8 g     F .text	000000000000000c TEE_GetInstanceData
0000000000000904 g     F .text	000000000000003c TEE_Wait
0000000000004044 g     F .text	000000000000000c utee_storage_obj_write
0000000000008d9c g     F .text	000000000000004c mpa_free_static_temp_var
0000000000007674 g     F .text	00000000000003ac mpa_is_prob_prime
000000000000411c g     F .text	000000000000000c utee_se_channel_close
0000000000009090 g     F .text	00000000000000c4 mpa_mul_word
0000000000000a44 g     F .text	0000000000000008 TEE_CacheFlush
0000000000000028 g     F .text	0000000000000004 TA_DestroyEntryPoint
0000000000004700 g     F .text	0000000000000044 _assert_log
00000000000047e4 g     F .text	0000000000000014 TEE_BigIntFMMContextSizeInU32
0000000000002bf4 g     F .text	00000000000000c0 TEE_MACCompareFinal
0000000000001324 g     F .text	000000000000006c TEE_RenamePersistentObject
0000000000002588 g     F .text	00000000000000c4 TEE_DigestDoFinal
0000000000007c84 g     F .text	0000000000000688 __mpa_div_q_r
0000000000004758 g     F .text	000000000000002c _TEE_MathAPI_Init
000000000000402c g     F .text	000000000000000c utee_storage_next_enum
00000000000060d4 g     F .text	0000000000000004 __stack_chk_fail
000000000000fd42 g     O .bss	0000000000008000 ta_heap
0000000000004c18 g     F .text	000000000000006c TEE_BigIntInvMod
0000000000000090 g     F .text	0000000000000060 TA_CloseSessionEntryPoint
00000000000033e0 g     F .text	0000000000000148 TEE_AsymmetricDecrypt
0000000000001154 g     F .text	0000000000000098 TEE_OpenPersistentObject
0000000000003df8 g     F .text	000000000000000c __utee_panic
0000000000003ea0 g     F .text	000000000000000c utee_cryp_state_copy
00000000000000f0 g     F .text	00000000000004cc TA_InvokeCommandEntryPoint
000000000000a86c g     F .text	0000000000000110 mpa_set_oct_str
00000000000040e0 g     F .text	000000000000000c utee_se_session_open_channel
00000000000092e0 g     F .text	0000000000000098 __mpa_shift_words_left
0000000000003f24 g     F .text	000000000000000c utee_cryp_obj_alloc
0000000000003e88 g     F .text	000000000000000c utee_set_ta_time
0000000000003f18 g     F .text	000000000000000c utee_cryp_obj_get_attr
000000000000107c g     F .text	0000000000000054 TEE_CopyObjectAttributes
00000000000072fc g     F .text	0000000000000090 __mpa_montgomery_sub_ack
000000000000589c g     F .text	0000000000000064 calloc
0000000000000a28 g     F .text	0000000000000008 TEE_Malloc
0000000000003e64 g     F .text	000000000000000c utee_mask_cancellation
0000000000003f3c g     F .text	000000000000000c utee_cryp_obj_reset
0000000000000898 g     F .text	0000000000000014 TEE_CheckMemoryAccessRights
0000000000017d48 g       .bss	0000000000000000 __gprof_buf_end
0000000000009d04 g     F .text	000000000000002c mpa_neg
000000000000af78 g     O .rodata	0000000000000c38 PRIME_TABLE
0000000000001510 g     F .text	0000000000000068 TEE_ReadObjectData
0000000000000bbc g     F .text	00000000000000ac TEE_GetObjectBufferAttribute
000000000000002c g     F .text	0000000000000064 TA_OpenSessionEntryPoint
0000000000008968 g     F .text	0000000000000120 mpa_gcd
0000000000007198 g     F .text	0000000000000030 mpa_abs
0000000000004020 g     F .text	000000000000000c utee_storage_start_enum
0000000000001708 g     F .text	0000000000000044 TEE_FreeOperation
000000000000a550 g     F .text	0000000000000298 mpa_set_str
0000000000003ff0 g     F .text	000000000000000c utee_storage_obj_rename
000000000000d150 g     O .bss	0000000000000004 ta_param_types
0000000000000a54 g     F .text	000000000000004c __utee_from_attr
0000000000004d08 g     F .text	0000000000000024 TEE_BigIntIsProbablePrime
0000000000008d8c g     F .text	0000000000000010 mpa_alloc_static_temp_var
00000000000012b4 g     F .text	0000000000000044 TEE_CloseAndDeletePersistentObject1
0000000000009154 g     F .text	000000000000000c mpa_set_random_generator
0000000000003e04 g     F .text	000000000000000c utee_get_property
0000000000003104 g     F .text	0000000000000198 TEE_AEDecryptFinal
0000000000004784 g     F .text	0000000000000004 TEE_BigIntInit
00000000000008c4 g     F .text	0000000000000008 TEE_MemMove
00000000000047f8 g     F .text	0000000000000028 TEE_BigIntConvertFromOctetString
000000000000d0d8 g     O .data	0000000000000008 _ref__utee_mcount
00000000000029f4 g     F .text	00000000000000a4 TEE_MACInit
0000000000003528 g     F .text	000000000000013c TEE_AsymmetricSignDigest
00000000000070c4 g     F .text	000000000000002c memchr
0000000000000840 g     F .text	000000000000002c TEE_UnmaskCancellation
0000000000000aa0 g     F .text	0000000000000048 TEE_GetObjectInfo
000000000000ac10 g     F .text	0000000000000084 mpa_mul_mod
0000000000003fe4 g     F .text	000000000000000c utee_storage_obj_del
0000000000002e0c g     F .text	0000000000000150 TEE_AEUpdate
000000000000405c g     F .text	000000000000000c utee_storage_obj_seek
0000000000000dc4 g     F .text	0000000000000054 TEE_FreeTransientObject
00000000000074b0 g     F .text	000000000000013c mpa_compute_fmm_context
0000000000003ec4 g     F .text	000000000000000c utee_hash_update
0000000000008c74 g     F .text	0000000000000018 mpa_init_scratch_mem_sync
0000000000004134  w    F .text	0000000000000004 __utee_mcount
0000000000001f70 g     F .text	0000000000000048 TEE_GetOperationInfo
0000000000004960 g     F .text	0000000000000094 TEE_BigIntMod
00000000000040f8 g     F .text	000000000000000c utee_se_channel_select_next
0000000000003e28 g     F .text	000000000000000c utee_close_ta_session
00000000000048fc g     F .text	0000000000000064 TEE_BigIntDiv
00000000000057f0 g     F .text	0000000000000018 malloc_reset_stats
0000000000003ee8 g     F .text	000000000000000c utee_cipher_update
0000000000000b28 g     F .text	0000000000000044 TEE_RestrictObjectUsage1
00000000000040d4 g     F .text	000000000000000c utee_se_session_get_atr
0000000000005900 g     F .text	0000000000000050 realloc
0000000000009804 g     F .text	00000000000000cc __mpa_abs_add_ackum
0000000000003fc0 g     F .text	000000000000000c utee_asymm_verify
00000000000048e0 g     F .text	000000000000000c TEE_BigIntMul
0000000000002100 g     F .text	0000000000000078 TEE_ResetOperation
0000000000007ad4 g     F .text	0000000000000018 mpa_get_word
00000000000008d4 g     F .text	0000000000000008 TEE_MemFill
00000000000060d8 g     F .text	0000000000000034 memcmp
0000000000005d08 g     F .text	0000000000000114 malloc_add_pool
0000000000002a98 g     F .text	00000000000000a0 TEE_MACUpdate
0000000000006e84 g     F .text	0000000000000010 trace_get_level
0000000000003f6c g     F .text	000000000000000c utee_cryp_random_number_generate
0000000000000b6c g     F .text	0000000000000050 TEE_RestrictObjectUsage
00000000000047d4 g     F .text	0000000000000010 TEE_BigIntFMMSizeInU32
0000000000004788 g     F .text	0000000000000014 TEE_BigIntInitFMM
0000000000003fb4 g     F .text	000000000000000c utee_asymm_operate
0000000000000d38 g     F .text	0000000000000028 TEE_CloseObject
0000000000003bcc g     F .text	0000000000000208 __utee_entry
000000000000ada8 g       .text	0000000000000000 __text_end
0000000000004c84 g     F .text	0000000000000078 TEE_BigIntRelativePrime
0000000000009274 g     F .text	000000000000006c mpa_get_random_digits
0000000000005684 g     F .text	00000000000000d4 bpool
0000000000007a20 g     F .text	000000000000002c mpa_set_S32
000000000000a34c g     F .text	0000000000000068 mpa_init_static_fmm_context
0000000000000814 g     F .text	000000000000002c TEE_GetCancellationFlag
0000000000004080 g     F .text	000000000000000c utee_se_service_close
0000000000004294 g     F .text	000000000000014c tee_user_mem_alloc
000000000000d0f0 g     O .data	0000000000000010 user_mem_head
00000000000009c0 g     F .text	0000000000000040 TEE_SetTAPersistentTime
0000000000009d30 g     F .text	000000000000013c mpa_add_word
0000000000004098 g     F .text	000000000000000c utee_se_reader_get_prop
0000000000006178 g     F .text	000000000000001c memset
0000000000000940 g     F .text	0000000000000080 TEE_GetTAPersistentTime
00000000000070c0 g     F .text	0000000000000004 dhex_dump
00000000000011ec g     F .text	00000000000000c8 TEE_CreatePersistentObject
000000000000086c g     F .text	000000000000002c TEE_MaskCancellation
00000000000096cc g     F .text	0000000000000024 __mpa_full_sub
0000000000002d78 g     F .text	0000000000000094 TEE_AEUpdateAAD
0000000000004038 g     F .text	000000000000000c utee_storage_obj_read
00000000000015dc g     F .text	000000000000005c TEE_TruncateObjectData
0000000000004e24 g     F .text	0000000000000004 utee_calloc
0000000000003f48 g     F .text	000000000000000c utee_cryp_obj_populate
000000000000a088 g     F .text	0000000000000068 mpa_cmp
000000000000ac94 g     F .text	0000000000000114 mpa_inv_mod
0000000000009e6c g     F .text	0000000000000138 mpa_sub_word
0000000000008de8 g     F .text	0000000000000018 __mpa_mul_add_word
00000000000099d4 g     F .text	0000000000000194 mpa_add
000000000000a174 g     F .text	00000000000001bc mpa_exp_mod
0000000000000ae8 g     F .text	0000000000000040 TEE_GetObjectInfo1
0000000000009378 g     F .text	0000000000000064 __mpa_shift_words_right
0000000000006e60 g     F .text	0000000000000024 trace_set_level
00000000000040c8 g     F .text	000000000000000c utee_se_session_is_closed
0000000000003f00 g     F .text	000000000000000c utee_cryp_obj_get_info
0000000000000c68 g     F .text	00000000000000d0 TEE_GetObjectValueAttribute
0000000000002178 g     F .text	00000000000000f0 TEE_SetOperationKey
0000000000003ffc g     F .text	000000000000000c utee_storage_alloc_enum
0000000000004014 g     F .text	000000000000000c utee_storage_reset_enum
0000000000004050 g     F .text	000000000000000c utee_storage_obj_trunc
000000000000aaf0 g     F .text	0000000000000018 mpa_mod
000000000000a054 g     F .text	000000000000001c __mpa_abs_greater_than
0000000000004864 g     F .text	0000000000000020 TEE_BigIntConvertToS32
00000000000048d0 g     F .text	000000000000000c TEE_BigIntSub
0000000000003e40 g     F .text	000000000000000c utee_get_cancellation_flag
0000000000003eb8 g     F .text	000000000000000c utee_hash_init
00000000000005bc g     F .text	0000000000000008 tahead_get_trace_level
00000000000005c4 g     F .text	0000000000000078 __utee_from_param
0000000000001638 g     F .text	00000000000000d0 TEE_SeekObjectData
000000000000af58 g     O .rodata	0000000000000010 Const_1_LShift_Base
000000000000063c g     F .text	000000000000006c __utee_to_param
0000000000005950 g     F .text	00000000000003b8 memalign
000000000000284c g     F .text	00000000000001a8 TEE_CipherDoFinal
0000000000004860 g     F .text	0000000000000004 TEE_BigIntConvertFromS32
000000000000ab8c g     F .text	0000000000000084 mpa_sub_mod
0000000000003f0c g     F .text	000000000000000c utee_cryp_obj_restrict_usage
0000000000005e1c g     F .text	0000000000000180 malloc_buffer_is_within_alloced
0000000000003f54 g     F .text	000000000000000c utee_cryp_obj_copy
000000000000956c g     F .text	0000000000000144 mpa_shift_right
000000000000479c g     F .text	0000000000000038 TEE_BigIntInitFMMContext
0000000000003f60 g     F .text	000000000000000c utee_cryp_derive_key
000000000000738c g     F .text	0000000000000124 __mpa_montgomery_mul
000000000000a97c g     F .text	0000000000000174 mpa_get_oct_str
000000000000a0f0 g     F .text	0000000000000084 mpa_cmp_short
0000000000003fa8 g     F .text	000000000000000c utee_authenc_dec_final
0000000000001578 g     F .text	0000000000000064 TEE_WriteObjectData
0000000000001414 g     F .text	0000000000000028 TEE_ResetPersistentObjectEnumerator
0000000000009fa4 g     F .text	00000000000000b0 __mpa_abs_cmp
00000000000048ec g     F .text	0000000000000010 TEE_BigIntSquare
0000000000000020 g     F .text	0000000000000008 TA_CreateEntryPoint
0000000000006dac g     F .text	0000000000000074 snprintk
00000000000048ac g     F .text	0000000000000018 TEE_BigIntGetBitCount
0000000000004b44 g     F .text	00000000000000c8 TEE_BigIntMulMod
0000000000003790 g     F .text	0000000000000144 TEE_DeriveKey
000000000000d158 g     O .bss	0000000000000040 ta_params
0000000000008eb8 g     F .text	00000000000000f4 __mpa_abs_mul
00000000000050f8 g     F .text	00000000000001c0 bget
0000000000000d60 g     F .text	0000000000000064 TEE_AllocateTransientObject
0000000000000a38 g     F .text	0000000000000004 TEE_Free
00000000000040a4 g     F .text	000000000000000c utee_se_reader_get_name
0000000000000a4c g     F .text	0000000000000008 TEE_CacheInvalidate
0000000000003edc g     F .text	000000000000000c utee_cipher_init
0000000000004744 g     F .text	0000000000000014 _assert_break
00000000000049f4 g     F .text	00000000000000a8 TEE_BigIntAddMod
0000000000004008 g     F .text	000000000000000c utee_storage_free_enum
0000000000003f84 g     F .text	000000000000000c utee_authenc_update_aad
000000000000720c g     F .text	0000000000000044 mpa_get_bit
000000000000174c g     F .text	0000000000000824 TEE_AllocateOperation
0000000000008c8c g     F .text	0000000000000018 mpa_init_scratch_mem
00000000000038d4 g     F .text	0000000000000024 TEE_GenerateRandom
00000000000008cc g     F .text	0000000000000008 TEE_MemCompare
00000000000061b0 g     F .text	0000000000000ba8 __vsnprintf
00000000000013ec g     F .text	0000000000000028 TEE_FreePersistentObjectEnumerator
0000000000003dd4 g     F .text	000000000000000c utee_panic
00000000000006a8 g     F .text	0000000000000090 TEE_OpenTASession
0000000000004e30 g     F .text	0000000000000028 trace_ext_puts
0000000000004688 g     F .text	0000000000000078 tee_user_mem_garbage
0000000000004e58 g     F .text	0000000000000008 trace_ext_get_thread_id
00000000000012f8 g     F .text	000000000000002c TEE_CloseAndDeletePersistentObject
0000000000000a3c g     F .text	0000000000000008 TEE_CacheClean
0000000000003e1c g     F .text	000000000000000c utee_open_ta_session
0000000000006e20 g     F .text	0000000000000040 buf_compare_ct
0000000000007aec g     F .text	0000000000000050 __mpa_div_dword
00000000000070f0 g     F .text	0000000000000024 __mpa_set_unused_digits_to_zero
000000000000af68 g     O .rodata	000000000000000c const_largest_deci_base
000000000000a548 g     F .text	0000000000000008 mpa_get_str_size
00000000000045ec g     F .text	000000000000009c tee_user_mem_check_heap
0000000000000fd0 g     F .text	00000000000000ac TEE_CopyObjectAttributes1
0000000000003ed0 g     F .text	000000000000000c utee_hash_final
0000000000006194 g     F .text	000000000000001c strlen
0000000000004cfc g     F .text	000000000000000c TEE_BigIntComputeExtendedGcd
0000000000008a88 g     F .text	00000000000001ec mpa_extended_gcd
000000000000ab08 g     F .text	0000000000000084 mpa_add_mod
0000000000003fcc g     F .text	000000000000000c utee_storage_obj_open
0000000000003e34 g     F .text	000000000000000c utee_invoke_ta_command
000000000000a7e8 g     F .text	0000000000000084 mpa_get_str
0000000000003e70 g     F .text	000000000000000c utee_wait
0000000000004e28 g     F .text	0000000000000004 utee_free
00000000000045e0 g     F .text	000000000000000c tee_user_mem_mark_heap
00000000000008dc g     F .text	0000000000000028 TEE_GetSystemTime
0000000000000000 g     O .ta_head	0000000000000020 ta_head
0000000000005340 g     F .text	000000000000029c brel
0000000000008ca4 g     F .text	00000000000000e8 mpa_alloc_static_temp_var_size
0000000000003e7c g     F .text	000000000000000c utee_get_time
0000000000007284 g     F .text	0000000000000078 __mpa_montgomery_mul_add
00000000000008ac g     F .text	000000000000000c TEE_SetInstanceData
0000000000003e58 g     F .text	000000000000000c utee_unmask_cancellation
0000000000003e4c g     F .text	000000000000000c utee_check_access_rights
00000000000040bc g     F .text	000000000000000c utee_se_reader_close_sessions
000000000000148c g     F .text	0000000000000084 TEE_GetNextPersistentObject
0000000000004068 g     F .text	000000000000000c utee_cryp_obj_generate_key
0000000000007278 g     F .text	000000000000000c mpa_constant_one
0000000000000738 g     F .text	0000000000000028 TEE_CloseTASession
0000000000003664 g     F .text	000000000000012c TEE_AsymmetricVerifyDigest
00000000000096b0 g     F .text	000000000000001c __mpa_full_adder
00000000000098d0 g     F .text	0000000000000104 __mpa_abs_sub
0000000000017d48 g       .bss	0000000000000000 __gprof_buf_start
0000000000005888 g     F .text	0000000000000014 free
0000000000005758 g     F .text	0000000000000098 bstats
0000000000002b38 g     F .text	00000000000000bc TEE_MACComputeFinal



Disassembly of section .text:

0000000000000020 <TA_CreateEntryPoint>:
TA_CreateEntryPoint():
/home/ubuntu/rpi3_optee_cachegrab/apps/aes/ta/aes_ta.c:368
      20:	52800000 	mov	w0, #0x0                   	// #0
      24:	d65f03c0 	ret

0000000000000028 <TA_DestroyEntryPoint>:
TA_DestroyEntryPoint():
/home/ubuntu/rpi3_optee_cachegrab/apps/aes/ta/aes_ta.c:373
      28:	d65f03c0 	ret

000000000000002c <TA_OpenSessionEntryPoint>:
TA_OpenSessionEntryPoint():
/home/ubuntu/rpi3_optee_cachegrab/apps/aes/ta/aes_ta.c:378
      2c:	a9be7bfd 	stp	x29, x30, [sp, #-32]!
/home/ubuntu/rpi3_optee_cachegrab/apps/aes/ta/aes_ta.c:386
      30:	52800001 	mov	w1, #0x0                   	// #0
      34:	52800400 	mov	w0, #0x20                  	// #32
/home/ubuntu/rpi3_optee_cachegrab/apps/aes/ta/aes_ta.c:378
      38:	910003fd 	mov	x29, sp
      3c:	f9000bf3 	str	x19, [sp, #16]
      40:	aa0203f3 	mov	x19, x2
/home/ubuntu/rpi3_optee_cachegrab/apps/aes/ta/aes_ta.c:386
      44:	94000279 	bl	a28 <TEE_Malloc>
/home/ubuntu/rpi3_optee_cachegrab/apps/aes/ta/aes_ta.c:387
      48:	b4000200 	cbz	x0, 88 <TA_OpenSessionEntryPoint+0x5c>
/home/ubuntu/rpi3_optee_cachegrab/apps/aes/ta/aes_ta.c:390
      4c:	a9017c1f 	stp	xzr, xzr, [x0, #16]
/home/ubuntu/rpi3_optee_cachegrab/apps/aes/ta/aes_ta.c:394
      50:	aa0003e5 	mov	x5, x0
/home/ubuntu/rpi3_optee_cachegrab/apps/aes/ta/aes_ta.c:393
      54:	f9000260 	str	x0, [x19]
/home/ubuntu/rpi3_optee_cachegrab/apps/aes/ta/aes_ta.c:394
      58:	f0000044 	adrp	x4, b000 <PRIME_TABLE+0x88>
      5c:	52800023 	mov	w3, #0x1                   	// #1
      60:	91365c84 	add	x4, x4, #0xd97
      64:	52800062 	mov	w2, #0x3                   	// #3
      68:	52803141 	mov	w1, #0x18a                 	// #394
      6c:	f0000040 	adrp	x0, b000 <PRIME_TABLE+0x88>
      70:	91335000 	add	x0, x0, #0xcd4
      74:	94001b88 	bl	6e94 <trace_printf>
/home/ubuntu/rpi3_optee_cachegrab/apps/aes/ta/aes_ta.c:396
      78:	52800000 	mov	w0, #0x0                   	// #0
/home/ubuntu/rpi3_optee_cachegrab/apps/aes/ta/aes_ta.c:397
      7c:	f9400bf3 	ldr	x19, [sp, #16]
      80:	a8c27bfd 	ldp	x29, x30, [sp], #32
      84:	d65f03c0 	ret
/home/ubuntu/rpi3_optee_cachegrab/apps/aes/ta/aes_ta.c:388
      88:	129ffe60 	mov	w0, #0xffff000c            	// #-65524
      8c:	17fffffc 	b	7c <TA_OpenSessionEntryPoint+0x50>

0000000000000090 <TA_CloseSessionEntryPoint>:
TA_CloseSessionEntryPoint():
/home/ubuntu/rpi3_optee_cachegrab/apps/aes/ta/aes_ta.c:400
      90:	a9be7bfd 	stp	x29, x30, [sp, #-32]!
/home/ubuntu/rpi3_optee_cachegrab/apps/aes/ta/aes_ta.c:404
      94:	aa0003e5 	mov	x5, x0
      98:	f0000044 	adrp	x4, b000 <PRIME_TABLE+0x88>
      9c:	52800023 	mov	w3, #0x1                   	// #1
/home/ubuntu/rpi3_optee_cachegrab/apps/aes/ta/aes_ta.c:400
      a0:	910003fd 	mov	x29, sp
      a4:	f9000bf3 	str	x19, [sp, #16]
      a8:	aa0003f3 	mov	x19, x0
/home/ubuntu/rpi3_optee_cachegrab/apps/aes/ta/aes_ta.c:404
      ac:	f0000040 	adrp	x0, b000 <PRIME_TABLE+0x88>
      b0:	91335000 	add	x0, x0, #0xcd4
      b4:	91006400 	add	x0, x0, #0x19
      b8:	9136cc84 	add	x4, x4, #0xdb3
      bc:	52800062 	mov	w2, #0x3                   	// #3
      c0:	52803281 	mov	w1, #0x194                 	// #404
      c4:	94001b74 	bl	6e94 <trace_printf>
/home/ubuntu/rpi3_optee_cachegrab/apps/aes/ta/aes_ta.c:408
      c8:	f9400e60 	ldr	x0, [x19, #24]
      cc:	b4000040 	cbz	x0, d4 <TA_CloseSessionEntryPoint+0x44>
/home/ubuntu/rpi3_optee_cachegrab/apps/aes/ta/aes_ta.c:409
      d0:	9400033d 	bl	dc4 <TEE_FreeTransientObject>
/home/ubuntu/rpi3_optee_cachegrab/apps/aes/ta/aes_ta.c:410
      d4:	f9400a60 	ldr	x0, [x19, #16]
      d8:	b4000040 	cbz	x0, e0 <TA_CloseSessionEntryPoint+0x50>
/home/ubuntu/rpi3_optee_cachegrab/apps/aes/ta/aes_ta.c:411
      dc:	9400058b 	bl	1708 <TEE_FreeOperation>
/home/ubuntu/rpi3_optee_cachegrab/apps/aes/ta/aes_ta.c:412
      e0:	aa1303e0 	mov	x0, x19
/home/ubuntu/rpi3_optee_cachegrab/apps/aes/ta/aes_ta.c:413
      e4:	f9400bf3 	ldr	x19, [sp, #16]
      e8:	a8c27bfd 	ldp	x29, x30, [sp], #32
/home/ubuntu/rpi3_optee_cachegrab/apps/aes/ta/aes_ta.c:412
      ec:	14000253 	b	a38 <TEE_Free>

00000000000000f0 <TA_InvokeCommandEntryPoint>:
TA_InvokeCommandEntryPoint():
/home/ubuntu/rpi3_optee_cachegrab/apps/aes/ta/aes_ta.c:419
      f0:	a9ba7bfd 	stp	x29, x30, [sp, #-96]!
/home/ubuntu/rpi3_optee_cachegrab/apps/aes/ta/aes_ta.c:420
      f4:	71000c3f 	cmp	w1, #0x3
/home/ubuntu/rpi3_optee_cachegrab/apps/aes/ta/aes_ta.c:419
      f8:	910003fd 	mov	x29, sp
      fc:	a9025bf5 	stp	x21, x22, [sp, #32]
     100:	2a0203f6 	mov	w22, w2
     104:	90000062 	adrp	x2, c000 <__func__.3927+0x294>
     108:	aa0003f5 	mov	x21, x0
     10c:	a90153f3 	stp	x19, x20, [sp, #16]
     110:	f0000053 	adrp	x19, b000 <PRIME_TABLE+0x88>
     114:	f9447042 	ldr	x2, [x2, #2272]
     118:	f9400040 	ldr	x0, [x2]
     11c:	f9002fa0 	str	x0, [x29, #88]
     120:	d2800000 	mov	x0, #0x0                   	// #0
     124:	f9001bf7 	str	x23, [sp, #48]
/home/ubuntu/rpi3_optee_cachegrab/apps/aes/ta/aes_ta.c:420
     128:	54002268 	b.hi	574 <TA_InvokeCommandEntryPoint+0x484>  // b.pmore
     12c:	f0000040 	adrp	x0, b000 <PRIME_TABLE+0x88>
     130:	aa0303f4 	mov	x20, x3
     134:	91333000 	add	x0, x0, #0xccc
     138:	78615800 	ldrh	w0, [x0, w1, uxtw #1]
     13c:	10000061 	adr	x1, 148 <TA_InvokeCommandEntryPoint+0x58>
     140:	8b20a820 	add	x0, x1, w0, sxth #2
     144:	d61f0000 	br	x0
alloc_resources():
/home/ubuntu/rpi3_optee_cachegrab/apps/aes/ta/aes_ta.c:124
     148:	91335277 	add	x23, x19, #0xcd4
     14c:	aa1503e5 	mov	x5, x21
     150:	f0000044 	adrp	x4, b000 <PRIME_TABLE+0x88>
     154:	52800023 	mov	w3, #0x1                   	// #1
     158:	91373c84 	add	x4, x4, #0xdcf
     15c:	52800062 	mov	w2, #0x3                   	// #3
     160:	52800f81 	mov	w1, #0x7c                  	// #124
     164:	9100cee0 	add	x0, x23, #0x33
     168:	94001b4b 	bl	6e94 <trace_printf>
/home/ubuntu/rpi3_optee_cachegrab/apps/aes/ta/aes_ta.c:128
     16c:	710446df 	cmp	w22, #0x111
     170:	540001c1 	b.ne	1a8 <TA_InvokeCommandEntryPoint+0xb8>  // b.any
/home/ubuntu/rpi3_optee_cachegrab/apps/aes/ta/aes_ta.c:131
     174:	b9400285 	ldr	w5, [x20]
ta2tee_algo_id():
/home/ubuntu/rpi3_optee_cachegrab/apps/aes/ta/aes_ta.c:59
     178:	710004bf 	cmp	w5, #0x1
     17c:	54000520 	b.eq	220 <TA_InvokeCommandEntryPoint+0x130>  // b.none
     180:	34000265 	cbz	w5, 1cc <TA_InvokeCommandEntryPoint+0xdc>
     184:	710008bf 	cmp	w5, #0x2
     188:	54000500 	b.eq	228 <TA_InvokeCommandEntryPoint+0x138>  // b.none
/home/ubuntu/rpi3_optee_cachegrab/apps/aes/ta/aes_ta.c:70
     18c:	f0000044 	adrp	x4, b000 <PRIME_TABLE+0x88>
     190:	91010ee0 	add	x0, x23, #0x43
     194:	9137cc84 	add	x4, x4, #0xdf3
     198:	52800023 	mov	w3, #0x1                   	// #1
     19c:	52800022 	mov	w2, #0x1                   	// #1
     1a0:	528008c1 	mov	w1, #0x46                  	// #70
ta2tee_key_size():
/home/ubuntu/rpi3_optee_cachegrab/apps/aes/ta/aes_ta.c:82
     1a4:	94001b3c 	bl	6e94 <trace_printf>
/home/ubuntu/rpi3_optee_cachegrab/apps/aes/ta/aes_ta.c:83
     1a8:	129fff34 	mov	w20, #0xffff0006            	// #-65530
TA_InvokeCommandEntryPoint():
/home/ubuntu/rpi3_optee_cachegrab/apps/aes/ta/aes_ta.c:433
     1ac:	90000062 	adrp	x2, c000 <__func__.3927+0x294>
     1b0:	2a1403e0 	mov	w0, w20
     1b4:	f9447042 	ldr	x2, [x2, #2272]
     1b8:	f9402fa3 	ldr	x3, [x29, #88]
     1bc:	f9400041 	ldr	x1, [x2]
     1c0:	ca010061 	eor	x1, x3, x1
     1c4:	b4001f21 	cbz	x1, 5a8 <TA_InvokeCommandEntryPoint+0x4b8>
     1c8:	940017c3 	bl	60d4 <__stack_chk_fail>
ta2tee_algo_id():
/home/ubuntu/rpi3_optee_cachegrab/apps/aes/ta/aes_ta.c:61
     1cc:	52800200 	mov	w0, #0x10                  	// #16
/home/ubuntu/rpi3_optee_cachegrab/apps/aes/ta/aes_ta.c:64
     1d0:	72a20000 	movk	w0, #0x1000, lsl #16
     1d4:	b90002a0 	str	w0, [x21]
alloc_resources():
/home/ubuntu/rpi3_optee_cachegrab/apps/aes/ta/aes_ta.c:135
     1d8:	b9401285 	ldr	w5, [x20, #16]
ta2tee_key_size():
/home/ubuntu/rpi3_optee_cachegrab/apps/aes/ta/aes_ta.c:76
     1dc:	710040bf 	cmp	w5, #0x10
     1e0:	54000060 	b.eq	1ec <TA_InvokeCommandEntryPoint+0xfc>  // b.none
     1e4:	710080bf 	cmp	w5, #0x20
     1e8:	54000241 	b.ne	230 <TA_InvokeCommandEntryPoint+0x140>  // b.any
/home/ubuntu/rpi3_optee_cachegrab/apps/aes/ta/aes_ta.c:79
     1ec:	b9000aa5 	str	w5, [x21, #8]
alloc_resources():
/home/ubuntu/rpi3_optee_cachegrab/apps/aes/ta/aes_ta.c:139
     1f0:	b9402285 	ldr	w5, [x20, #32]
ta2tee_mode_id():
/home/ubuntu/rpi3_optee_cachegrab/apps/aes/ta/aes_ta.c:88
     1f4:	34000685 	cbz	w5, 2c4 <TA_InvokeCommandEntryPoint+0x1d4>
     1f8:	710004bf 	cmp	w5, #0x1
     1fc:	540002a0 	b.eq	250 <TA_InvokeCommandEntryPoint+0x160>  // b.none
/home/ubuntu/rpi3_optee_cachegrab/apps/aes/ta/aes_ta.c:96
     200:	91335260 	add	x0, x19, #0xcd4
     204:	f0000044 	adrp	x4, b000 <PRIME_TABLE+0x88>
     208:	52800023 	mov	w3, #0x1                   	// #1
     20c:	91385c84 	add	x4, x4, #0xe17
     210:	52800022 	mov	w2, #0x1                   	// #1
     214:	52800c01 	mov	w1, #0x60                  	// #96
     218:	91018800 	add	x0, x0, #0x62
     21c:	17ffffe2 	b	1a4 <TA_InvokeCommandEntryPoint+0xb4>
ta2tee_algo_id():
/home/ubuntu/rpi3_optee_cachegrab/apps/aes/ta/aes_ta.c:64
     220:	52802200 	mov	w0, #0x110                 	// #272
     224:	17ffffeb 	b	1d0 <TA_InvokeCommandEntryPoint+0xe0>
/home/ubuntu/rpi3_optee_cachegrab/apps/aes/ta/aes_ta.c:67
     228:	52804200 	mov	w0, #0x210                 	// #528
     22c:	17ffffe9 	b	1d0 <TA_InvokeCommandEntryPoint+0xe0>
ta2tee_key_size():
/home/ubuntu/rpi3_optee_cachegrab/apps/aes/ta/aes_ta.c:82
     230:	91335260 	add	x0, x19, #0xcd4
     234:	f0000044 	adrp	x4, b000 <PRIME_TABLE+0x88>
     238:	52800023 	mov	w3, #0x1                   	// #1
     23c:	91380c84 	add	x4, x4, #0xe03
     240:	52800022 	mov	w2, #0x1                   	// #1
     244:	52800a41 	mov	w1, #0x52                  	// #82
     248:	91014800 	add	x0, x0, #0x52
     24c:	17ffffd6 	b	1a4 <TA_InvokeCommandEntryPoint+0xb4>
ta2tee_mode_id():
/home/ubuntu/rpi3_optee_cachegrab/apps/aes/ta/aes_ta.c:90
     250:	b90006bf 	str	wzr, [x21, #4]
alloc_resources():
/home/ubuntu/rpi3_optee_cachegrab/apps/aes/ta/aes_ta.c:151
     254:	f9400aa0 	ldr	x0, [x21, #16]
     258:	b4000040 	cbz	x0, 260 <TA_InvokeCommandEntryPoint+0x170>
/home/ubuntu/rpi3_optee_cachegrab/apps/aes/ta/aes_ta.c:152
     25c:	9400052b 	bl	1708 <TEE_FreeOperation>
/home/ubuntu/rpi3_optee_cachegrab/apps/aes/ta/aes_ta.c:155
     260:	29400aa1 	ldp	w1, w2, [x21]
     264:	910042a0 	add	x0, x21, #0x10
     268:	b9400aa3 	ldr	w3, [x21, #8]
     26c:	531d7063 	lsl	w3, w3, #3
     270:	94000537 	bl	174c <TEE_AllocateOperation>
     274:	2a0003f4 	mov	w20, w0
/home/ubuntu/rpi3_optee_cachegrab/apps/aes/ta/aes_ta.c:159
     278:	340002c0 	cbz	w0, 2d0 <TA_InvokeCommandEntryPoint+0x1e0>
/home/ubuntu/rpi3_optee_cachegrab/apps/aes/ta/aes_ta.c:160
     27c:	91335260 	add	x0, x19, #0xcd4
     280:	f0000044 	adrp	x4, b000 <PRIME_TABLE+0x88>
     284:	52800023 	mov	w3, #0x1                   	// #1
     288:	91389c84 	add	x4, x4, #0xe27
     28c:	52800022 	mov	w2, #0x1                   	// #1
     290:	52801401 	mov	w1, #0xa0                  	// #160
     294:	9100cc00 	add	x0, x0, #0x33
     298:	94001aff 	bl	6e94 <trace_printf>
/home/ubuntu/rpi3_optee_cachegrab/apps/aes/ta/aes_ta.c:161
     29c:	f9000abf 	str	xzr, [x21, #16]
/home/ubuntu/rpi3_optee_cachegrab/apps/aes/ta/aes_ta.c:211
     2a0:	f9400aa0 	ldr	x0, [x21, #16]
     2a4:	b4000040 	cbz	x0, 2ac <TA_InvokeCommandEntryPoint+0x1bc>
/home/ubuntu/rpi3_optee_cachegrab/apps/aes/ta/aes_ta.c:212
     2a8:	94000518 	bl	1708 <TEE_FreeOperation>
/home/ubuntu/rpi3_optee_cachegrab/apps/aes/ta/aes_ta.c:215
     2ac:	f9400ea0 	ldr	x0, [x21, #24]
/home/ubuntu/rpi3_optee_cachegrab/apps/aes/ta/aes_ta.c:213
     2b0:	f9000abf 	str	xzr, [x21, #16]
/home/ubuntu/rpi3_optee_cachegrab/apps/aes/ta/aes_ta.c:215
     2b4:	b4000040 	cbz	x0, 2bc <TA_InvokeCommandEntryPoint+0x1cc>
/home/ubuntu/rpi3_optee_cachegrab/apps/aes/ta/aes_ta.c:216
     2b8:	940002c3 	bl	dc4 <TEE_FreeTransientObject>
/home/ubuntu/rpi3_optee_cachegrab/apps/aes/ta/aes_ta.c:217
     2bc:	f9000ebf 	str	xzr, [x21, #24]
     2c0:	17ffffbb 	b	1ac <TA_InvokeCommandEntryPoint+0xbc>
ta2tee_mode_id():
/home/ubuntu/rpi3_optee_cachegrab/apps/aes/ta/aes_ta.c:93
     2c4:	52800020 	mov	w0, #0x1                   	// #1
     2c8:	b90006a0 	str	w0, [x21, #4]
     2cc:	17ffffe2 	b	254 <TA_InvokeCommandEntryPoint+0x164>
alloc_resources():
/home/ubuntu/rpi3_optee_cachegrab/apps/aes/ta/aes_ta.c:166
     2d0:	f9400ea0 	ldr	x0, [x21, #24]
     2d4:	b4000040 	cbz	x0, 2dc <TA_InvokeCommandEntryPoint+0x1ec>
/home/ubuntu/rpi3_optee_cachegrab/apps/aes/ta/aes_ta.c:167
     2d8:	940002bb 	bl	dc4 <TEE_FreeTransientObject>
/home/ubuntu/rpi3_optee_cachegrab/apps/aes/ta/aes_ta.c:170
     2dc:	b9400aa1 	ldr	w1, [x21, #8]
     2e0:	52800200 	mov	w0, #0x10                  	// #16
     2e4:	910062a2 	add	x2, x21, #0x18
     2e8:	72b40000 	movk	w0, #0xa000, lsl #16
     2ec:	531d7021 	lsl	w1, w1, #3
     2f0:	9400029c 	bl	d60 <TEE_AllocateTransientObject>
     2f4:	2a0003f4 	mov	w20, w0
/home/ubuntu/rpi3_optee_cachegrab/apps/aes/ta/aes_ta.c:173
     2f8:	34000160 	cbz	w0, 324 <TA_InvokeCommandEntryPoint+0x234>
/home/ubuntu/rpi3_optee_cachegrab/apps/aes/ta/aes_ta.c:174
     2fc:	91335260 	add	x0, x19, #0xcd4
     300:	f0000044 	adrp	x4, b000 <PRIME_TABLE+0x88>
     304:	52800023 	mov	w3, #0x1                   	// #1
     308:	91391084 	add	x4, x4, #0xe44
     30c:	52800022 	mov	w2, #0x1                   	// #1
     310:	528015c1 	mov	w1, #0xae                  	// #174
     314:	9100cc00 	add	x0, x0, #0x33
     318:	94001adf 	bl	6e94 <trace_printf>
/home/ubuntu/rpi3_optee_cachegrab/apps/aes/ta/aes_ta.c:175
     31c:	f9000ebf 	str	xzr, [x21, #24]
     320:	17ffffe0 	b	2a0 <TA_InvokeCommandEntryPoint+0x1b0>
/home/ubuntu/rpi3_optee_cachegrab/apps/aes/ta/aes_ta.c:188
     324:	b9400aa0 	ldr	w0, [x21, #8]
     328:	52800001 	mov	w1, #0x0                   	// #0
     32c:	940001bf 	bl	a28 <TEE_Malloc>
/home/ubuntu/rpi3_optee_cachegrab/apps/aes/ta/aes_ta.c:189
     330:	b4000460 	cbz	x0, 3bc <TA_InvokeCommandEntryPoint+0x2cc>
/home/ubuntu/rpi3_optee_cachegrab/apps/aes/ta/aes_ta.c:194
     334:	b9400aa3 	ldr	w3, [x21, #8]
     338:	910103b4 	add	x20, x29, #0x40
     33c:	aa0003e2 	mov	x2, x0
     340:	52b80001 	mov	w1, #0xc0000000            	// #-1073741824
     344:	aa1403e0 	mov	x0, x20
     348:	940002f9 	bl	f2c <TEE_InitRefAttribute>
/home/ubuntu/rpi3_optee_cachegrab/apps/aes/ta/aes_ta.c:196
     34c:	f9400ea0 	ldr	x0, [x21, #24]
     350:	aa1403e1 	mov	x1, x20
     354:	52800022 	mov	w2, #0x1                   	// #1
     358:	940002c5 	bl	e6c <TEE_PopulateTransientObject>
     35c:	2a0003f4 	mov	w20, w0
/home/ubuntu/rpi3_optee_cachegrab/apps/aes/ta/aes_ta.c:197
     360:	34000160 	cbz	w0, 38c <TA_InvokeCommandEntryPoint+0x29c>
/home/ubuntu/rpi3_optee_cachegrab/apps/aes/ta/aes_ta.c:198
     364:	f0000044 	adrp	x4, b000 <PRIME_TABLE+0x88>
     368:	91335260 	add	x0, x19, #0xcd4
     36c:	2a1403e5 	mov	w5, w20
     370:	9139a084 	add	x4, x4, #0xe68
     374:	52800023 	mov	w3, #0x1                   	// #1
     378:	52800022 	mov	w2, #0x1                   	// #1
     37c:	528018c1 	mov	w1, #0xc6                  	// #198
/home/ubuntu/rpi3_optee_cachegrab/apps/aes/ta/aes_ta.c:204
     380:	9100cc00 	add	x0, x0, #0x33
     384:	94001ac4 	bl	6e94 <trace_printf>
     388:	17ffffc6 	b	2a0 <TA_InvokeCommandEntryPoint+0x1b0>
/home/ubuntu/rpi3_optee_cachegrab/apps/aes/ta/aes_ta.c:202
     38c:	a94106a0 	ldp	x0, x1, [x21, #16]
     390:	9400077a 	bl	2178 <TEE_SetOperationKey>
     394:	2a0003f4 	mov	w20, w0
/home/ubuntu/rpi3_optee_cachegrab/apps/aes/ta/aes_ta.c:203
     398:	34fff0a0 	cbz	w0, 1ac <TA_InvokeCommandEntryPoint+0xbc>
/home/ubuntu/rpi3_optee_cachegrab/apps/aes/ta/aes_ta.c:204
     39c:	f0000044 	adrp	x4, b000 <PRIME_TABLE+0x88>
     3a0:	91335260 	add	x0, x19, #0xcd4
     3a4:	2a1403e5 	mov	w5, w20
     3a8:	913a3c84 	add	x4, x4, #0xe8f
     3ac:	52800023 	mov	w3, #0x1                   	// #1
     3b0:	52800022 	mov	w2, #0x1                   	// #1
     3b4:	52801981 	mov	w1, #0xcc                  	// #204
     3b8:	17fffff2 	b	380 <TA_InvokeCommandEntryPoint+0x290>
/home/ubuntu/rpi3_optee_cachegrab/apps/aes/ta/aes_ta.c:190
     3bc:	129ffe74 	mov	w20, #0xffff000c            	// #-65524
     3c0:	17ffffb8 	b	2a0 <TA_InvokeCommandEntryPoint+0x1b0>
set_aes_key():
/home/ubuntu/rpi3_optee_cachegrab/apps/aes/ta/aes_ta.c:240
     3c4:	91335260 	add	x0, x19, #0xcd4
     3c8:	aa1503e5 	mov	x5, x21
     3cc:	9101c413 	add	x19, x0, #0x71
     3d0:	f0000044 	adrp	x4, b000 <PRIME_TABLE+0x88>
     3d4:	52800023 	mov	w3, #0x1                   	// #1
     3d8:	913ab484 	add	x4, x4, #0xead
     3dc:	52800062 	mov	w2, #0x3                   	// #3
     3e0:	52801e01 	mov	w1, #0xf0                  	// #240
     3e4:	aa1303e0 	mov	x0, x19
     3e8:	94001aab 	bl	6e94 <trace_printf>
/home/ubuntu/rpi3_optee_cachegrab/apps/aes/ta/aes_ta.c:244
     3ec:	710016df 	cmp	w22, #0x5
     3f0:	54ffedc1 	b.ne	1a8 <TA_InvokeCommandEntryPoint+0xb8>  // b.any
/home/ubuntu/rpi3_optee_cachegrab/apps/aes/ta/aes_ta.c:248
     3f4:	b9400a83 	ldr	w3, [x20, #8]
/home/ubuntu/rpi3_optee_cachegrab/apps/aes/ta/aes_ta.c:250
     3f8:	b9400aa6 	ldr	w6, [x21, #8]
     3fc:	6b06007f 	cmp	w3, w6
     400:	54000140 	b.eq	428 <TA_InvokeCommandEntryPoint+0x338>  // b.none
/home/ubuntu/rpi3_optee_cachegrab/apps/aes/ta/aes_ta.c:251
     404:	f0000044 	adrp	x4, b000 <PRIME_TABLE+0x88>
     408:	913b2c84 	add	x4, x4, #0xecb
     40c:	2a0303e5 	mov	w5, w3
     410:	52800022 	mov	w2, #0x1                   	// #1
     414:	52800023 	mov	w3, #0x1                   	// #1
     418:	52801f81 	mov	w1, #0xfc                  	// #252
cipher_buffer():
/home/ubuntu/rpi3_optee_cachegrab/apps/aes/ta/aes_ta.c:348
     41c:	aa1303e0 	mov	x0, x19
     420:	94001a9d 	bl	6e94 <trace_printf>
     424:	17ffff61 	b	1a8 <TA_InvokeCommandEntryPoint+0xb8>
set_aes_key():
/home/ubuntu/rpi3_optee_cachegrab/apps/aes/ta/aes_ta.c:273
     428:	f9400282 	ldr	x2, [x20]
     42c:	910103a0 	add	x0, x29, #0x40
     430:	aa0003f4 	mov	x20, x0
     434:	52b80001 	mov	w1, #0xc0000000            	// #-1073741824
     438:	940002bd 	bl	f2c <TEE_InitRefAttribute>
/home/ubuntu/rpi3_optee_cachegrab/apps/aes/ta/aes_ta.c:275
     43c:	f9400ea0 	ldr	x0, [x21, #24]
     440:	94000276 	bl	e18 <TEE_ResetTransientObject>
/home/ubuntu/rpi3_optee_cachegrab/apps/aes/ta/aes_ta.c:276
     444:	f9400ea0 	ldr	x0, [x21, #24]
     448:	aa1403e1 	mov	x1, x20
     44c:	52800022 	mov	w2, #0x1                   	// #1
     450:	94000287 	bl	e6c <TEE_PopulateTransientObject>
     454:	2a0003f4 	mov	w20, w0
/home/ubuntu/rpi3_optee_cachegrab/apps/aes/ta/aes_ta.c:277
     458:	34000140 	cbz	w0, 480 <TA_InvokeCommandEntryPoint+0x390>
/home/ubuntu/rpi3_optee_cachegrab/apps/aes/ta/aes_ta.c:278
     45c:	f0000044 	adrp	x4, b000 <PRIME_TABLE+0x88>
     460:	2a0003e5 	mov	w5, w0
     464:	9139a084 	add	x4, x4, #0xe68
     468:	52800023 	mov	w3, #0x1                   	// #1
     46c:	52800022 	mov	w2, #0x1                   	// #1
     470:	528022c1 	mov	w1, #0x116                 	// #278
/home/ubuntu/rpi3_optee_cachegrab/apps/aes/ta/aes_ta.c:285
     474:	aa1303e0 	mov	x0, x19
     478:	94001a87 	bl	6e94 <trace_printf>
     47c:	17ffff4c 	b	1ac <TA_InvokeCommandEntryPoint+0xbc>
/home/ubuntu/rpi3_optee_cachegrab/apps/aes/ta/aes_ta.c:282
     480:	f9400aa0 	ldr	x0, [x21, #16]
     484:	9400071f 	bl	2100 <TEE_ResetOperation>
/home/ubuntu/rpi3_optee_cachegrab/apps/aes/ta/aes_ta.c:283
     488:	a94106a0 	ldp	x0, x1, [x21, #16]
     48c:	9400073b 	bl	2178 <TEE_SetOperationKey>
     490:	2a0003f4 	mov	w20, w0
/home/ubuntu/rpi3_optee_cachegrab/apps/aes/ta/aes_ta.c:284
     494:	34ffe8c0 	cbz	w0, 1ac <TA_InvokeCommandEntryPoint+0xbc>
/home/ubuntu/rpi3_optee_cachegrab/apps/aes/ta/aes_ta.c:285
     498:	f0000044 	adrp	x4, b000 <PRIME_TABLE+0x88>
     49c:	2a0003e5 	mov	w5, w0
     4a0:	913a3c84 	add	x4, x4, #0xe8f
     4a4:	52800023 	mov	w3, #0x1                   	// #1
     4a8:	52800022 	mov	w2, #0x1                   	// #1
     4ac:	528023a1 	mov	w1, #0x11d                 	// #285
     4b0:	17fffff1 	b	474 <TA_InvokeCommandEntryPoint+0x384>
reset_aes_iv():
/home/ubuntu/rpi3_optee_cachegrab/apps/aes/ta/aes_ta.c:308
     4b4:	91335260 	add	x0, x19, #0xcd4
     4b8:	aa1503e5 	mov	x5, x21
     4bc:	f0000044 	adrp	x4, b000 <PRIME_TABLE+0x88>
     4c0:	52800023 	mov	w3, #0x1                   	// #1
     4c4:	913bb884 	add	x4, x4, #0xeee
     4c8:	52800062 	mov	w2, #0x3                   	// #3
     4cc:	52802681 	mov	w1, #0x134                 	// #308
     4d0:	9101f400 	add	x0, x0, #0x7d
     4d4:	94001a70 	bl	6e94 <trace_printf>
/home/ubuntu/rpi3_optee_cachegrab/apps/aes/ta/aes_ta.c:312
     4d8:	710016df 	cmp	w22, #0x5
     4dc:	54ffe661 	b.ne	1a8 <TA_InvokeCommandEntryPoint+0xb8>  // b.any
/home/ubuntu/rpi3_optee_cachegrab/apps/aes/ta/aes_ta.c:321
     4e0:	b9400a82 	ldr	w2, [x20, #8]
     4e4:	f9400281 	ldr	x1, [x20]
/home/ubuntu/rpi3_optee_cachegrab/apps/aes/ta/aes_ta.c:323
     4e8:	52800014 	mov	w20, #0x0                   	// #0
/home/ubuntu/rpi3_optee_cachegrab/apps/aes/ta/aes_ta.c:321
     4ec:	f9400aa0 	ldr	x0, [x21, #16]
     4f0:	94000857 	bl	264c <TEE_CipherInit>
     4f4:	17ffff2e 	b	1ac <TA_InvokeCommandEntryPoint+0xbc>
cipher_buffer():
/home/ubuntu/rpi3_optee_cachegrab/apps/aes/ta/aes_ta.c:340
     4f8:	91335260 	add	x0, x19, #0xcd4
     4fc:	aa1503e5 	mov	x5, x21
     500:	91022813 	add	x19, x0, #0x8a
     504:	f0000044 	adrp	x4, b000 <PRIME_TABLE+0x88>
     508:	52800023 	mov	w3, #0x1                   	// #1
     50c:	913c3c84 	add	x4, x4, #0xf0f
     510:	52800062 	mov	w2, #0x3                   	// #3
     514:	52802a81 	mov	w1, #0x154                 	// #340
     518:	aa1303e0 	mov	x0, x19
     51c:	94001a5e 	bl	6e94 <trace_printf>
/home/ubuntu/rpi3_optee_cachegrab/apps/aes/ta/aes_ta.c:344
     520:	710196df 	cmp	w22, #0x65
     524:	54ffe421 	b.ne	1a8 <TA_InvokeCommandEntryPoint+0xb8>  // b.any
/home/ubuntu/rpi3_optee_cachegrab/apps/aes/ta/aes_ta.c:347
     528:	b9400a82 	ldr	w2, [x20, #8]
     52c:	b9401a86 	ldr	w6, [x20, #24]
     530:	6b0200df 	cmp	w6, w2
     534:	54000102 	b.cs	554 <TA_InvokeCommandEntryPoint+0x464>  // b.hs, b.nlast
/home/ubuntu/rpi3_optee_cachegrab/apps/aes/ta/aes_ta.c:348
     538:	2a0203e5 	mov	w5, w2
     53c:	f0000044 	adrp	x4, b000 <PRIME_TABLE+0x88>
     540:	52800023 	mov	w3, #0x1                   	// #1
     544:	913ca484 	add	x4, x4, #0xf29
     548:	52800022 	mov	w2, #0x1                   	// #1
     54c:	52802ba1 	mov	w1, #0x15d                 	// #349
     550:	17ffffb3 	b	41c <TA_InvokeCommandEntryPoint+0x32c>
/home/ubuntu/rpi3_optee_cachegrab/apps/aes/ta/aes_ta.c:353
     554:	f9400aa0 	ldr	x0, [x21, #16]
     558:	b4000240 	cbz	x0, 5a0 <TA_InvokeCommandEntryPoint+0x4b0>
/home/ubuntu/rpi3_optee_cachegrab/apps/aes/ta/aes_ta.c:359
     55c:	f9400281 	ldr	x1, [x20]
     560:	91006284 	add	x4, x20, #0x18
     564:	f9400a83 	ldr	x3, [x20, #16]
     568:	94000862 	bl	26f0 <TEE_CipherUpdate>
     56c:	2a0003f4 	mov	w20, w0
     570:	17ffff0f 	b	1ac <TA_InvokeCommandEntryPoint+0xbc>
TA_InvokeCommandEntryPoint():
/home/ubuntu/rpi3_optee_cachegrab/apps/aes/ta/aes_ta.c:430
     574:	91335260 	add	x0, x19, #0xcd4
     578:	2a0103e5 	mov	w5, w1
     57c:	f0000044 	adrp	x4, b000 <PRIME_TABLE+0x88>
     580:	52800023 	mov	w3, #0x1                   	// #1
     584:	913d0884 	add	x4, x4, #0xf42
     588:	52800022 	mov	w2, #0x1                   	// #1
     58c:	528035c1 	mov	w1, #0x1ae                 	// #430
     590:	91026000 	add	x0, x0, #0x98
/home/ubuntu/rpi3_optee_cachegrab/apps/aes/ta/aes_ta.c:431
     594:	129ffeb4 	mov	w20, #0xffff000a            	// #-65526
/home/ubuntu/rpi3_optee_cachegrab/apps/aes/ta/aes_ta.c:430
     598:	94001a3f 	bl	6e94 <trace_printf>
/home/ubuntu/rpi3_optee_cachegrab/apps/aes/ta/aes_ta.c:431
     59c:	17ffff04 	b	1ac <TA_InvokeCommandEntryPoint+0xbc>
cipher_buffer():
/home/ubuntu/rpi3_optee_cachegrab/apps/aes/ta/aes_ta.c:354
     5a0:	129fff14 	mov	w20, #0xffff0007            	// #-65529
     5a4:	17ffff02 	b	1ac <TA_InvokeCommandEntryPoint+0xbc>
TA_InvokeCommandEntryPoint():
/home/ubuntu/rpi3_optee_cachegrab/apps/aes/ta/aes_ta.c:433
     5a8:	a94153f3 	ldp	x19, x20, [sp, #16]
     5ac:	a9425bf5 	ldp	x21, x22, [sp, #32]
     5b0:	f9401bf7 	ldr	x23, [sp, #48]
     5b4:	a8c67bfd 	ldp	x29, x30, [sp], #96
     5b8:	d65f03c0 	ret

00000000000005bc <tahead_get_trace_level>:
tahead_get_trace_level():
/home/ubuntu/rpi3_optee_cachegrab/apps/ta_sdk/src/user_ta_header.c:130
     5bc:	52800080 	mov	w0, #0x4                   	// #4
     5c0:	d65f03c0 	ret

00000000000005c4 <__utee_from_param>:
__utee_from_param():
/home/zliu/ubuntu-optee-rpi3/RPi3_OPTEE_3.1/optee_os/lib/libutee/tee_api.c:48
     5c4:	f0000045 	adrp	x5, b000 <PRIME_TABLE+0x88>
     5c8:	913620a5 	add	x5, x5, #0xd88
/home/zliu/ubuntu-optee-rpi3/RPi3_OPTEE_3.1/optee_os/lib/libutee/tee_api.c:46
     5cc:	2a0103e3 	mov	w3, w1
     5d0:	52800004 	mov	w4, #0x0                   	// #0
     5d4:	f8008403 	str	x3, [x0], #8
/home/zliu/ubuntu-optee-rpi3/RPi3_OPTEE_3.1/optee_os/lib/libutee/tee_api.c:48
     5d8:	1ac42423 	lsr	w3, w1, w4
     5dc:	12000c63 	and	w3, w3, #0xf
     5e0:	51000463 	sub	w3, w3, #0x1
     5e4:	7100187f 	cmp	w3, #0x6
     5e8:	54000268 	b.hi	634 <__utee_from_param+0x70>  // b.pmore
     5ec:	386348a3 	ldrb	w3, [x5, w3, uxtw]
     5f0:	10000066 	adr	x6, 5fc <__utee_from_param+0x38>
     5f4:	8b2388c3 	add	x3, x6, w3, sxtb #2
     5f8:	d61f0060 	br	x3
/home/zliu/ubuntu-optee-rpi3/RPi3_OPTEE_3.1/optee_os/lib/libutee/tee_api.c:52
     5fc:	b9400043 	ldr	w3, [x2]
     600:	f9000003 	str	x3, [x0]
/home/zliu/ubuntu-optee-rpi3/RPi3_OPTEE_3.1/optee_os/lib/libutee/tee_api.c:53
     604:	b9400443 	ldr	w3, [x2, #4]
/home/zliu/ubuntu-optee-rpi3/RPi3_OPTEE_3.1/optee_os/lib/libutee/tee_api.c:59
     608:	f9000403 	str	x3, [x0, #8]
     60c:	11001084 	add	w4, w4, #0x4
     610:	91004042 	add	x2, x2, #0x10
     614:	91004000 	add	x0, x0, #0x10
/home/zliu/ubuntu-optee-rpi3/RPi3_OPTEE_3.1/optee_os/lib/libutee/tee_api.c:47 (discriminator 2)
     618:	7100409f 	cmp	w4, #0x10
     61c:	54fffde1 	b.ne	5d8 <__utee_from_param+0x14>  // b.any
/home/zliu/ubuntu-optee-rpi3/RPi3_OPTEE_3.1/optee_os/lib/libutee/tee_api.c:67
     620:	d65f03c0 	ret
/home/zliu/ubuntu-optee-rpi3/RPi3_OPTEE_3.1/optee_os/lib/libutee/tee_api.c:58
     624:	f9400043 	ldr	x3, [x2]
     628:	f9000003 	str	x3, [x0]
/home/zliu/ubuntu-optee-rpi3/RPi3_OPTEE_3.1/optee_os/lib/libutee/tee_api.c:59
     62c:	b9400843 	ldr	w3, [x2, #8]
     630:	17fffff6 	b	608 <__utee_from_param+0x44>
/home/zliu/ubuntu-optee-rpi3/RPi3_OPTEE_3.1/optee_os/lib/libutee/tee_api.c:63
     634:	a9007c1f 	stp	xzr, xzr, [x0]
/home/zliu/ubuntu-optee-rpi3/RPi3_OPTEE_3.1/optee_os/lib/libutee/tee_api.c:64
     638:	17fffff5 	b	60c <__utee_from_param+0x48>

000000000000063c <__utee_to_param>:
__utee_to_param():
/home/zliu/ubuntu-optee-rpi3/RPi3_OPTEE_3.1/optee_os/lib/libutee/tee_api.c:73
     63c:	f8408446 	ldr	x6, [x2], #8
/home/zliu/ubuntu-optee-rpi3/RPi3_OPTEE_3.1/optee_os/lib/libutee/tee_api.c:79
     640:	f0000045 	adrp	x5, b000 <PRIME_TABLE+0x88>
     644:	913640a5 	add	x5, x5, #0xd90
/home/zliu/ubuntu-optee-rpi3/RPi3_OPTEE_3.1/optee_os/lib/libutee/tee_api.c:73
     648:	52800004 	mov	w4, #0x0                   	// #0
     64c:	2a0603e9 	mov	w9, w6
/home/zliu/ubuntu-optee-rpi3/RPi3_OPTEE_3.1/optee_os/lib/libutee/tee_api.c:79
     650:	1ac42523 	lsr	w3, w9, w4
     654:	12000c63 	and	w3, w3, #0xf
     658:	51000463 	sub	w3, w3, #0x1
     65c:	7100187f 	cmp	w3, #0x6
/home/zliu/ubuntu-optee-rpi3/RPi3_OPTEE_3.1/optee_os/lib/libutee/tee_api.c:77
     660:	a9401c48 	ldp	x8, x7, [x2]
/home/zliu/ubuntu-optee-rpi3/RPi3_OPTEE_3.1/optee_os/lib/libutee/tee_api.c:79
     664:	540000c8 	b.hi	67c <__utee_to_param+0x40>  // b.pmore
     668:	386348a3 	ldrb	w3, [x5, w3, uxtw]
     66c:	1000006a 	adr	x10, 678 <__utee_to_param+0x3c>
     670:	8b238943 	add	x3, x10, w3, sxtb #2
     674:	d61f0060 	br	x3
/home/zliu/ubuntu-optee-rpi3/RPi3_OPTEE_3.1/optee_os/lib/libutee/tee_api.c:84
     678:	29001c08 	stp	w8, w7, [x0]
     67c:	11001084 	add	w4, w4, #0x4
     680:	91004042 	add	x2, x2, #0x10
     684:	91004000 	add	x0, x0, #0x10
/home/zliu/ubuntu-optee-rpi3/RPi3_OPTEE_3.1/optee_os/lib/libutee/tee_api.c:75 (discriminator 2)
     688:	7100409f 	cmp	w4, #0x10
     68c:	54fffe21 	b.ne	650 <__utee_to_param+0x14>  // b.any
/home/zliu/ubuntu-optee-rpi3/RPi3_OPTEE_3.1/optee_os/lib/libutee/tee_api.c:97
     690:	b4000041 	cbz	x1, 698 <__utee_to_param+0x5c>
/home/zliu/ubuntu-optee-rpi3/RPi3_OPTEE_3.1/optee_os/lib/libutee/tee_api.c:98
     694:	b9000026 	str	w6, [x1]
     698:	d65f03c0 	ret
/home/zliu/ubuntu-optee-rpi3/RPi3_OPTEE_3.1/optee_os/lib/libutee/tee_api.c:89
     69c:	f9000008 	str	x8, [x0]
/home/zliu/ubuntu-optee-rpi3/RPi3_OPTEE_3.1/optee_os/lib/libutee/tee_api.c:90
     6a0:	b9000807 	str	w7, [x0, #8]
/home/zliu/ubuntu-optee-rpi3/RPi3_OPTEE_3.1/optee_os/lib/libutee/tee_api.c:91
     6a4:	17fffff6 	b	67c <__utee_to_param+0x40>

00000000000006a8 <TEE_OpenTASession>:
TEE_OpenTASession():
/home/zliu/ubuntu-optee-rpi3/RPi3_OPTEE_3.1/optee_os/lib/libutee/tee_api.c:107
     6a8:	a9b77bfd 	stp	x29, x30, [sp, #-144]!
     6ac:	910003fd 	mov	x29, sp
     6b0:	a90153f3 	stp	x19, x20, [sp, #16]
/home/zliu/ubuntu-optee-rpi3/RPi3_OPTEE_3.1/optee_os/lib/libutee/tee_api.c:112
     6b4:	910123b3 	add	x19, x29, #0x48
/home/zliu/ubuntu-optee-rpi3/RPi3_OPTEE_3.1/optee_os/lib/libutee/tee_api.c:107
     6b8:	a9025bf5 	stp	x21, x22, [sp, #32]
     6bc:	aa0303f4 	mov	x20, x3
     6c0:	a90363f7 	stp	x23, x24, [sp, #48]
     6c4:	aa0003f6 	mov	x22, x0
     6c8:	aa0503f8 	mov	x24, x5
     6cc:	2a0103f7 	mov	w23, w1
     6d0:	aa0403f5 	mov	x21, x4
     6d4:	2a0203e1 	mov	w1, w2
/home/zliu/ubuntu-optee-rpi3/RPi3_OPTEE_3.1/optee_os/lib/libutee/tee_api.c:112
     6d8:	aa1303e0 	mov	x0, x19
     6dc:	aa0303e2 	mov	x2, x3
     6e0:	97ffffb9 	bl	5c4 <__utee_from_param>
/home/zliu/ubuntu-optee-rpi3/RPi3_OPTEE_3.1/optee_os/lib/libutee/tee_api.c:113
     6e4:	aa1803e4 	mov	x4, x24
     6e8:	910113a3 	add	x3, x29, #0x44
     6ec:	aa1303e2 	mov	x2, x19
     6f0:	2a1703e1 	mov	w1, w23
     6f4:	aa1603e0 	mov	x0, x22
     6f8:	94000dc9 	bl	3e1c <utee_open_ta_session>
/home/zliu/ubuntu-optee-rpi3/RPi3_OPTEE_3.1/optee_os/lib/libutee/tee_api.c:115
     6fc:	aa1303e2 	mov	x2, x19
/home/zliu/ubuntu-optee-rpi3/RPi3_OPTEE_3.1/optee_os/lib/libutee/tee_api.c:113
     700:	2a0003f6 	mov	w22, w0
/home/zliu/ubuntu-optee-rpi3/RPi3_OPTEE_3.1/optee_os/lib/libutee/tee_api.c:115
     704:	d2800001 	mov	x1, #0x0                   	// #0
     708:	aa1403e0 	mov	x0, x20
     70c:	97ffffcc 	bl	63c <__utee_to_param>
/home/zliu/ubuntu-optee-rpi3/RPi3_OPTEE_3.1/optee_os/lib/libutee/tee_api.c:121
     710:	34000056 	cbz	w22, 718 <TEE_OpenTASession+0x70>
/home/zliu/ubuntu-optee-rpi3/RPi3_OPTEE_3.1/optee_os/lib/libutee/tee_api.c:122
     714:	b90047bf 	str	wzr, [x29, #68]
/home/zliu/ubuntu-optee-rpi3/RPi3_OPTEE_3.1/optee_os/lib/libutee/tee_api.c:124
     718:	b94047a0 	ldr	w0, [x29, #68]
/home/zliu/ubuntu-optee-rpi3/RPi3_OPTEE_3.1/optee_os/lib/libutee/tee_api.c:126
     71c:	a94153f3 	ldp	x19, x20, [sp, #16]
     720:	a94363f7 	ldp	x23, x24, [sp, #48]
/home/zliu/ubuntu-optee-rpi3/RPi3_OPTEE_3.1/optee_os/lib/libutee/tee_api.c:124
     724:	f90002a0 	str	x0, [x21]
/home/zliu/ubuntu-optee-rpi3/RPi3_OPTEE_3.1/optee_os/lib/libutee/tee_api.c:126
     728:	2a1603e0 	mov	w0, w22
     72c:	a9425bf5 	ldp	x21, x22, [sp, #32]
     730:	a8c97bfd 	ldp	x29, x30, [sp], #144
     734:	d65f03c0 	ret

0000000000000738 <TEE_CloseTASession>:
TEE_CloseTASession():
/home/zliu/ubuntu-optee-rpi3/RPi3_OPTEE_3.1/optee_os/lib/libutee/tee_api.c:130
     738:	b4000120 	cbz	x0, 75c <TEE_CloseTASession+0x24>
/home/zliu/ubuntu-optee-rpi3/RPi3_OPTEE_3.1/optee_os/lib/libutee/tee_api.c:129
     73c:	a9bf7bfd 	stp	x29, x30, [sp, #-16]!
     740:	910003fd 	mov	x29, sp
/home/zliu/ubuntu-optee-rpi3/RPi3_OPTEE_3.1/optee_os/lib/libutee/tee_api.c:131
     744:	94000db9 	bl	3e28 <utee_close_ta_session>
/home/zliu/ubuntu-optee-rpi3/RPi3_OPTEE_3.1/optee_os/lib/libutee/tee_api.c:133
     748:	34000060 	cbz	w0, 754 <TEE_CloseTASession+0x1c>
/home/zliu/ubuntu-optee-rpi3/RPi3_OPTEE_3.1/optee_os/lib/libutee/tee_api.c:136
     74c:	a8c17bfd 	ldp	x29, x30, [sp], #16
/home/zliu/ubuntu-optee-rpi3/RPi3_OPTEE_3.1/optee_os/lib/libutee/tee_api.c:134
     750:	14000cf1 	b	3b14 <TEE_Panic>
/home/zliu/ubuntu-optee-rpi3/RPi3_OPTEE_3.1/optee_os/lib/libutee/tee_api.c:136
     754:	a8c17bfd 	ldp	x29, x30, [sp], #16
     758:	d65f03c0 	ret
     75c:	d65f03c0 	ret

0000000000000760 <TEE_InvokeTACommand>:
TEE_InvokeTACommand():
/home/zliu/ubuntu-optee-rpi3/RPi3_OPTEE_3.1/optee_os/lib/libutee/tee_api.c:143
     760:	a9b77bfd 	stp	x29, x30, [sp, #-144]!
     764:	910003fd 	mov	x29, sp
     768:	a90153f3 	stp	x19, x20, [sp, #16]
/home/zliu/ubuntu-optee-rpi3/RPi3_OPTEE_3.1/optee_os/lib/libutee/tee_api.c:148
     76c:	910123b4 	add	x20, x29, #0x48
/home/zliu/ubuntu-optee-rpi3/RPi3_OPTEE_3.1/optee_os/lib/libutee/tee_api.c:143
     770:	a9025bf5 	stp	x21, x22, [sp, #32]
     774:	aa0003f3 	mov	x19, x0
     778:	a90363f7 	stp	x23, x24, [sp, #48]
     77c:	aa0403f6 	mov	x22, x4
     780:	aa0503f5 	mov	x21, x5
     784:	2a0103f7 	mov	w23, w1
     788:	2a0203f8 	mov	w24, w2
/home/zliu/ubuntu-optee-rpi3/RPi3_OPTEE_3.1/optee_os/lib/libutee/tee_api.c:148
     78c:	2a0303e1 	mov	w1, w3
     790:	aa0403e2 	mov	x2, x4
     794:	aa1403e0 	mov	x0, x20
     798:	97ffff8b 	bl	5c4 <__utee_from_param>
/home/zliu/ubuntu-optee-rpi3/RPi3_OPTEE_3.1/optee_os/lib/libutee/tee_api.c:149
     79c:	910113a4 	add	x4, x29, #0x44
     7a0:	aa1403e3 	mov	x3, x20
     7a4:	2a1803e2 	mov	w2, w24
     7a8:	2a1703e1 	mov	w1, w23
     7ac:	aa1303e0 	mov	x0, x19
     7b0:	94000da1 	bl	3e34 <utee_invoke_ta_command>
/home/zliu/ubuntu-optee-rpi3/RPi3_OPTEE_3.1/optee_os/lib/libutee/tee_api.c:152
     7b4:	aa1403e2 	mov	x2, x20
/home/zliu/ubuntu-optee-rpi3/RPi3_OPTEE_3.1/optee_os/lib/libutee/tee_api.c:149
     7b8:	2a0003f3 	mov	w19, w0
/home/zliu/ubuntu-optee-rpi3/RPi3_OPTEE_3.1/optee_os/lib/libutee/tee_api.c:152
     7bc:	d2800001 	mov	x1, #0x0                   	// #0
     7c0:	aa1603e0 	mov	x0, x22
     7c4:	97ffff9e 	bl	63c <__utee_to_param>
     7c8:	b94047a0 	ldr	w0, [x29, #68]
/home/zliu/ubuntu-optee-rpi3/RPi3_OPTEE_3.1/optee_os/lib/libutee/tee_api.c:154
     7cc:	b4000055 	cbz	x21, 7d4 <TEE_InvokeTACommand+0x74>
/home/zliu/ubuntu-optee-rpi3/RPi3_OPTEE_3.1/optee_os/lib/libutee/tee_api.c:155
     7d0:	b90002a0 	str	w0, [x21]
/home/zliu/ubuntu-optee-rpi3/RPi3_OPTEE_3.1/optee_os/lib/libutee/tee_api.c:157
     7d4:	7100101f 	cmp	w0, #0x4
     7d8:	54000120 	b.eq	7fc <TEE_InvokeTACommand+0x9c>  // b.none
/home/zliu/ubuntu-optee-rpi3/RPi3_OPTEE_3.1/optee_os/lib/libutee/tee_api.c:161
     7dc:	7100027f 	cmp	w19, #0x0
     7e0:	129ffe60 	mov	w0, #0xffff000c            	// #-65524
     7e4:	7a401264 	ccmp	w19, w0, #0x4, ne  // ne = any
     7e8:	1299fb60 	mov	w0, #0xffff3024            	// #-53212
     7ec:	7a401264 	ccmp	w19, w0, #0x4, ne  // ne = any
     7f0:	54000060 	b.eq	7fc <TEE_InvokeTACommand+0x9c>  // b.none
/home/zliu/ubuntu-optee-rpi3/RPi3_OPTEE_3.1/optee_os/lib/libutee/tee_api.c:163
     7f4:	2a1303e0 	mov	w0, w19
     7f8:	94000cc7 	bl	3b14 <TEE_Panic>
/home/zliu/ubuntu-optee-rpi3/RPi3_OPTEE_3.1/optee_os/lib/libutee/tee_api.c:166
     7fc:	2a1303e0 	mov	w0, w19
     800:	a94153f3 	ldp	x19, x20, [sp, #16]
     804:	a9425bf5 	ldp	x21, x22, [sp, #32]
     808:	a94363f7 	ldp	x23, x24, [sp, #48]
     80c:	a8c97bfd 	ldp	x29, x30, [sp], #144
     810:	d65f03c0 	ret

0000000000000814 <TEE_GetCancellationFlag>:
TEE_GetCancellationFlag():
/home/zliu/ubuntu-optee-rpi3/RPi3_OPTEE_3.1/optee_os/lib/libutee/tee_api.c:171
     814:	a9be7bfd 	stp	x29, x30, [sp, #-32]!
     818:	910003fd 	mov	x29, sp
/home/zliu/ubuntu-optee-rpi3/RPi3_OPTEE_3.1/optee_os/lib/libutee/tee_api.c:173
     81c:	910073a0 	add	x0, x29, #0x1c
     820:	94000d88 	bl	3e40 <utee_get_cancellation_flag>
/home/zliu/ubuntu-optee-rpi3/RPi3_OPTEE_3.1/optee_os/lib/libutee/tee_api.c:175
     824:	34000040 	cbz	w0, 82c <TEE_GetCancellationFlag+0x18>
/home/zliu/ubuntu-optee-rpi3/RPi3_OPTEE_3.1/optee_os/lib/libutee/tee_api.c:176
     828:	b9001fbf 	str	wzr, [x29, #28]
/home/zliu/ubuntu-optee-rpi3/RPi3_OPTEE_3.1/optee_os/lib/libutee/tee_api.c:177
     82c:	b9401fa0 	ldr	w0, [x29, #28]
/home/zliu/ubuntu-optee-rpi3/RPi3_OPTEE_3.1/optee_os/lib/libutee/tee_api.c:178
     830:	a8c27bfd 	ldp	x29, x30, [sp], #32
/home/zliu/ubuntu-optee-rpi3/RPi3_OPTEE_3.1/optee_os/lib/libutee/tee_api.c:177
     834:	7100001f 	cmp	w0, #0x0
/home/zliu/ubuntu-optee-rpi3/RPi3_OPTEE_3.1/optee_os/lib/libutee/tee_api.c:178
     838:	1a9f07e0 	cset	w0, ne  // ne = any
     83c:	d65f03c0 	ret

0000000000000840 <TEE_UnmaskCancellation>:
TEE_UnmaskCancellation():
/home/zliu/ubuntu-optee-rpi3/RPi3_OPTEE_3.1/optee_os/lib/libutee/tee_api.c:181
     840:	a9be7bfd 	stp	x29, x30, [sp, #-32]!
     844:	910003fd 	mov	x29, sp
/home/zliu/ubuntu-optee-rpi3/RPi3_OPTEE_3.1/optee_os/lib/libutee/tee_api.c:183
     848:	910073a0 	add	x0, x29, #0x1c
     84c:	94000d83 	bl	3e58 <utee_unmask_cancellation>
/home/zliu/ubuntu-optee-rpi3/RPi3_OPTEE_3.1/optee_os/lib/libutee/tee_api.c:185
     850:	34000040 	cbz	w0, 858 <TEE_UnmaskCancellation+0x18>
/home/zliu/ubuntu-optee-rpi3/RPi3_OPTEE_3.1/optee_os/lib/libutee/tee_api.c:186
     854:	94000cb0 	bl	3b14 <TEE_Panic>
/home/zliu/ubuntu-optee-rpi3/RPi3_OPTEE_3.1/optee_os/lib/libutee/tee_api.c:187
     858:	b9401fa0 	ldr	w0, [x29, #28]
/home/zliu/ubuntu-optee-rpi3/RPi3_OPTEE_3.1/optee_os/lib/libutee/tee_api.c:188
     85c:	a8c27bfd 	ldp	x29, x30, [sp], #32
/home/zliu/ubuntu-optee-rpi3/RPi3_OPTEE_3.1/optee_os/lib/libutee/tee_api.c:187
     860:	7100001f 	cmp	w0, #0x0
/home/zliu/ubuntu-optee-rpi3/RPi3_OPTEE_3.1/optee_os/lib/libutee/tee_api.c:188
     864:	1a9f07e0 	cset	w0, ne  // ne = any
     868:	d65f03c0 	ret

000000000000086c <TEE_MaskCancellation>:
TEE_MaskCancellation():
/home/zliu/ubuntu-optee-rpi3/RPi3_OPTEE_3.1/optee_os/lib/libutee/tee_api.c:191
     86c:	a9be7bfd 	stp	x29, x30, [sp, #-32]!
     870:	910003fd 	mov	x29, sp
/home/zliu/ubuntu-optee-rpi3/RPi3_OPTEE_3.1/optee_os/lib/libutee/tee_api.c:193
     874:	910073a0 	add	x0, x29, #0x1c
     878:	94000d7b 	bl	3e64 <utee_mask_cancellation>
/home/zliu/ubuntu-optee-rpi3/RPi3_OPTEE_3.1/optee_os/lib/libutee/tee_api.c:195
     87c:	34000040 	cbz	w0, 884 <TEE_MaskCancellation+0x18>
/home/zliu/ubuntu-optee-rpi3/RPi3_OPTEE_3.1/optee_os/lib/libutee/tee_api.c:196
     880:	94000ca5 	bl	3b14 <TEE_Panic>
/home/zliu/ubuntu-optee-rpi3/RPi3_OPTEE_3.1/optee_os/lib/libutee/tee_api.c:197
     884:	b9401fa0 	ldr	w0, [x29, #28]
/home/zliu/ubuntu-optee-rpi3/RPi3_OPTEE_3.1/optee_os/lib/libutee/tee_api.c:198
     888:	a8c27bfd 	ldp	x29, x30, [sp], #32
/home/zliu/ubuntu-optee-rpi3/RPi3_OPTEE_3.1/optee_os/lib/libutee/tee_api.c:197
     88c:	7100001f 	cmp	w0, #0x0
/home/zliu/ubuntu-optee-rpi3/RPi3_OPTEE_3.1/optee_os/lib/libutee/tee_api.c:198
     890:	1a9f07e0 	cset	w0, ne  // ne = any
     894:	d65f03c0 	ret

0000000000000898 <TEE_CheckMemoryAccessRights>:
TEE_CheckMemoryAccessRights():
/home/zliu/ubuntu-optee-rpi3/RPi3_OPTEE_3.1/optee_os/lib/libutee/tee_api.c:207
     898:	34000062 	cbz	w2, 8a4 <TEE_CheckMemoryAccessRights+0xc>
/home/zliu/ubuntu-optee-rpi3/RPi3_OPTEE_3.1/optee_os/lib/libutee/tee_api.c:211
     89c:	2a0203e2 	mov	w2, w2
     8a0:	14000d6b 	b	3e4c <utee_check_access_rights>
/home/zliu/ubuntu-optee-rpi3/RPi3_OPTEE_3.1/optee_os/lib/libutee/tee_api.c:223
     8a4:	52800000 	mov	w0, #0x0                   	// #0
     8a8:	d65f03c0 	ret

00000000000008ac <TEE_SetInstanceData>:
TEE_SetInstanceData():
/home/zliu/ubuntu-optee-rpi3/RPi3_OPTEE_3.1/optee_os/lib/libutee/tee_api.c:227
     8ac:	b0000061 	adrp	x1, d000 <ta_props>
     8b0:	f900a420 	str	x0, [x1, #328]
     8b4:	d65f03c0 	ret

00000000000008b8 <TEE_GetInstanceData>:
TEE_GetInstanceData():
/home/zliu/ubuntu-optee-rpi3/RPi3_OPTEE_3.1/optee_os/lib/libutee/tee_api.c:233
     8b8:	b0000060 	adrp	x0, d000 <ta_props>
     8bc:	f940a400 	ldr	x0, [x0, #328]
     8c0:	d65f03c0 	ret

00000000000008c4 <TEE_MemMove>:
TEE_MemMove():
/home/zliu/ubuntu-optee-rpi3/RPi3_OPTEE_3.1/optee_os/lib/libutee/tee_api.c:237
     8c4:	2a0203e2 	mov	w2, w2
     8c8:	14001619 	b	612c <memmove>

00000000000008cc <TEE_MemCompare>:
TEE_MemCompare():
/home/zliu/ubuntu-optee-rpi3/RPi3_OPTEE_3.1/optee_os/lib/libutee/tee_api.c:242
     8cc:	2a0203e2 	mov	w2, w2
     8d0:	14001602 	b	60d8 <memcmp>

00000000000008d4 <TEE_MemFill>:
TEE_MemFill():
/home/zliu/ubuntu-optee-rpi3/RPi3_OPTEE_3.1/optee_os/lib/libutee/tee_api.c:247
     8d4:	2a0203e2 	mov	w2, w2
     8d8:	14001628 	b	6178 <memset>

00000000000008dc <TEE_GetSystemTime>:
TEE_GetSystemTime():
/home/zliu/ubuntu-optee-rpi3/RPi3_OPTEE_3.1/optee_os/lib/libutee/tee_api.c:253
     8dc:	a9bf7bfd 	stp	x29, x30, [sp, #-16]!
/home/zliu/ubuntu-optee-rpi3/RPi3_OPTEE_3.1/optee_os/lib/libutee/tee_api.c:254
     8e0:	aa0003e1 	mov	x1, x0
     8e4:	d2800000 	mov	x0, #0x0                   	// #0
/home/zliu/ubuntu-optee-rpi3/RPi3_OPTEE_3.1/optee_os/lib/libutee/tee_api.c:253
     8e8:	910003fd 	mov	x29, sp
/home/zliu/ubuntu-optee-rpi3/RPi3_OPTEE_3.1/optee_os/lib/libutee/tee_api.c:254
     8ec:	94000d64 	bl	3e7c <utee_get_time>
/home/zliu/ubuntu-optee-rpi3/RPi3_OPTEE_3.1/optee_os/lib/libutee/tee_api.c:256
     8f0:	34000060 	cbz	w0, 8fc <TEE_GetSystemTime+0x20>
/home/zliu/ubuntu-optee-rpi3/RPi3_OPTEE_3.1/optee_os/lib/libutee/tee_api.c:258
     8f4:	a8c17bfd 	ldp	x29, x30, [sp], #16
/home/zliu/ubuntu-optee-rpi3/RPi3_OPTEE_3.1/optee_os/lib/libutee/tee_api.c:257
     8f8:	14000c87 	b	3b14 <TEE_Panic>
/home/zliu/ubuntu-optee-rpi3/RPi3_OPTEE_3.1/optee_os/lib/libutee/tee_api.c:258
     8fc:	a8c17bfd 	ldp	x29, x30, [sp], #16
     900:	d65f03c0 	ret

0000000000000904 <TEE_Wait>:
TEE_Wait():
/home/zliu/ubuntu-optee-rpi3/RPi3_OPTEE_3.1/optee_os/lib/libutee/tee_api.c:261
     904:	a9be7bfd 	stp	x29, x30, [sp, #-32]!
/home/zliu/ubuntu-optee-rpi3/RPi3_OPTEE_3.1/optee_os/lib/libutee/tee_api.c:262
     908:	2a0003e0 	mov	w0, w0
/home/zliu/ubuntu-optee-rpi3/RPi3_OPTEE_3.1/optee_os/lib/libutee/tee_api.c:261
     90c:	910003fd 	mov	x29, sp
     910:	f9000bf3 	str	x19, [sp, #16]
/home/zliu/ubuntu-optee-rpi3/RPi3_OPTEE_3.1/optee_os/lib/libutee/tee_api.c:262
     914:	94000d57 	bl	3e70 <utee_wait>
/home/zliu/ubuntu-optee-rpi3/RPi3_OPTEE_3.1/optee_os/lib/libutee/tee_api.c:264
     918:	7100001f 	cmp	w0, #0x0
     91c:	129fffa1 	mov	w1, #0xffff0002            	// #-65534
/home/zliu/ubuntu-optee-rpi3/RPi3_OPTEE_3.1/optee_os/lib/libutee/tee_api.c:262
     920:	2a0003f3 	mov	w19, w0
/home/zliu/ubuntu-optee-rpi3/RPi3_OPTEE_3.1/optee_os/lib/libutee/tee_api.c:264
     924:	7a411004 	ccmp	w0, w1, #0x4, ne  // ne = any
     928:	54000040 	b.eq	930 <TEE_Wait+0x2c>  // b.none
/home/zliu/ubuntu-optee-rpi3/RPi3_OPTEE_3.1/optee_os/lib/libutee/tee_api.c:265
     92c:	94000c7a 	bl	3b14 <TEE_Panic>
/home/zliu/ubuntu-optee-rpi3/RPi3_OPTEE_3.1/optee_os/lib/libutee/tee_api.c:268
     930:	2a1303e0 	mov	w0, w19
     934:	f9400bf3 	ldr	x19, [sp, #16]
     938:	a8c27bfd 	ldp	x29, x30, [sp], #32
     93c:	d65f03c0 	ret

0000000000000940 <TEE_GetTAPersistentTime>:
TEE_GetTAPersistentTime():
/home/zliu/ubuntu-optee-rpi3/RPi3_OPTEE_3.1/optee_os/lib/libutee/tee_api.c:271
     940:	a9be7bfd 	stp	x29, x30, [sp, #-32]!
/home/zliu/ubuntu-optee-rpi3/RPi3_OPTEE_3.1/optee_os/lib/libutee/tee_api.c:274
     944:	aa0003e1 	mov	x1, x0
/home/zliu/ubuntu-optee-rpi3/RPi3_OPTEE_3.1/optee_os/lib/libutee/tee_api.c:271
     948:	910003fd 	mov	x29, sp
     94c:	a90153f3 	stp	x19, x20, [sp, #16]
     950:	aa0003f4 	mov	x20, x0
/home/zliu/ubuntu-optee-rpi3/RPi3_OPTEE_3.1/optee_os/lib/libutee/tee_api.c:274
     954:	d2800020 	mov	x0, #0x1                   	// #1
     958:	94000d49 	bl	3e7c <utee_get_time>
/home/zliu/ubuntu-optee-rpi3/RPi3_OPTEE_3.1/optee_os/lib/libutee/tee_api.c:276
     95c:	7100001f 	cmp	w0, #0x0
/home/zliu/ubuntu-optee-rpi3/RPi3_OPTEE_3.1/optee_os/lib/libutee/tee_api.c:274
     960:	2a0003f3 	mov	w19, w0
/home/zliu/ubuntu-optee-rpi3/RPi3_OPTEE_3.1/optee_os/lib/libutee/tee_api.c:276
     964:	1a9f07e1 	cset	w1, ne  // ne = any
     968:	1299fe00 	mov	w0, #0xffff300f            	// #-53233
     96c:	6b00027f 	cmp	w19, w0
     970:	1a9f07e0 	cset	w0, ne  // ne = any
     974:	6a00003f 	tst	w1, w0
     978:	54000040 	b.eq	980 <TEE_GetTAPersistentTime+0x40>  // b.none
/home/zliu/ubuntu-optee-rpi3/RPi3_OPTEE_3.1/optee_os/lib/libutee/tee_api.c:278
     97c:	29007e9f 	stp	wzr, wzr, [x20]
/home/zliu/ubuntu-optee-rpi3/RPi3_OPTEE_3.1/optee_os/lib/libutee/tee_api.c:282
     980:	11402e62 	add	w2, w19, #0xb, lsl #12
     984:	7100045f 	cmp	w2, #0x1
     988:	1a9f97e2 	cset	w2, hi  // hi = pmore
/home/zliu/ubuntu-optee-rpi3/RPi3_OPTEE_3.1/optee_os/lib/libutee/tee_api.c:281
     98c:	6a02003f 	tst	w1, w2
     990:	54000100 	b.eq	9b0 <TEE_GetTAPersistentTime+0x70>  // b.none
/home/zliu/ubuntu-optee-rpi3/RPi3_OPTEE_3.1/optee_os/lib/libutee/tee_api.c:284
     994:	129ffe61 	mov	w1, #0xffff000c            	// #-65524
     998:	6b01027f 	cmp	w19, w1
     99c:	1a9f07e1 	cset	w1, ne  // ne = any
     9a0:	6a01001f 	tst	w0, w1
     9a4:	54000060 	b.eq	9b0 <TEE_GetTAPersistentTime+0x70>  // b.none
/home/zliu/ubuntu-optee-rpi3/RPi3_OPTEE_3.1/optee_os/lib/libutee/tee_api.c:286
     9a8:	2a1303e0 	mov	w0, w19
     9ac:	94000c5a 	bl	3b14 <TEE_Panic>
/home/zliu/ubuntu-optee-rpi3/RPi3_OPTEE_3.1/optee_os/lib/libutee/tee_api.c:289
     9b0:	2a1303e0 	mov	w0, w19
     9b4:	a94153f3 	ldp	x19, x20, [sp, #16]
     9b8:	a8c27bfd 	ldp	x29, x30, [sp], #32
     9bc:	d65f03c0 	ret

00000000000009c0 <TEE_SetTAPersistentTime>:
TEE_SetTAPersistentTime():
/home/zliu/ubuntu-optee-rpi3/RPi3_OPTEE_3.1/optee_os/lib/libutee/tee_api.c:292
     9c0:	a9be7bfd 	stp	x29, x30, [sp, #-32]!
     9c4:	910003fd 	mov	x29, sp
     9c8:	f9000bf3 	str	x19, [sp, #16]
/home/zliu/ubuntu-optee-rpi3/RPi3_OPTEE_3.1/optee_os/lib/libutee/tee_api.c:295
     9cc:	94000d2f 	bl	3e88 <utee_set_ta_time>
/home/zliu/ubuntu-optee-rpi3/RPi3_OPTEE_3.1/optee_os/lib/libutee/tee_api.c:298
     9d0:	7100001f 	cmp	w0, #0x0
     9d4:	129ffe61 	mov	w1, #0xffff000c            	// #-65524
     9d8:	7a411004 	ccmp	w0, w1, #0x4, ne  // ne = any
/home/zliu/ubuntu-optee-rpi3/RPi3_OPTEE_3.1/optee_os/lib/libutee/tee_api.c:295
     9dc:	2a0003f3 	mov	w19, w0
/home/zliu/ubuntu-optee-rpi3/RPi3_OPTEE_3.1/optee_os/lib/libutee/tee_api.c:298
     9e0:	1299f7c1 	mov	w1, #0xffff3041            	// #-53183
     9e4:	7a411004 	ccmp	w0, w1, #0x4, ne  // ne = any
     9e8:	54000040 	b.eq	9f0 <TEE_SetTAPersistentTime+0x30>  // b.none
/home/zliu/ubuntu-optee-rpi3/RPi3_OPTEE_3.1/optee_os/lib/libutee/tee_api.c:300
     9ec:	94000c4a 	bl	3b14 <TEE_Panic>
/home/zliu/ubuntu-optee-rpi3/RPi3_OPTEE_3.1/optee_os/lib/libutee/tee_api.c:303
     9f0:	2a1303e0 	mov	w0, w19
     9f4:	f9400bf3 	ldr	x19, [sp, #16]
     9f8:	a8c27bfd 	ldp	x29, x30, [sp], #32
     9fc:	d65f03c0 	ret

0000000000000a00 <TEE_GetREETime>:
TEE_GetREETime():
/home/zliu/ubuntu-optee-rpi3/RPi3_OPTEE_3.1/optee_os/lib/libutee/tee_api.c:306
     a00:	a9bf7bfd 	stp	x29, x30, [sp, #-16]!
/home/zliu/ubuntu-optee-rpi3/RPi3_OPTEE_3.1/optee_os/lib/libutee/tee_api.c:307
     a04:	aa0003e1 	mov	x1, x0
     a08:	d2800040 	mov	x0, #0x2                   	// #2
/home/zliu/ubuntu-optee-rpi3/RPi3_OPTEE_3.1/optee_os/lib/libutee/tee_api.c:306
     a0c:	910003fd 	mov	x29, sp
/home/zliu/ubuntu-optee-rpi3/RPi3_OPTEE_3.1/optee_os/lib/libutee/tee_api.c:307
     a10:	94000d1b 	bl	3e7c <utee_get_time>
/home/zliu/ubuntu-optee-rpi3/RPi3_OPTEE_3.1/optee_os/lib/libutee/tee_api.c:309
     a14:	34000060 	cbz	w0, a20 <TEE_GetREETime+0x20>
/home/zliu/ubuntu-optee-rpi3/RPi3_OPTEE_3.1/optee_os/lib/libutee/tee_api.c:311
     a18:	a8c17bfd 	ldp	x29, x30, [sp], #16
/home/zliu/ubuntu-optee-rpi3/RPi3_OPTEE_3.1/optee_os/lib/libutee/tee_api.c:310
     a1c:	14000c3e 	b	3b14 <TEE_Panic>
/home/zliu/ubuntu-optee-rpi3/RPi3_OPTEE_3.1/optee_os/lib/libutee/tee_api.c:311
     a20:	a8c17bfd 	ldp	x29, x30, [sp], #16
     a24:	d65f03c0 	ret

0000000000000a28 <TEE_Malloc>:
TEE_Malloc():
/home/zliu/ubuntu-optee-rpi3/RPi3_OPTEE_3.1/optee_os/lib/libutee/tee_api.c:315
     a28:	2a0003e0 	mov	w0, w0
     a2c:	14000e1a 	b	4294 <tee_user_mem_alloc>

0000000000000a30 <TEE_Realloc>:
TEE_Realloc():
/home/zliu/ubuntu-optee-rpi3/RPi3_OPTEE_3.1/optee_os/lib/libutee/tee_api.c:324
     a30:	2a0103e1 	mov	w1, w1
     a34:	14000ebc 	b	4524 <tee_user_mem_realloc>

0000000000000a38 <TEE_Free>:
TEE_Free():
/home/zliu/ubuntu-optee-rpi3/RPi3_OPTEE_3.1/optee_os/lib/libutee/tee_api.c:329
     a38:	14000e6a 	b	43e0 <tee_user_mem_free>

0000000000000a3c <TEE_CacheClean>:
TEE_CacheClean():
/home/zliu/ubuntu-optee-rpi3/RPi3_OPTEE_3.1/optee_os/lib/libutee/tee_api.c:335
     a3c:	d2800002 	mov	x2, #0x0                   	// #0
     a40:	14000dba 	b	4128 <utee_cache_operation>

0000000000000a44 <TEE_CacheFlush>:
TEE_CacheFlush():
/home/zliu/ubuntu-optee-rpi3/RPi3_OPTEE_3.1/optee_os/lib/libutee/tee_api.c:339
     a44:	d2800022 	mov	x2, #0x1                   	// #1
     a48:	14000db8 	b	4128 <utee_cache_operation>

0000000000000a4c <TEE_CacheInvalidate>:
TEE_CacheInvalidate():
/home/zliu/ubuntu-optee-rpi3/RPi3_OPTEE_3.1/optee_os/lib/libutee/tee_api.c:344
     a4c:	d2800042 	mov	x2, #0x2                   	// #2
     a50:	14000db6 	b	4128 <utee_cache_operation>

0000000000000a54 <__utee_from_attr>:
__utee_from_attr():
/home/zliu/ubuntu-optee-rpi3/RPi3_OPTEE_3.1/optee_os/lib/libutee/tee_api_objects.c:42
     a54:	52800303 	mov	w3, #0x18                  	// #24
     a58:	9ba30442 	umaddl	x2, w2, w3, x1
/home/zliu/ubuntu-optee-rpi3/RPi3_OPTEE_3.1/optee_os/lib/libutee/tee_api_objects.c:45 (discriminator 1)
     a5c:	eb02003f 	cmp	x1, x2
     a60:	54000041 	b.ne	a68 <__utee_from_attr+0x14>  // b.any
/home/zliu/ubuntu-optee-rpi3/RPi3_OPTEE_3.1/optee_os/lib/libutee/tee_api_objects.c:55
     a64:	d65f03c0 	ret
/home/zliu/ubuntu-optee-rpi3/RPi3_OPTEE_3.1/optee_os/lib/libutee/tee_api_objects.c:46
     a68:	b9400023 	ldr	w3, [x1]
     a6c:	b9001003 	str	w3, [x0, #16]
/home/zliu/ubuntu-optee-rpi3/RPi3_OPTEE_3.1/optee_os/lib/libutee/tee_api_objects.c:47
     a70:	36e80103 	tbz	w3, #29, a90 <__utee_from_attr+0x3c>
/home/zliu/ubuntu-optee-rpi3/RPi3_OPTEE_3.1/optee_os/lib/libutee/tee_api_objects.c:48
     a74:	b9400823 	ldr	w3, [x1, #8]
     a78:	f9000003 	str	x3, [x0]
/home/zliu/ubuntu-optee-rpi3/RPi3_OPTEE_3.1/optee_os/lib/libutee/tee_api_objects.c:49
     a7c:	b9400c23 	ldr	w3, [x1, #12]
/home/zliu/ubuntu-optee-rpi3/RPi3_OPTEE_3.1/optee_os/lib/libutee/tee_api_objects.c:52
     a80:	f9000403 	str	x3, [x0, #8]
     a84:	91006021 	add	x1, x1, #0x18
     a88:	91006000 	add	x0, x0, #0x18
     a8c:	17fffff4 	b	a5c <__utee_from_attr+0x8>
/home/zliu/ubuntu-optee-rpi3/RPi3_OPTEE_3.1/optee_os/lib/libutee/tee_api_objects.c:51
     a90:	f9400423 	ldr	x3, [x1, #8]
     a94:	f9000003 	str	x3, [x0]
/home/zliu/ubuntu-optee-rpi3/RPi3_OPTEE_3.1/optee_os/lib/libutee/tee_api_objects.c:52
     a98:	b9401023 	ldr	w3, [x1, #16]
     a9c:	17fffff9 	b	a80 <__utee_from_attr+0x2c>

0000000000000aa0 <TEE_GetObjectInfo>:
TEE_GetObjectInfo():
/home/zliu/ubuntu-optee-rpi3/RPi3_OPTEE_3.1/optee_os/lib/libutee/tee_api_objects.c:65
     aa0:	a9be7bfd 	stp	x29, x30, [sp, #-32]!
     aa4:	910003fd 	mov	x29, sp
     aa8:	f9000bf3 	str	x19, [sp, #16]
     aac:	aa0103f3 	mov	x19, x1
/home/zliu/ubuntu-optee-rpi3/RPi3_OPTEE_3.1/optee_os/lib/libutee/tee_api_objects.c:68
     ab0:	94000d14 	bl	3f00 <utee_cryp_obj_get_info>
/home/zliu/ubuntu-optee-rpi3/RPi3_OPTEE_3.1/optee_os/lib/libutee/tee_api_objects.c:70
     ab4:	34000040 	cbz	w0, abc <TEE_GetObjectInfo+0x1c>
/home/zliu/ubuntu-optee-rpi3/RPi3_OPTEE_3.1/optee_os/lib/libutee/tee_api_objects.c:71
     ab8:	94000c17 	bl	3b14 <TEE_Panic>
/home/zliu/ubuntu-optee-rpi3/RPi3_OPTEE_3.1/optee_os/lib/libutee/tee_api_objects.c:73
     abc:	b9400261 	ldr	w1, [x19]
     ac0:	528017c0 	mov	w0, #0xbe                  	// #190
     ac4:	72b40000 	movk	w0, #0xa000, lsl #16
     ac8:	6b00003f 	cmp	w1, w0
     acc:	54000081 	b.ne	adc <TEE_GetObjectInfo+0x3c>  // b.any
/home/zliu/ubuntu-optee-rpi3/RPi3_OPTEE_3.1/optee_os/lib/libutee/tee_api_objects.c:75
     ad0:	2900fe7f 	stp	wzr, wzr, [x19, #4]
/home/zliu/ubuntu-optee-rpi3/RPi3_OPTEE_3.1/optee_os/lib/libutee/tee_api_objects.c:77
     ad4:	2901fe7f 	stp	wzr, wzr, [x19, #12]
/home/zliu/ubuntu-optee-rpi3/RPi3_OPTEE_3.1/optee_os/lib/libutee/tee_api_objects.c:79
     ad8:	2902fe7f 	stp	wzr, wzr, [x19, #20]
/home/zliu/ubuntu-optee-rpi3/RPi3_OPTEE_3.1/optee_os/lib/libutee/tee_api_objects.c:81
     adc:	f9400bf3 	ldr	x19, [sp, #16]
     ae0:	a8c27bfd 	ldp	x29, x30, [sp], #32
     ae4:	d65f03c0 	ret

0000000000000ae8 <TEE_GetObjectInfo1>:
TEE_GetObjectInfo1():
/home/zliu/ubuntu-optee-rpi3/RPi3_OPTEE_3.1/optee_os/lib/libutee/tee_api_objects.c:84
     ae8:	a9be7bfd 	stp	x29, x30, [sp, #-32]!
     aec:	910003fd 	mov	x29, sp
     af0:	f9000bf3 	str	x19, [sp, #16]
/home/zliu/ubuntu-optee-rpi3/RPi3_OPTEE_3.1/optee_os/lib/libutee/tee_api_objects.c:87
     af4:	94000d03 	bl	3f00 <utee_cryp_obj_get_info>
/home/zliu/ubuntu-optee-rpi3/RPi3_OPTEE_3.1/optee_os/lib/libutee/tee_api_objects.c:90
     af8:	52800021 	mov	w1, #0x1                   	// #1
     afc:	121e7802 	and	w2, w0, #0xfffffffd
     b00:	7100001f 	cmp	w0, #0x0
     b04:	72be0201 	movk	w1, #0xf010, lsl #16
/home/zliu/ubuntu-optee-rpi3/RPi3_OPTEE_3.1/optee_os/lib/libutee/tee_api_objects.c:87
     b08:	2a0003f3 	mov	w19, w0
/home/zliu/ubuntu-optee-rpi3/RPi3_OPTEE_3.1/optee_os/lib/libutee/tee_api_objects.c:90
     b0c:	7a411044 	ccmp	w2, w1, #0x4, ne  // ne = any
     b10:	54000040 	b.eq	b18 <TEE_GetObjectInfo1+0x30>  // b.none
/home/zliu/ubuntu-optee-rpi3/RPi3_OPTEE_3.1/optee_os/lib/libutee/tee_api_objects.c:92
     b14:	94000c00 	bl	3b14 <TEE_Panic>
/home/zliu/ubuntu-optee-rpi3/RPi3_OPTEE_3.1/optee_os/lib/libutee/tee_api_objects.c:95
     b18:	2a1303e0 	mov	w0, w19
     b1c:	f9400bf3 	ldr	x19, [sp, #16]
     b20:	a8c27bfd 	ldp	x29, x30, [sp], #32
     b24:	d65f03c0 	ret

0000000000000b28 <TEE_RestrictObjectUsage1>:
TEE_RestrictObjectUsage1():
/home/zliu/ubuntu-optee-rpi3/RPi3_OPTEE_3.1/optee_os/lib/libutee/tee_api_objects.c:119
     b28:	a9be7bfd 	stp	x29, x30, [sp, #-32]!
/home/zliu/ubuntu-optee-rpi3/RPi3_OPTEE_3.1/optee_os/lib/libutee/tee_api_objects.c:122
     b2c:	2a0103e1 	mov	w1, w1
/home/zliu/ubuntu-optee-rpi3/RPi3_OPTEE_3.1/optee_os/lib/libutee/tee_api_objects.c:119
     b30:	910003fd 	mov	x29, sp
     b34:	f9000bf3 	str	x19, [sp, #16]
/home/zliu/ubuntu-optee-rpi3/RPi3_OPTEE_3.1/optee_os/lib/libutee/tee_api_objects.c:122
     b38:	94000cf5 	bl	3f0c <utee_cryp_obj_restrict_usage>
/home/zliu/ubuntu-optee-rpi3/RPi3_OPTEE_3.1/optee_os/lib/libutee/tee_api_objects.c:125
     b3c:	52800021 	mov	w1, #0x1                   	// #1
     b40:	121e7802 	and	w2, w0, #0xfffffffd
     b44:	7100001f 	cmp	w0, #0x0
     b48:	72be0201 	movk	w1, #0xf010, lsl #16
/home/zliu/ubuntu-optee-rpi3/RPi3_OPTEE_3.1/optee_os/lib/libutee/tee_api_objects.c:122
     b4c:	2a0003f3 	mov	w19, w0
/home/zliu/ubuntu-optee-rpi3/RPi3_OPTEE_3.1/optee_os/lib/libutee/tee_api_objects.c:125
     b50:	7a411044 	ccmp	w2, w1, #0x4, ne  // ne = any
     b54:	54000040 	b.eq	b5c <TEE_RestrictObjectUsage1+0x34>  // b.none
/home/zliu/ubuntu-optee-rpi3/RPi3_OPTEE_3.1/optee_os/lib/libutee/tee_api_objects.c:127
     b58:	94000bef 	bl	3b14 <TEE_Panic>
/home/zliu/ubuntu-optee-rpi3/RPi3_OPTEE_3.1/optee_os/lib/libutee/tee_api_objects.c:130
     b5c:	2a1303e0 	mov	w0, w19
     b60:	f9400bf3 	ldr	x19, [sp, #16]
     b64:	a8c27bfd 	ldp	x29, x30, [sp], #32
     b68:	d65f03c0 	ret

0000000000000b6c <TEE_RestrictObjectUsage>:
TEE_RestrictObjectUsage():
/home/zliu/ubuntu-optee-rpi3/RPi3_OPTEE_3.1/optee_os/lib/libutee/tee_api_objects.c:104
     b6c:	a9bc7bfd 	stp	x29, x30, [sp, #-64]!
     b70:	910003fd 	mov	x29, sp
     b74:	a90153f3 	stp	x19, x20, [sp, #16]
     b78:	aa0003f3 	mov	x19, x0
     b7c:	2a0103f4 	mov	w20, w1
/home/zliu/ubuntu-optee-rpi3/RPi3_OPTEE_3.1/optee_os/lib/libutee/tee_api_objects.c:108
     b80:	910083a1 	add	x1, x29, #0x20
     b84:	94000cdf 	bl	3f00 <utee_cryp_obj_get_info>
/home/zliu/ubuntu-optee-rpi3/RPi3_OPTEE_3.1/optee_os/lib/libutee/tee_api_objects.c:109
     b88:	b94023a1 	ldr	w1, [x29, #32]
     b8c:	528017c0 	mov	w0, #0xbe                  	// #190
     b90:	72b40000 	movk	w0, #0xa000, lsl #16
     b94:	6b00003f 	cmp	w1, w0
     b98:	540000c0 	b.eq	bb0 <TEE_RestrictObjectUsage+0x44>  // b.none
/home/zliu/ubuntu-optee-rpi3/RPi3_OPTEE_3.1/optee_os/lib/libutee/tee_api_objects.c:112
     b9c:	2a1403e1 	mov	w1, w20
     ba0:	aa1303e0 	mov	x0, x19
     ba4:	97ffffe1 	bl	b28 <TEE_RestrictObjectUsage1>
/home/zliu/ubuntu-optee-rpi3/RPi3_OPTEE_3.1/optee_os/lib/libutee/tee_api_objects.c:114
     ba8:	34000040 	cbz	w0, bb0 <TEE_RestrictObjectUsage+0x44>
/home/zliu/ubuntu-optee-rpi3/RPi3_OPTEE_3.1/optee_os/lib/libutee/tee_api_objects.c:115
     bac:	94000bda 	bl	3b14 <TEE_Panic>
/home/zliu/ubuntu-optee-rpi3/RPi3_OPTEE_3.1/optee_os/lib/libutee/tee_api_objects.c:116
     bb0:	a94153f3 	ldp	x19, x20, [sp, #16]
     bb4:	a8c47bfd 	ldp	x29, x30, [sp], #64
     bb8:	d65f03c0 	ret

0000000000000bbc <TEE_GetObjectBufferAttribute>:
TEE_GetObjectBufferAttribute():
/home/zliu/ubuntu-optee-rpi3/RPi3_OPTEE_3.1/optee_os/lib/libutee/tee_api_objects.c:135
     bbc:	a9b97bfd 	stp	x29, x30, [sp, #-112]!
     bc0:	910003fd 	mov	x29, sp
     bc4:	a90153f3 	stp	x19, x20, [sp, #16]
     bc8:	aa0303f4 	mov	x20, x3
     bcc:	a9025bf5 	stp	x21, x22, [sp, #32]
     bd0:	aa0003f6 	mov	x22, x0
     bd4:	f9001bf7 	str	x23, [sp, #48]
     bd8:	2a0103f5 	mov	w21, w1
     bdc:	aa0203f7 	mov	x23, x2
/home/zliu/ubuntu-optee-rpi3/RPi3_OPTEE_3.1/optee_os/lib/libutee/tee_api_objects.c:140
     be0:	910143a1 	add	x1, x29, #0x50
     be4:	94000cc7 	bl	3f00 <utee_cryp_obj_get_info>
     be8:	2a0003f3 	mov	w19, w0
/home/zliu/ubuntu-optee-rpi3/RPi3_OPTEE_3.1/optee_os/lib/libutee/tee_api_objects.c:141
     bec:	350001a0 	cbnz	w0, c20 <TEE_GetObjectBufferAttribute+0x64>
/home/zliu/ubuntu-optee-rpi3/RPi3_OPTEE_3.1/optee_os/lib/libutee/tee_api_objects.c:146
     bf0:	129fff33 	mov	w19, #0xffff0006            	// #-65530
/home/zliu/ubuntu-optee-rpi3/RPi3_OPTEE_3.1/optee_os/lib/libutee/tee_api_objects.c:145
     bf4:	37e80175 	tbnz	w21, #29, c20 <TEE_GetObjectBufferAttribute+0x64>
/home/zliu/ubuntu-optee-rpi3/RPi3_OPTEE_3.1/optee_os/lib/libutee/tee_api_objects.c:150
     bf8:	9101c3a3 	add	x3, x29, #0x70
     bfc:	b9400280 	ldr	w0, [x20]
/home/zliu/ubuntu-optee-rpi3/RPi3_OPTEE_3.1/optee_os/lib/libutee/tee_api_objects.c:151
     c00:	aa1703e2 	mov	x2, x23
     c04:	2a1503e1 	mov	w1, w21
/home/zliu/ubuntu-optee-rpi3/RPi3_OPTEE_3.1/optee_os/lib/libutee/tee_api_objects.c:150
     c08:	f81d8c60 	str	x0, [x3, #-40]!
/home/zliu/ubuntu-optee-rpi3/RPi3_OPTEE_3.1/optee_os/lib/libutee/tee_api_objects.c:151
     c0c:	aa1603e0 	mov	x0, x22
     c10:	94000cc2 	bl	3f18 <utee_cryp_obj_get_attr>
     c14:	2a0003f3 	mov	w19, w0
/home/zliu/ubuntu-optee-rpi3/RPi3_OPTEE_3.1/optee_os/lib/libutee/tee_api_objects.c:153
     c18:	f94027a0 	ldr	x0, [x29, #72]
     c1c:	b9000280 	str	w0, [x20]
/home/zliu/ubuntu-optee-rpi3/RPi3_OPTEE_3.1/optee_os/lib/libutee/tee_api_objects.c:157
     c20:	529fff00 	mov	w0, #0xfff8                	// #65528
     c24:	0b000260 	add	w0, w19, w0
/home/zliu/ubuntu-optee-rpi3/RPi3_OPTEE_3.1/optee_os/lib/libutee/tee_api_objects.c:156
     c28:	721c781f 	tst	w0, #0xfffffff7
     c2c:	7a401a64 	ccmp	w19, #0x0, #0x4, ne  // ne = any
     c30:	54000100 	b.eq	c50 <TEE_GetObjectBufferAttribute+0x94>  // b.none
/home/zliu/ubuntu-optee-rpi3/RPi3_OPTEE_3.1/optee_os/lib/libutee/tee_api_objects.c:159
     c34:	121e7a61 	and	w1, w19, #0xfffffffd
     c38:	52800020 	mov	w0, #0x1                   	// #1
     c3c:	72be0200 	movk	w0, #0xf010, lsl #16
     c40:	6b00003f 	cmp	w1, w0
     c44:	54000060 	b.eq	c50 <TEE_GetObjectBufferAttribute+0x94>  // b.none
/home/zliu/ubuntu-optee-rpi3/RPi3_OPTEE_3.1/optee_os/lib/libutee/tee_api_objects.c:161
     c48:	2a1303e0 	mov	w0, w19
     c4c:	94000bb2 	bl	3b14 <TEE_Panic>
/home/zliu/ubuntu-optee-rpi3/RPi3_OPTEE_3.1/optee_os/lib/libutee/tee_api_objects.c:164
     c50:	2a1303e0 	mov	w0, w19
     c54:	f9401bf7 	ldr	x23, [sp, #48]
     c58:	a94153f3 	ldp	x19, x20, [sp, #16]
     c5c:	a9425bf5 	ldp	x21, x22, [sp, #32]
     c60:	a8c77bfd 	ldp	x29, x30, [sp], #112
     c64:	d65f03c0 	ret

0000000000000c68 <TEE_GetObjectValueAttribute>:
TEE_GetObjectValueAttribute():
/home/zliu/ubuntu-optee-rpi3/RPi3_OPTEE_3.1/optee_os/lib/libutee/tee_api_objects.c:169
     c68:	a9b97bfd 	stp	x29, x30, [sp, #-112]!
     c6c:	910003fd 	mov	x29, sp
     c70:	a9025bf5 	stp	x21, x22, [sp, #32]
     c74:	2a0103f6 	mov	w22, w1
/home/zliu/ubuntu-optee-rpi3/RPi3_OPTEE_3.1/optee_os/lib/libutee/tee_api_objects.c:173
     c78:	d2800101 	mov	x1, #0x8                   	// #8
/home/zliu/ubuntu-optee-rpi3/RPi3_OPTEE_3.1/optee_os/lib/libutee/tee_api_objects.c:169
     c7c:	a90153f3 	stp	x19, x20, [sp, #16]
/home/zliu/ubuntu-optee-rpi3/RPi3_OPTEE_3.1/optee_os/lib/libutee/tee_api_objects.c:173
     c80:	f90027a1 	str	x1, [x29, #72]
/home/zliu/ubuntu-optee-rpi3/RPi3_OPTEE_3.1/optee_os/lib/libutee/tee_api_objects.c:169
     c84:	aa0203f5 	mov	x21, x2
     c88:	f9001bf7 	str	x23, [sp, #48]
     c8c:	aa0303f4 	mov	x20, x3
/home/zliu/ubuntu-optee-rpi3/RPi3_OPTEE_3.1/optee_os/lib/libutee/tee_api_objects.c:175
     c90:	910143a1 	add	x1, x29, #0x50
/home/zliu/ubuntu-optee-rpi3/RPi3_OPTEE_3.1/optee_os/lib/libutee/tee_api_objects.c:169
     c94:	aa0003f7 	mov	x23, x0
/home/zliu/ubuntu-optee-rpi3/RPi3_OPTEE_3.1/optee_os/lib/libutee/tee_api_objects.c:175
     c98:	94000c9a 	bl	3f00 <utee_cryp_obj_get_info>
     c9c:	2a0003f3 	mov	w19, w0
/home/zliu/ubuntu-optee-rpi3/RPi3_OPTEE_3.1/optee_os/lib/libutee/tee_api_objects.c:176
     ca0:	35000120 	cbnz	w0, cc4 <TEE_GetObjectValueAttribute+0x5c>
/home/zliu/ubuntu-optee-rpi3/RPi3_OPTEE_3.1/optee_os/lib/libutee/tee_api_objects.c:181
     ca4:	129fff33 	mov	w19, #0xffff0006            	// #-65530
/home/zliu/ubuntu-optee-rpi3/RPi3_OPTEE_3.1/optee_os/lib/libutee/tee_api_objects.c:180
     ca8:	36e800f6 	tbz	w22, #29, cc4 <TEE_GetObjectValueAttribute+0x5c>
/home/zliu/ubuntu-optee-rpi3/RPi3_OPTEE_3.1/optee_os/lib/libutee/tee_api_objects.c:185
     cac:	910123a3 	add	x3, x29, #0x48
     cb0:	910103a2 	add	x2, x29, #0x40
     cb4:	2a1603e1 	mov	w1, w22
     cb8:	aa1703e0 	mov	x0, x23
     cbc:	94000c97 	bl	3f18 <utee_cryp_obj_get_attr>
     cc0:	2a0003f3 	mov	w19, w0
/home/zliu/ubuntu-optee-rpi3/RPi3_OPTEE_3.1/optee_os/lib/libutee/tee_api_objects.c:189
     cc4:	7100027f 	cmp	w19, #0x0
     cc8:	129ffee0 	mov	w0, #0xffff0008            	// #-65528
     ccc:	7a401264 	ccmp	w19, w0, #0x4, ne  // ne = any
     cd0:	54000100 	b.eq	cf0 <TEE_GetObjectValueAttribute+0x88>  // b.none
/home/zliu/ubuntu-optee-rpi3/RPi3_OPTEE_3.1/optee_os/lib/libutee/tee_api_objects.c:191
     cd4:	121e7a61 	and	w1, w19, #0xfffffffd
     cd8:	52800020 	mov	w0, #0x1                   	// #1
     cdc:	72be0200 	movk	w0, #0xf010, lsl #16
     ce0:	6b00003f 	cmp	w1, w0
     ce4:	54000060 	b.eq	cf0 <TEE_GetObjectValueAttribute+0x88>  // b.none
/home/zliu/ubuntu-optee-rpi3/RPi3_OPTEE_3.1/optee_os/lib/libutee/tee_api_objects.c:193
     ce8:	2a1303e0 	mov	w0, w19
     cec:	94000b8a 	bl	3b14 <TEE_Panic>
/home/zliu/ubuntu-optee-rpi3/RPi3_OPTEE_3.1/optee_os/lib/libutee/tee_api_objects.c:195
     cf0:	f94027a0 	ldr	x0, [x29, #72]
     cf4:	f100201f 	cmp	x0, #0x8
     cf8:	54000060 	b.eq	d04 <TEE_GetObjectValueAttribute+0x9c>  // b.none
/home/zliu/ubuntu-optee-rpi3/RPi3_OPTEE_3.1/optee_os/lib/libutee/tee_api_objects.c:196
     cfc:	52800000 	mov	w0, #0x0                   	// #0
     d00:	94000b85 	bl	3b14 <TEE_Panic>
/home/zliu/ubuntu-optee-rpi3/RPi3_OPTEE_3.1/optee_os/lib/libutee/tee_api_objects.c:198
     d04:	350000f3 	cbnz	w19, d20 <TEE_GetObjectValueAttribute+0xb8>
/home/zliu/ubuntu-optee-rpi3/RPi3_OPTEE_3.1/optee_os/lib/libutee/tee_api_objects.c:199
     d08:	b4000075 	cbz	x21, d14 <TEE_GetObjectValueAttribute+0xac>
/home/zliu/ubuntu-optee-rpi3/RPi3_OPTEE_3.1/optee_os/lib/libutee/tee_api_objects.c:200
     d0c:	b94043a0 	ldr	w0, [x29, #64]
     d10:	b90002a0 	str	w0, [x21]
/home/zliu/ubuntu-optee-rpi3/RPi3_OPTEE_3.1/optee_os/lib/libutee/tee_api_objects.c:201
     d14:	b4000074 	cbz	x20, d20 <TEE_GetObjectValueAttribute+0xb8>
/home/zliu/ubuntu-optee-rpi3/RPi3_OPTEE_3.1/optee_os/lib/libutee/tee_api_objects.c:202
     d18:	b94047a0 	ldr	w0, [x29, #68]
     d1c:	b9000280 	str	w0, [x20]
/home/zliu/ubuntu-optee-rpi3/RPi3_OPTEE_3.1/optee_os/lib/libutee/tee_api_objects.c:206
     d20:	2a1303e0 	mov	w0, w19
     d24:	f9401bf7 	ldr	x23, [sp, #48]
     d28:	a94153f3 	ldp	x19, x20, [sp, #16]
     d2c:	a9425bf5 	ldp	x21, x22, [sp, #32]
     d30:	a8c77bfd 	ldp	x29, x30, [sp], #112
     d34:	d65f03c0 	ret

0000000000000d38 <TEE_CloseObject>:
TEE_CloseObject():
/home/zliu/ubuntu-optee-rpi3/RPi3_OPTEE_3.1/optee_os/lib/libutee/tee_api_objects.c:212
     d38:	b4000120 	cbz	x0, d5c <TEE_CloseObject+0x24>
/home/zliu/ubuntu-optee-rpi3/RPi3_OPTEE_3.1/optee_os/lib/libutee/tee_api_objects.c:209
     d3c:	a9bf7bfd 	stp	x29, x30, [sp, #-16]!
     d40:	910003fd 	mov	x29, sp
/home/zliu/ubuntu-optee-rpi3/RPi3_OPTEE_3.1/optee_os/lib/libutee/tee_api_objects.c:215
     d44:	94000c7b 	bl	3f30 <utee_cryp_obj_close>
/home/zliu/ubuntu-optee-rpi3/RPi3_OPTEE_3.1/optee_os/lib/libutee/tee_api_objects.c:216
     d48:	34000060 	cbz	w0, d54 <TEE_CloseObject+0x1c>
/home/zliu/ubuntu-optee-rpi3/RPi3_OPTEE_3.1/optee_os/lib/libutee/tee_api_objects.c:218
     d4c:	a8c17bfd 	ldp	x29, x30, [sp], #16
/home/zliu/ubuntu-optee-rpi3/RPi3_OPTEE_3.1/optee_os/lib/libutee/tee_api_objects.c:217
     d50:	14000b71 	b	3b14 <TEE_Panic>
/home/zliu/ubuntu-optee-rpi3/RPi3_OPTEE_3.1/optee_os/lib/libutee/tee_api_objects.c:218
     d54:	a8c17bfd 	ldp	x29, x30, [sp], #16
     d58:	d65f03c0 	ret
     d5c:	d65f03c0 	ret

0000000000000d60 <TEE_AllocateTransientObject>:
TEE_AllocateTransientObject():
/home/zliu/ubuntu-optee-rpi3/RPi3_OPTEE_3.1/optee_os/lib/libutee/tee_api_objects.c:225
     d60:	a9bd7bfd 	stp	x29, x30, [sp, #-48]!
/home/zliu/ubuntu-optee-rpi3/RPi3_OPTEE_3.1/optee_os/lib/libutee/tee_api_objects.c:229
     d64:	2a0103e1 	mov	w1, w1
     d68:	2a0003e0 	mov	w0, w0
/home/zliu/ubuntu-optee-rpi3/RPi3_OPTEE_3.1/optee_os/lib/libutee/tee_api_objects.c:225
     d6c:	910003fd 	mov	x29, sp
     d70:	a90153f3 	stp	x19, x20, [sp, #16]
     d74:	aa0203f4 	mov	x20, x2
/home/zliu/ubuntu-optee-rpi3/RPi3_OPTEE_3.1/optee_os/lib/libutee/tee_api_objects.c:229
     d78:	9100b3a2 	add	x2, x29, #0x2c
     d7c:	94000c6a 	bl	3f24 <utee_cryp_obj_alloc>
/home/zliu/ubuntu-optee-rpi3/RPi3_OPTEE_3.1/optee_os/lib/libutee/tee_api_objects.c:231
     d80:	7100001f 	cmp	w0, #0x0
     d84:	129ffe61 	mov	w1, #0xffff000c            	// #-65524
/home/zliu/ubuntu-optee-rpi3/RPi3_OPTEE_3.1/optee_os/lib/libutee/tee_api_objects.c:229
     d88:	2a0003f3 	mov	w19, w0
/home/zliu/ubuntu-optee-rpi3/RPi3_OPTEE_3.1/optee_os/lib/libutee/tee_api_objects.c:231
     d8c:	7a411004 	ccmp	w0, w1, #0x4, ne  // ne = any
     d90:	54000120 	b.eq	db4 <TEE_AllocateTransientObject+0x54>  // b.none
/home/zliu/ubuntu-optee-rpi3/RPi3_OPTEE_3.1/optee_os/lib/libutee/tee_api_objects.c:232
     d94:	129ffea1 	mov	w1, #0xffff000a            	// #-65526
     d98:	6b01001f 	cmp	w0, w1
     d9c:	54000040 	b.eq	da4 <TEE_AllocateTransientObject+0x44>  // b.none
/home/zliu/ubuntu-optee-rpi3/RPi3_OPTEE_3.1/optee_os/lib/libutee/tee_api_objects.c:234
     da0:	94000b5d 	bl	3b14 <TEE_Panic>
/home/zliu/ubuntu-optee-rpi3/RPi3_OPTEE_3.1/optee_os/lib/libutee/tee_api_objects.c:240
     da4:	2a1303e0 	mov	w0, w19
     da8:	a94153f3 	ldp	x19, x20, [sp, #16]
     dac:	a8c37bfd 	ldp	x29, x30, [sp], #48
     db0:	d65f03c0 	ret
/home/zliu/ubuntu-optee-rpi3/RPi3_OPTEE_3.1/optee_os/lib/libutee/tee_api_objects.c:236
     db4:	35ffff80 	cbnz	w0, da4 <TEE_AllocateTransientObject+0x44>
/home/zliu/ubuntu-optee-rpi3/RPi3_OPTEE_3.1/optee_os/lib/libutee/tee_api_objects.c:237
     db8:	b9402fa0 	ldr	w0, [x29, #44]
     dbc:	f9000280 	str	x0, [x20]
/home/zliu/ubuntu-optee-rpi3/RPi3_OPTEE_3.1/optee_os/lib/libutee/tee_api_objects.c:239
     dc0:	17fffff9 	b	da4 <TEE_AllocateTransientObject+0x44>

0000000000000dc4 <TEE_FreeTransientObject>:
TEE_FreeTransientObject():
/home/zliu/ubuntu-optee-rpi3/RPi3_OPTEE_3.1/optee_os/lib/libutee/tee_api_objects.c:247
     dc4:	b4000280 	cbz	x0, e14 <TEE_FreeTransientObject+0x50>
/home/zliu/ubuntu-optee-rpi3/RPi3_OPTEE_3.1/optee_os/lib/libutee/tee_api_objects.c:243
     dc8:	a9bc7bfd 	stp	x29, x30, [sp, #-64]!
     dcc:	910003fd 	mov	x29, sp
     dd0:	f9000bf3 	str	x19, [sp, #16]
/home/zliu/ubuntu-optee-rpi3/RPi3_OPTEE_3.1/optee_os/lib/libutee/tee_api_objects.c:250
     dd4:	910083a1 	add	x1, x29, #0x20
     dd8:	aa0003f3 	mov	x19, x0
     ddc:	94000c49 	bl	3f00 <utee_cryp_obj_get_info>
/home/zliu/ubuntu-optee-rpi3/RPi3_OPTEE_3.1/optee_os/lib/libutee/tee_api_objects.c:251
     de0:	34000040 	cbz	w0, de8 <TEE_FreeTransientObject+0x24>
/home/zliu/ubuntu-optee-rpi3/RPi3_OPTEE_3.1/optee_os/lib/libutee/tee_api_objects.c:252
     de4:	94000b4c 	bl	3b14 <TEE_Panic>
/home/zliu/ubuntu-optee-rpi3/RPi3_OPTEE_3.1/optee_os/lib/libutee/tee_api_objects.c:254
     de8:	b9403ba0 	ldr	w0, [x29, #56]
     dec:	36800060 	tbz	w0, #16, df8 <TEE_FreeTransientObject+0x34>
/home/zliu/ubuntu-optee-rpi3/RPi3_OPTEE_3.1/optee_os/lib/libutee/tee_api_objects.c:255
     df0:	52800000 	mov	w0, #0x0                   	// #0
     df4:	94000b48 	bl	3b14 <TEE_Panic>
/home/zliu/ubuntu-optee-rpi3/RPi3_OPTEE_3.1/optee_os/lib/libutee/tee_api_objects.c:257
     df8:	aa1303e0 	mov	x0, x19
     dfc:	94000c4d 	bl	3f30 <utee_cryp_obj_close>
/home/zliu/ubuntu-optee-rpi3/RPi3_OPTEE_3.1/optee_os/lib/libutee/tee_api_objects.c:258
     e00:	34000040 	cbz	w0, e08 <TEE_FreeTransientObject+0x44>
/home/zliu/ubuntu-optee-rpi3/RPi3_OPTEE_3.1/optee_os/lib/libutee/tee_api_objects.c:259
     e04:	94000b44 	bl	3b14 <TEE_Panic>
/home/zliu/ubuntu-optee-rpi3/RPi3_OPTEE_3.1/optee_os/lib/libutee/tee_api_objects.c:260
     e08:	f9400bf3 	ldr	x19, [sp, #16]
     e0c:	a8c47bfd 	ldp	x29, x30, [sp], #64
     e10:	d65f03c0 	ret
     e14:	d65f03c0 	ret

0000000000000e18 <TEE_ResetTransientObject>:
TEE_ResetTransientObject():
/home/zliu/ubuntu-optee-rpi3/RPi3_OPTEE_3.1/optee_os/lib/libutee/tee_api_objects.c:267
     e18:	b4000280 	cbz	x0, e68 <TEE_ResetTransientObject+0x50>
/home/zliu/ubuntu-optee-rpi3/RPi3_OPTEE_3.1/optee_os/lib/libutee/tee_api_objects.c:263
     e1c:	a9bc7bfd 	stp	x29, x30, [sp, #-64]!
     e20:	910003fd 	mov	x29, sp
     e24:	f9000bf3 	str	x19, [sp, #16]
/home/zliu/ubuntu-optee-rpi3/RPi3_OPTEE_3.1/optee_os/lib/libutee/tee_api_objects.c:270
     e28:	910083a1 	add	x1, x29, #0x20
     e2c:	aa0003f3 	mov	x19, x0
     e30:	94000c34 	bl	3f00 <utee_cryp_obj_get_info>
/home/zliu/ubuntu-optee-rpi3/RPi3_OPTEE_3.1/optee_os/lib/libutee/tee_api_objects.c:271
     e34:	34000040 	cbz	w0, e3c <TEE_ResetTransientObject+0x24>
/home/zliu/ubuntu-optee-rpi3/RPi3_OPTEE_3.1/optee_os/lib/libutee/tee_api_objects.c:272
     e38:	94000b37 	bl	3b14 <TEE_Panic>
/home/zliu/ubuntu-optee-rpi3/RPi3_OPTEE_3.1/optee_os/lib/libutee/tee_api_objects.c:274
     e3c:	b9403ba0 	ldr	w0, [x29, #56]
     e40:	36800060 	tbz	w0, #16, e4c <TEE_ResetTransientObject+0x34>
/home/zliu/ubuntu-optee-rpi3/RPi3_OPTEE_3.1/optee_os/lib/libutee/tee_api_objects.c:275
     e44:	52800000 	mov	w0, #0x0                   	// #0
     e48:	94000b33 	bl	3b14 <TEE_Panic>
/home/zliu/ubuntu-optee-rpi3/RPi3_OPTEE_3.1/optee_os/lib/libutee/tee_api_objects.c:277
     e4c:	aa1303e0 	mov	x0, x19
     e50:	94000c3b 	bl	3f3c <utee_cryp_obj_reset>
/home/zliu/ubuntu-optee-rpi3/RPi3_OPTEE_3.1/optee_os/lib/libutee/tee_api_objects.c:278
     e54:	34000040 	cbz	w0, e5c <TEE_ResetTransientObject+0x44>
/home/zliu/ubuntu-optee-rpi3/RPi3_OPTEE_3.1/optee_os/lib/libutee/tee_api_objects.c:279
     e58:	94000b2f 	bl	3b14 <TEE_Panic>
/home/zliu/ubuntu-optee-rpi3/RPi3_OPTEE_3.1/optee_os/lib/libutee/tee_api_objects.c:280
     e5c:	f9400bf3 	ldr	x19, [sp, #16]
     e60:	a8c47bfd 	ldp	x29, x30, [sp], #64
     e64:	d65f03c0 	ret
     e68:	d65f03c0 	ret

0000000000000e6c <TEE_PopulateTransientObject>:
TEE_PopulateTransientObject():
/home/zliu/ubuntu-optee-rpi3/RPi3_OPTEE_3.1/optee_os/lib/libutee/tee_api_objects.c:285
     e6c:	a9ba7bfd 	stp	x29, x30, [sp, #-96]!
     e70:	910003fd 	mov	x29, sp
     e74:	a9025bf5 	stp	x21, x22, [sp, #32]
     e78:	2a0203f6 	mov	w22, w2
     e7c:	f9001bf7 	str	x23, [sp, #48]
     e80:	aa0103f7 	mov	x23, x1
/home/zliu/ubuntu-optee-rpi3/RPi3_OPTEE_3.1/optee_os/lib/libutee/tee_api_objects.c:288
     e84:	52800301 	mov	w1, #0x18                  	// #24
/home/zliu/ubuntu-optee-rpi3/RPi3_OPTEE_3.1/optee_os/lib/libutee/tee_api_objects.c:285
     e88:	a90153f3 	stp	x19, x20, [sp, #16]
     e8c:	aa0003f5 	mov	x21, x0
     e90:	aa1603f3 	mov	x19, x22
/home/zliu/ubuntu-optee-rpi3/RPi3_OPTEE_3.1/optee_os/lib/libutee/tee_api_objects.c:288
     e94:	9ba17ec1 	umull	x1, w22, w1
     e98:	91005821 	add	x1, x1, #0x16
     e9c:	927c8421 	and	x1, x1, #0x3ffffffff0
     ea0:	cb2163ff 	sub	sp, sp, x1
/home/zliu/ubuntu-optee-rpi3/RPi3_OPTEE_3.1/optee_os/lib/libutee/tee_api_objects.c:290
     ea4:	910103a1 	add	x1, x29, #0x40
/home/zliu/ubuntu-optee-rpi3/RPi3_OPTEE_3.1/optee_os/lib/libutee/tee_api_objects.c:288
     ea8:	910003f4 	mov	x20, sp
/home/zliu/ubuntu-optee-rpi3/RPi3_OPTEE_3.1/optee_os/lib/libutee/tee_api_objects.c:290
     eac:	94000c15 	bl	3f00 <utee_cryp_obj_get_info>
/home/zliu/ubuntu-optee-rpi3/RPi3_OPTEE_3.1/optee_os/lib/libutee/tee_api_objects.c:291
     eb0:	34000040 	cbz	w0, eb8 <TEE_PopulateTransientObject+0x4c>
/home/zliu/ubuntu-optee-rpi3/RPi3_OPTEE_3.1/optee_os/lib/libutee/tee_api_objects.c:292
     eb4:	94000b18 	bl	3b14 <TEE_Panic>
/home/zliu/ubuntu-optee-rpi3/RPi3_OPTEE_3.1/optee_os/lib/libutee/tee_api_objects.c:295
     eb8:	b9405ba0 	ldr	w0, [x29, #88]
     ebc:	36800060 	tbz	w0, #16, ec8 <TEE_PopulateTransientObject+0x5c>
/home/zliu/ubuntu-optee-rpi3/RPi3_OPTEE_3.1/optee_os/lib/libutee/tee_api_objects.c:296
     ec0:	52800000 	mov	w0, #0x0                   	// #0
     ec4:	94000b14 	bl	3b14 <TEE_Panic>
/home/zliu/ubuntu-optee-rpi3/RPi3_OPTEE_3.1/optee_os/lib/libutee/tee_api_objects.c:299
     ec8:	b9405ba0 	ldr	w0, [x29, #88]
     ecc:	36880060 	tbz	w0, #17, ed8 <TEE_PopulateTransientObject+0x6c>
/home/zliu/ubuntu-optee-rpi3/RPi3_OPTEE_3.1/optee_os/lib/libutee/tee_api_objects.c:300
     ed0:	52800000 	mov	w0, #0x0                   	// #0
     ed4:	94000b10 	bl	3b14 <TEE_Panic>
/home/zliu/ubuntu-optee-rpi3/RPi3_OPTEE_3.1/optee_os/lib/libutee/tee_api_objects.c:302
     ed8:	2a1303e2 	mov	w2, w19
     edc:	aa1703e1 	mov	x1, x23
     ee0:	aa1403e0 	mov	x0, x20
     ee4:	97fffedc 	bl	a54 <__utee_from_attr>
/home/zliu/ubuntu-optee-rpi3/RPi3_OPTEE_3.1/optee_os/lib/libutee/tee_api_objects.c:303
     ee8:	aa1403e1 	mov	x1, x20
     eec:	aa1603e2 	mov	x2, x22
     ef0:	aa1503e0 	mov	x0, x21
     ef4:	94000c15 	bl	3f48 <utee_cryp_obj_populate>
/home/zliu/ubuntu-optee-rpi3/RPi3_OPTEE_3.1/optee_os/lib/libutee/tee_api_objects.c:304
     ef8:	7100001f 	cmp	w0, #0x0
     efc:	129fff21 	mov	w1, #0xffff0006            	// #-65530
/home/zliu/ubuntu-optee-rpi3/RPi3_OPTEE_3.1/optee_os/lib/libutee/tee_api_objects.c:303
     f00:	2a0003f3 	mov	w19, w0
/home/zliu/ubuntu-optee-rpi3/RPi3_OPTEE_3.1/optee_os/lib/libutee/tee_api_objects.c:304
     f04:	7a411004 	ccmp	w0, w1, #0x4, ne  // ne = any
     f08:	54000040 	b.eq	f10 <TEE_PopulateTransientObject+0xa4>  // b.none
/home/zliu/ubuntu-optee-rpi3/RPi3_OPTEE_3.1/optee_os/lib/libutee/tee_api_objects.c:305
     f0c:	94000b02 	bl	3b14 <TEE_Panic>
/home/zliu/ubuntu-optee-rpi3/RPi3_OPTEE_3.1/optee_os/lib/libutee/tee_api_objects.c:307
     f10:	910003bf 	mov	sp, x29
     f14:	2a1303e0 	mov	w0, w19
     f18:	f9401bf7 	ldr	x23, [sp, #48]
     f1c:	a94153f3 	ldp	x19, x20, [sp, #16]
     f20:	a9425bf5 	ldp	x21, x22, [sp, #32]
     f24:	a8c67bfd 	ldp	x29, x30, [sp], #96
     f28:	d65f03c0 	ret

0000000000000f2c <TEE_InitRefAttribute>:
TEE_InitRefAttribute():
/home/zliu/ubuntu-optee-rpi3/RPi3_OPTEE_3.1/optee_os/lib/libutee/tee_api_objects.c:311
     f2c:	a9bd7bfd 	stp	x29, x30, [sp, #-48]!
     f30:	910003fd 	mov	x29, sp
     f34:	a90153f3 	stp	x19, x20, [sp, #16]
     f38:	aa0003f3 	mov	x19, x0
     f3c:	a9025bf5 	stp	x21, x22, [sp, #32]
     f40:	2a0103f4 	mov	w20, w1
     f44:	aa0203f6 	mov	x22, x2
     f48:	2a0303f5 	mov	w21, w3
/home/zliu/ubuntu-optee-rpi3/RPi3_OPTEE_3.1/optee_os/lib/libutee/tee_api_objects.c:312
     f4c:	b5000060 	cbnz	x0, f58 <TEE_InitRefAttribute+0x2c>
/home/zliu/ubuntu-optee-rpi3/RPi3_OPTEE_3.1/optee_os/lib/libutee/tee_api_objects.c:313
     f50:	52800000 	mov	w0, #0x0                   	// #0
     f54:	94000af0 	bl	3b14 <TEE_Panic>
/home/zliu/ubuntu-optee-rpi3/RPi3_OPTEE_3.1/optee_os/lib/libutee/tee_api_objects.c:314
     f58:	36e80074 	tbz	w20, #29, f64 <TEE_InitRefAttribute+0x38>
/home/zliu/ubuntu-optee-rpi3/RPi3_OPTEE_3.1/optee_os/lib/libutee/tee_api_objects.c:315
     f5c:	52800000 	mov	w0, #0x0                   	// #0
     f60:	94000aed 	bl	3b14 <TEE_Panic>
/home/zliu/ubuntu-optee-rpi3/RPi3_OPTEE_3.1/optee_os/lib/libutee/tee_api_objects.c:317
     f64:	f9000676 	str	x22, [x19, #8]
/home/zliu/ubuntu-optee-rpi3/RPi3_OPTEE_3.1/optee_os/lib/libutee/tee_api_objects.c:318
     f68:	b9001275 	str	w21, [x19, #16]
/home/zliu/ubuntu-optee-rpi3/RPi3_OPTEE_3.1/optee_os/lib/libutee/tee_api_objects.c:316
     f6c:	b9000274 	str	w20, [x19]
/home/zliu/ubuntu-optee-rpi3/RPi3_OPTEE_3.1/optee_os/lib/libutee/tee_api_objects.c:319
     f70:	a9425bf5 	ldp	x21, x22, [sp, #32]
     f74:	a94153f3 	ldp	x19, x20, [sp, #16]
     f78:	a8c37bfd 	ldp	x29, x30, [sp], #48
     f7c:	d65f03c0 	ret

0000000000000f80 <TEE_InitValueAttribute>:
TEE_InitValueAttribute():
/home/zliu/ubuntu-optee-rpi3/RPi3_OPTEE_3.1/optee_os/lib/libutee/tee_api_objects.c:323
     f80:	a9bd7bfd 	stp	x29, x30, [sp, #-48]!
     f84:	910003fd 	mov	x29, sp
     f88:	a90153f3 	stp	x19, x20, [sp, #16]
     f8c:	aa0003f3 	mov	x19, x0
     f90:	a9025bf5 	stp	x21, x22, [sp, #32]
     f94:	2a0103f4 	mov	w20, w1
     f98:	2a0203f6 	mov	w22, w2
     f9c:	2a0303f5 	mov	w21, w3
/home/zliu/ubuntu-optee-rpi3/RPi3_OPTEE_3.1/optee_os/lib/libutee/tee_api_objects.c:324
     fa0:	b5000060 	cbnz	x0, fac <TEE_InitValueAttribute+0x2c>
/home/zliu/ubuntu-optee-rpi3/RPi3_OPTEE_3.1/optee_os/lib/libutee/tee_api_objects.c:325
     fa4:	52800000 	mov	w0, #0x0                   	// #0
     fa8:	94000adb 	bl	3b14 <TEE_Panic>
/home/zliu/ubuntu-optee-rpi3/RPi3_OPTEE_3.1/optee_os/lib/libutee/tee_api_objects.c:326
     fac:	37e80074 	tbnz	w20, #29, fb8 <TEE_InitValueAttribute+0x38>
/home/zliu/ubuntu-optee-rpi3/RPi3_OPTEE_3.1/optee_os/lib/libutee/tee_api_objects.c:327
     fb0:	52800000 	mov	w0, #0x0                   	// #0
     fb4:	94000ad8 	bl	3b14 <TEE_Panic>
/home/zliu/ubuntu-optee-rpi3/RPi3_OPTEE_3.1/optee_os/lib/libutee/tee_api_objects.c:330
     fb8:	29015676 	stp	w22, w21, [x19, #8]
/home/zliu/ubuntu-optee-rpi3/RPi3_OPTEE_3.1/optee_os/lib/libutee/tee_api_objects.c:328
     fbc:	b9000274 	str	w20, [x19]
/home/zliu/ubuntu-optee-rpi3/RPi3_OPTEE_3.1/optee_os/lib/libutee/tee_api_objects.c:331
     fc0:	a9425bf5 	ldp	x21, x22, [sp, #32]
     fc4:	a94153f3 	ldp	x19, x20, [sp, #16]
     fc8:	a8c37bfd 	ldp	x29, x30, [sp], #48
     fcc:	d65f03c0 	ret

0000000000000fd0 <TEE_CopyObjectAttributes1>:
TEE_CopyObjectAttributes1():
/home/zliu/ubuntu-optee-rpi3/RPi3_OPTEE_3.1/optee_os/lib/libutee/tee_api_objects.c:356
     fd0:	a9b97bfd 	stp	x29, x30, [sp, #-112]!
     fd4:	910003fd 	mov	x29, sp
     fd8:	a90153f3 	stp	x19, x20, [sp, #16]
     fdc:	aa0103f4 	mov	x20, x1
     fe0:	f90013f5 	str	x21, [sp, #32]
/home/zliu/ubuntu-optee-rpi3/RPi3_OPTEE_3.1/optee_os/lib/libutee/tee_api_objects.c:361
     fe4:	9100c3a1 	add	x1, x29, #0x30
/home/zliu/ubuntu-optee-rpi3/RPi3_OPTEE_3.1/optee_os/lib/libutee/tee_api_objects.c:356
     fe8:	aa0003f5 	mov	x21, x0
/home/zliu/ubuntu-optee-rpi3/RPi3_OPTEE_3.1/optee_os/lib/libutee/tee_api_objects.c:361
     fec:	94000bc5 	bl	3f00 <utee_cryp_obj_get_info>
     ff0:	2a0003f3 	mov	w19, w0
/home/zliu/ubuntu-optee-rpi3/RPi3_OPTEE_3.1/optee_os/lib/libutee/tee_api_objects.c:362
     ff4:	350002a0 	cbnz	w0, 1048 <TEE_CopyObjectAttributes1+0x78>
/home/zliu/ubuntu-optee-rpi3/RPi3_OPTEE_3.1/optee_os/lib/libutee/tee_api_objects.c:365
     ff8:	910143a1 	add	x1, x29, #0x50
     ffc:	aa1403e0 	mov	x0, x20
    1000:	94000bc0 	bl	3f00 <utee_cryp_obj_get_info>
    1004:	2a0003f3 	mov	w19, w0
/home/zliu/ubuntu-optee-rpi3/RPi3_OPTEE_3.1/optee_os/lib/libutee/tee_api_objects.c:366
    1008:	35000200 	cbnz	w0, 1048 <TEE_CopyObjectAttributes1+0x78>
/home/zliu/ubuntu-optee-rpi3/RPi3_OPTEE_3.1/optee_os/lib/libutee/tee_api_objects.c:369
    100c:	b9406ba1 	ldr	w1, [x29, #104]
    1010:	37880041 	tbnz	w1, #17, 1018 <TEE_CopyObjectAttributes1+0x48>
/home/zliu/ubuntu-optee-rpi3/RPi3_OPTEE_3.1/optee_os/lib/libutee/tee_api_objects.c:370
    1014:	94000ac0 	bl	3b14 <TEE_Panic>
/home/zliu/ubuntu-optee-rpi3/RPi3_OPTEE_3.1/optee_os/lib/libutee/tee_api_objects.c:372
    1018:	b9404ba0 	ldr	w0, [x29, #72]
    101c:	36800060 	tbz	w0, #16, 1028 <TEE_CopyObjectAttributes1+0x58>
/home/zliu/ubuntu-optee-rpi3/RPi3_OPTEE_3.1/optee_os/lib/libutee/tee_api_objects.c:373
    1020:	52800000 	mov	w0, #0x0                   	// #0
    1024:	94000abc 	bl	3b14 <TEE_Panic>
/home/zliu/ubuntu-optee-rpi3/RPi3_OPTEE_3.1/optee_os/lib/libutee/tee_api_objects.c:375
    1028:	b9404ba0 	ldr	w0, [x29, #72]
    102c:	36880060 	tbz	w0, #17, 1038 <TEE_CopyObjectAttributes1+0x68>
/home/zliu/ubuntu-optee-rpi3/RPi3_OPTEE_3.1/optee_os/lib/libutee/tee_api_objects.c:376
    1030:	52800000 	mov	w0, #0x0                   	// #0
    1034:	94000ab8 	bl	3b14 <TEE_Panic>
/home/zliu/ubuntu-optee-rpi3/RPi3_OPTEE_3.1/optee_os/lib/libutee/tee_api_objects.c:378
    1038:	aa1403e1 	mov	x1, x20
    103c:	aa1503e0 	mov	x0, x21
    1040:	94000bc5 	bl	3f54 <utee_cryp_obj_copy>
    1044:	2a0003f3 	mov	w19, w0
/home/zliu/ubuntu-optee-rpi3/RPi3_OPTEE_3.1/optee_os/lib/libutee/tee_api_objects.c:383
    1048:	121e7a60 	and	w0, w19, #0xfffffffd
    104c:	7100027f 	cmp	w19, #0x0
    1050:	52800021 	mov	w1, #0x1                   	// #1
    1054:	72be0201 	movk	w1, #0xf010, lsl #16
    1058:	7a411004 	ccmp	w0, w1, #0x4, ne  // ne = any
    105c:	54000060 	b.eq	1068 <TEE_CopyObjectAttributes1+0x98>  // b.none
/home/zliu/ubuntu-optee-rpi3/RPi3_OPTEE_3.1/optee_os/lib/libutee/tee_api_objects.c:385
    1060:	2a1303e0 	mov	w0, w19
    1064:	94000aac 	bl	3b14 <TEE_Panic>
/home/zliu/ubuntu-optee-rpi3/RPi3_OPTEE_3.1/optee_os/lib/libutee/tee_api_objects.c:388
    1068:	2a1303e0 	mov	w0, w19
    106c:	f94013f5 	ldr	x21, [sp, #32]
    1070:	a94153f3 	ldp	x19, x20, [sp, #16]
    1074:	a8c77bfd 	ldp	x29, x30, [sp], #112
    1078:	d65f03c0 	ret

000000000000107c <TEE_CopyObjectAttributes>:
TEE_CopyObjectAttributes():
/home/zliu/ubuntu-optee-rpi3/RPi3_OPTEE_3.1/optee_os/lib/libutee/tee_api_objects.c:341
    107c:	a9bc7bfd 	stp	x29, x30, [sp, #-64]!
    1080:	910003fd 	mov	x29, sp
    1084:	a90153f3 	stp	x19, x20, [sp, #16]
    1088:	aa0103f3 	mov	x19, x1
    108c:	aa0003f4 	mov	x20, x0
/home/zliu/ubuntu-optee-rpi3/RPi3_OPTEE_3.1/optee_os/lib/libutee/tee_api_objects.c:345
    1090:	910083a1 	add	x1, x29, #0x20
    1094:	aa1303e0 	mov	x0, x19
    1098:	94000b9a 	bl	3f00 <utee_cryp_obj_get_info>
/home/zliu/ubuntu-optee-rpi3/RPi3_OPTEE_3.1/optee_os/lib/libutee/tee_api_objects.c:346
    109c:	b94023a1 	ldr	w1, [x29, #32]
    10a0:	528017c0 	mov	w0, #0xbe                  	// #190
    10a4:	72b40000 	movk	w0, #0xa000, lsl #16
    10a8:	6b00003f 	cmp	w1, w0
    10ac:	540000c0 	b.eq	10c4 <TEE_CopyObjectAttributes+0x48>  // b.none
/home/zliu/ubuntu-optee-rpi3/RPi3_OPTEE_3.1/optee_os/lib/libutee/tee_api_objects.c:349
    10b0:	aa1303e1 	mov	x1, x19
    10b4:	aa1403e0 	mov	x0, x20
    10b8:	97ffffc6 	bl	fd0 <TEE_CopyObjectAttributes1>
/home/zliu/ubuntu-optee-rpi3/RPi3_OPTEE_3.1/optee_os/lib/libutee/tee_api_objects.c:350
    10bc:	34000040 	cbz	w0, 10c4 <TEE_CopyObjectAttributes+0x48>
/home/zliu/ubuntu-optee-rpi3/RPi3_OPTEE_3.1/optee_os/lib/libutee/tee_api_objects.c:351
    10c0:	94000a95 	bl	3b14 <TEE_Panic>
/home/zliu/ubuntu-optee-rpi3/RPi3_OPTEE_3.1/optee_os/lib/libutee/tee_api_objects.c:352
    10c4:	a94153f3 	ldp	x19, x20, [sp, #16]
    10c8:	a8c47bfd 	ldp	x29, x30, [sp], #64
    10cc:	d65f03c0 	ret

00000000000010d0 <TEE_GenerateKey>:
TEE_GenerateKey():
/home/zliu/ubuntu-optee-rpi3/RPi3_OPTEE_3.1/optee_os/lib/libutee/tee_api_objects.c:392
    10d0:	a9bd7bfd 	stp	x29, x30, [sp, #-48]!
    10d4:	910003fd 	mov	x29, sp
    10d8:	a9025bf5 	stp	x21, x22, [sp, #32]
    10dc:	aa0003f5 	mov	x21, x0
/home/zliu/ubuntu-optee-rpi3/RPi3_OPTEE_3.1/optee_os/lib/libutee/tee_api_objects.c:394
    10e0:	52800300 	mov	w0, #0x18                  	// #24
/home/zliu/ubuntu-optee-rpi3/RPi3_OPTEE_3.1/optee_os/lib/libutee/tee_api_objects.c:392
    10e4:	a90153f3 	stp	x19, x20, [sp, #16]
    10e8:	2a0103f6 	mov	w22, w1
    10ec:	2a0303f3 	mov	w19, w3
/home/zliu/ubuntu-optee-rpi3/RPi3_OPTEE_3.1/optee_os/lib/libutee/tee_api_objects.c:394
    10f0:	9ba07c60 	umull	x0, w3, w0
/home/zliu/ubuntu-optee-rpi3/RPi3_OPTEE_3.1/optee_os/lib/libutee/tee_api_objects.c:392
    10f4:	aa0203e1 	mov	x1, x2
/home/zliu/ubuntu-optee-rpi3/RPi3_OPTEE_3.1/optee_os/lib/libutee/tee_api_objects.c:396
    10f8:	2a0303e2 	mov	w2, w3
/home/zliu/ubuntu-optee-rpi3/RPi3_OPTEE_3.1/optee_os/lib/libutee/tee_api_objects.c:394
    10fc:	91005800 	add	x0, x0, #0x16
    1100:	927c8400 	and	x0, x0, #0x3ffffffff0
    1104:	cb2063ff 	sub	sp, sp, x0
/home/zliu/ubuntu-optee-rpi3/RPi3_OPTEE_3.1/optee_os/lib/libutee/tee_api_objects.c:396
    1108:	910003e0 	mov	x0, sp
    110c:	97fffe52 	bl	a54 <__utee_from_attr>
/home/zliu/ubuntu-optee-rpi3/RPi3_OPTEE_3.1/optee_os/lib/libutee/tee_api_objects.c:397
    1110:	2a1303e3 	mov	w3, w19
    1114:	2a1603e1 	mov	w1, w22
    1118:	910003e2 	mov	x2, sp
    111c:	aa1503e0 	mov	x0, x21
    1120:	94000bd2 	bl	4068 <utee_cryp_obj_generate_key>
/home/zliu/ubuntu-optee-rpi3/RPi3_OPTEE_3.1/optee_os/lib/libutee/tee_api_objects.c:400
    1124:	7100001f 	cmp	w0, #0x0
    1128:	129fff21 	mov	w1, #0xffff0006            	// #-65530
/home/zliu/ubuntu-optee-rpi3/RPi3_OPTEE_3.1/optee_os/lib/libutee/tee_api_objects.c:397
    112c:	2a0003f3 	mov	w19, w0
/home/zliu/ubuntu-optee-rpi3/RPi3_OPTEE_3.1/optee_os/lib/libutee/tee_api_objects.c:400
    1130:	7a411004 	ccmp	w0, w1, #0x4, ne  // ne = any
    1134:	54000040 	b.eq	113c <TEE_GenerateKey+0x6c>  // b.none
/home/zliu/ubuntu-optee-rpi3/RPi3_OPTEE_3.1/optee_os/lib/libutee/tee_api_objects.c:401
    1138:	94000a77 	bl	3b14 <TEE_Panic>
/home/zliu/ubuntu-optee-rpi3/RPi3_OPTEE_3.1/optee_os/lib/libutee/tee_api_objects.c:404
    113c:	910003bf 	mov	sp, x29
    1140:	2a1303e0 	mov	w0, w19
    1144:	a94153f3 	ldp	x19, x20, [sp, #16]
    1148:	a9425bf5 	ldp	x21, x22, [sp, #32]
    114c:	a8c37bfd 	ldp	x29, x30, [sp], #48
    1150:	d65f03c0 	ret

0000000000001154 <TEE_OpenPersistentObject>:
TEE_OpenPersistentObject():
/home/zliu/ubuntu-optee-rpi3/RPi3_OPTEE_3.1/optee_os/lib/libutee/tee_api_objects.c:411
    1154:	a9bd7bfd 	stp	x29, x30, [sp, #-48]!
    1158:	910003fd 	mov	x29, sp
    115c:	a90153f3 	stp	x19, x20, [sp, #16]
/home/zliu/ubuntu-optee-rpi3/RPi3_OPTEE_3.1/optee_os/lib/libutee/tee_api_objects.c:416
    1160:	129ffef3 	mov	w19, #0xffff0008            	// #-65528
/home/zliu/ubuntu-optee-rpi3/RPi3_OPTEE_3.1/optee_os/lib/libutee/tee_api_objects.c:415
    1164:	b40001e1 	cbz	x1, 11a0 <TEE_OpenPersistentObject+0x4c>
/home/zliu/ubuntu-optee-rpi3/RPi3_OPTEE_3.1/optee_os/lib/libutee/tee_api_objects.c:425
    1168:	7101005f 	cmp	w2, #0x40
    116c:	aa0403f4 	mov	x20, x4
/home/zliu/ubuntu-optee-rpi3/RPi3_OPTEE_3.1/optee_os/lib/libutee/tee_api_objects.c:426
    1170:	129fff33 	mov	w19, #0xffff0006            	// #-65530
/home/zliu/ubuntu-optee-rpi3/RPi3_OPTEE_3.1/optee_os/lib/libutee/tee_api_objects.c:425
    1174:	fa409884 	ccmp	x4, #0x0, #0x4, ls  // ls = plast
    1178:	54000140 	b.eq	11a0 <TEE_OpenPersistentObject+0x4c>  // b.none
/home/zliu/ubuntu-optee-rpi3/RPi3_OPTEE_3.1/optee_os/lib/libutee/tee_api_objects.c:430
    117c:	9100b3a4 	add	x4, x29, #0x2c
    1180:	2a0303e3 	mov	w3, w3
    1184:	2a0203e2 	mov	w2, w2
    1188:	2a0003e0 	mov	w0, w0
    118c:	94000b90 	bl	3fcc <utee_storage_obj_open>
    1190:	2a0003f3 	mov	w19, w0
/home/zliu/ubuntu-optee-rpi3/RPi3_OPTEE_3.1/optee_os/lib/libutee/tee_api_objects.c:432
    1194:	35000060 	cbnz	w0, 11a0 <TEE_OpenPersistentObject+0x4c>
/home/zliu/ubuntu-optee-rpi3/RPi3_OPTEE_3.1/optee_os/lib/libutee/tee_api_objects.c:433
    1198:	b9402fa0 	ldr	w0, [x29, #44]
    119c:	f9000280 	str	x0, [x20]
/home/zliu/ubuntu-optee-rpi3/RPi3_OPTEE_3.1/optee_os/lib/libutee/tee_api_objects.c:437
    11a0:	121d7a60 	and	w0, w19, #0xfffffffb
/home/zliu/ubuntu-optee-rpi3/RPi3_OPTEE_3.1/optee_os/lib/libutee/tee_api_objects.c:436
    11a4:	7100027f 	cmp	w19, #0x0
    11a8:	129ffee1 	mov	w1, #0xffff0008            	// #-65528
    11ac:	7a411004 	ccmp	w0, w1, #0x4, ne  // ne = any
    11b0:	54000160 	b.eq	11dc <TEE_OpenPersistentObject+0x88>  // b.none
/home/zliu/ubuntu-optee-rpi3/RPi3_OPTEE_3.1/optee_os/lib/libutee/tee_api_objects.c:438
    11b4:	129fff80 	mov	w0, #0xffff0003            	// #-65533
    11b8:	6b00027f 	cmp	w19, w0
    11bc:	54000100 	b.eq	11dc <TEE_OpenPersistentObject+0x88>  // b.none
/home/zliu/ubuntu-optee-rpi3/RPi3_OPTEE_3.1/optee_os/lib/libutee/tee_api_objects.c:440
    11c0:	121e7a61 	and	w1, w19, #0xfffffffd
    11c4:	52800020 	mov	w0, #0x1                   	// #1
    11c8:	72be0200 	movk	w0, #0xf010, lsl #16
    11cc:	6b00003f 	cmp	w1, w0
    11d0:	54000060 	b.eq	11dc <TEE_OpenPersistentObject+0x88>  // b.none
/home/zliu/ubuntu-optee-rpi3/RPi3_OPTEE_3.1/optee_os/lib/libutee/tee_api_objects.c:442
    11d4:	2a1303e0 	mov	w0, w19
    11d8:	94000a4f 	bl	3b14 <TEE_Panic>
/home/zliu/ubuntu-optee-rpi3/RPi3_OPTEE_3.1/optee_os/lib/libutee/tee_api_objects.c:445
    11dc:	2a1303e0 	mov	w0, w19
    11e0:	a94153f3 	ldp	x19, x20, [sp, #16]
    11e4:	a8c37bfd 	ldp	x29, x30, [sp], #48
    11e8:	d65f03c0 	ret

00000000000011ec <TEE_CreatePersistentObject>:
TEE_CreatePersistentObject():
/home/zliu/ubuntu-optee-rpi3/RPi3_OPTEE_3.1/optee_os/lib/libutee/tee_api_objects.c:453
    11ec:	a9bd7bfd 	stp	x29, x30, [sp, #-48]!
    11f0:	910003fd 	mov	x29, sp
    11f4:	f9000bf3 	str	x19, [sp, #16]
    11f8:	aa0703f3 	mov	x19, x7
/home/zliu/ubuntu-optee-rpi3/RPi3_OPTEE_3.1/optee_os/lib/libutee/tee_api_objects.c:457
    11fc:	b4000501 	cbz	x1, 129c <TEE_CreatePersistentObject+0xb0>
/home/zliu/ubuntu-optee-rpi3/RPi3_OPTEE_3.1/optee_os/lib/libutee/tee_api_objects.c:462
    1200:	7101005f 	cmp	w2, #0x40
    1204:	54000528 	b.hi	12a8 <TEE_CreatePersistentObject+0xbc>  // b.pmore
/home/zliu/ubuntu-optee-rpi3/RPi3_OPTEE_3.1/optee_os/lib/libutee/tee_api_objects.c:467
    1208:	9100b3a7 	add	x7, x29, #0x2c
    120c:	2a0603e6 	mov	w6, w6
    1210:	2a0303e3 	mov	w3, w3
    1214:	2a0203e2 	mov	w2, w2
    1218:	2a0003e0 	mov	w0, w0
    121c:	94000b6f 	bl	3fd8 <utee_storage_obj_create>
/home/zliu/ubuntu-optee-rpi3/RPi3_OPTEE_3.1/optee_os/lib/libutee/tee_api_objects.c:470
    1220:	35000380 	cbnz	w0, 1290 <TEE_CreatePersistentObject+0xa4>
    1224:	b9402fa1 	ldr	w1, [x29, #44]
/home/zliu/ubuntu-optee-rpi3/RPi3_OPTEE_3.1/optee_os/lib/libutee/tee_api_objects.c:471
    1228:	b40000b3 	cbz	x19, 123c <TEE_CreatePersistentObject+0x50>
/home/zliu/ubuntu-optee-rpi3/RPi3_OPTEE_3.1/optee_os/lib/libutee/tee_api_objects.c:472
    122c:	f9000261 	str	x1, [x19]
/home/zliu/ubuntu-optee-rpi3/RPi3_OPTEE_3.1/optee_os/lib/libutee/tee_api_objects.c:491
    1230:	f9400bf3 	ldr	x19, [sp, #16]
    1234:	a8c37bfd 	ldp	x29, x30, [sp], #48
    1238:	d65f03c0 	ret
/home/zliu/ubuntu-optee-rpi3/RPi3_OPTEE_3.1/optee_os/lib/libutee/tee_api_objects.c:474
    123c:	aa0103e0 	mov	x0, x1
    1240:	94000b3c 	bl	3f30 <utee_cryp_obj_close>
/home/zliu/ubuntu-optee-rpi3/RPi3_OPTEE_3.1/optee_os/lib/libutee/tee_api_objects.c:475
    1244:	34ffff60 	cbz	w0, 1230 <TEE_CreatePersistentObject+0x44>
/home/zliu/ubuntu-optee-rpi3/RPi3_OPTEE_3.1/optee_os/lib/libutee/tee_api_objects.c:481
    1248:	129ffee1 	mov	w1, #0xffff0008            	// #-65528
    124c:	6b01001f 	cmp	w0, w1
    1250:	129fff81 	mov	w1, #0xffff0003            	// #-65533
    1254:	7a411004 	ccmp	w0, w1, #0x4, ne  // ne = any
    1258:	54fffec0 	b.eq	1230 <TEE_CreatePersistentObject+0x44>  // b.none
/home/zliu/ubuntu-optee-rpi3/RPi3_OPTEE_3.1/optee_os/lib/libutee/tee_api_objects.c:483
    125c:	129ffe61 	mov	w1, #0xffff000c            	// #-65524
    1260:	6b01001f 	cmp	w0, w1
    1264:	1299f7c1 	mov	w1, #0xffff3041            	// #-53183
    1268:	7a411004 	ccmp	w0, w1, #0x4, ne  // ne = any
    126c:	54fffe20 	b.eq	1230 <TEE_CreatePersistentObject+0x44>  // b.none
/home/zliu/ubuntu-optee-rpi3/RPi3_OPTEE_3.1/optee_os/lib/libutee/tee_api_objects.c:485
    1270:	121e7802 	and	w2, w0, #0xfffffffd
    1274:	52800021 	mov	w1, #0x1                   	// #1
    1278:	72be0201 	movk	w1, #0xf010, lsl #16
    127c:	6b01005f 	cmp	w2, w1
    1280:	54fffd80 	b.eq	1230 <TEE_CreatePersistentObject+0x44>  // b.none
/home/zliu/ubuntu-optee-rpi3/RPi3_OPTEE_3.1/optee_os/lib/libutee/tee_api_objects.c:488
    1284:	94000a24 	bl	3b14 <TEE_Panic>
/home/zliu/ubuntu-optee-rpi3/RPi3_OPTEE_3.1/optee_os/lib/libutee/tee_api_objects.c:490
    1288:	52800000 	mov	w0, #0x0                   	// #0
    128c:	17ffffe9 	b	1230 <TEE_CreatePersistentObject+0x44>
/home/zliu/ubuntu-optee-rpi3/RPi3_OPTEE_3.1/optee_os/lib/libutee/tee_api_objects.c:479
    1290:	b4fffdd3 	cbz	x19, 1248 <TEE_CreatePersistentObject+0x5c>
/home/zliu/ubuntu-optee-rpi3/RPi3_OPTEE_3.1/optee_os/lib/libutee/tee_api_objects.c:480
    1294:	f900027f 	str	xzr, [x19]
    1298:	17ffffec 	b	1248 <TEE_CreatePersistentObject+0x5c>
/home/zliu/ubuntu-optee-rpi3/RPi3_OPTEE_3.1/optee_os/lib/libutee/tee_api_objects.c:458
    129c:	129ffee0 	mov	w0, #0xffff0008            	// #-65528
/home/zliu/ubuntu-optee-rpi3/RPi3_OPTEE_3.1/optee_os/lib/libutee/tee_api_objects.c:479
    12a0:	b5ffffa7 	cbnz	x7, 1294 <TEE_CreatePersistentObject+0xa8>
    12a4:	17ffffe3 	b	1230 <TEE_CreatePersistentObject+0x44>
/home/zliu/ubuntu-optee-rpi3/RPi3_OPTEE_3.1/optee_os/lib/libutee/tee_api_objects.c:463
    12a8:	129fff20 	mov	w0, #0xffff0006            	// #-65530
/home/zliu/ubuntu-optee-rpi3/RPi3_OPTEE_3.1/optee_os/lib/libutee/tee_api_objects.c:479
    12ac:	b5ffff47 	cbnz	x7, 1294 <TEE_CreatePersistentObject+0xa8>
    12b0:	17ffffeb 	b	125c <TEE_CreatePersistentObject+0x70>

00000000000012b4 <TEE_CloseAndDeletePersistentObject1>:
TEE_CloseAndDeletePersistentObject1():
/home/zliu/ubuntu-optee-rpi3/RPi3_OPTEE_3.1/optee_os/lib/libutee/tee_api_objects.c:513
    12b4:	a9be7bfd 	stp	x29, x30, [sp, #-32]!
    12b8:	910003fd 	mov	x29, sp
    12bc:	a90153f3 	stp	x19, x20, [sp, #16]
    12c0:	52800074 	mov	w20, #0x3                   	// #3
    12c4:	72be0214 	movk	w20, #0xf010, lsl #16
/home/zliu/ubuntu-optee-rpi3/RPi3_OPTEE_3.1/optee_os/lib/libutee/tee_api_objects.c:517
    12c8:	2a1403f3 	mov	w19, w20
/home/zliu/ubuntu-optee-rpi3/RPi3_OPTEE_3.1/optee_os/lib/libutee/tee_api_objects.c:516
    12cc:	b40000e0 	cbz	x0, 12e8 <TEE_CloseAndDeletePersistentObject1+0x34>
/home/zliu/ubuntu-optee-rpi3/RPi3_OPTEE_3.1/optee_os/lib/libutee/tee_api_objects.c:519
    12d0:	94000b45 	bl	3fe4 <utee_storage_obj_del>
/home/zliu/ubuntu-optee-rpi3/RPi3_OPTEE_3.1/optee_os/lib/libutee/tee_api_objects.c:521
    12d4:	7100001f 	cmp	w0, #0x0
/home/zliu/ubuntu-optee-rpi3/RPi3_OPTEE_3.1/optee_os/lib/libutee/tee_api_objects.c:519
    12d8:	2a0003f3 	mov	w19, w0
/home/zliu/ubuntu-optee-rpi3/RPi3_OPTEE_3.1/optee_os/lib/libutee/tee_api_objects.c:521
    12dc:	7a541004 	ccmp	w0, w20, #0x4, ne  // ne = any
    12e0:	54000040 	b.eq	12e8 <TEE_CloseAndDeletePersistentObject1+0x34>  // b.none
/home/zliu/ubuntu-optee-rpi3/RPi3_OPTEE_3.1/optee_os/lib/libutee/tee_api_objects.c:522
    12e4:	94000a0c 	bl	3b14 <TEE_Panic>
/home/zliu/ubuntu-optee-rpi3/RPi3_OPTEE_3.1/optee_os/lib/libutee/tee_api_objects.c:525
    12e8:	2a1303e0 	mov	w0, w19
    12ec:	a94153f3 	ldp	x19, x20, [sp, #16]
    12f0:	a8c27bfd 	ldp	x29, x30, [sp], #32
    12f4:	d65f03c0 	ret

00000000000012f8 <TEE_CloseAndDeletePersistentObject>:
TEE_CloseAndDeletePersistentObject():
/home/zliu/ubuntu-optee-rpi3/RPi3_OPTEE_3.1/optee_os/lib/libutee/tee_api_objects.c:503
    12f8:	b4000140 	cbz	x0, 1320 <TEE_CloseAndDeletePersistentObject+0x28>
/home/zliu/ubuntu-optee-rpi3/RPi3_OPTEE_3.1/optee_os/lib/libutee/tee_api_objects.c:500
    12fc:	a9bf7bfd 	stp	x29, x30, [sp, #-16]!
    1300:	910003fd 	mov	x29, sp
/home/zliu/ubuntu-optee-rpi3/RPi3_OPTEE_3.1/optee_os/lib/libutee/tee_api_objects.c:506
    1304:	97ffffec 	bl	12b4 <TEE_CloseAndDeletePersistentObject1>
/home/zliu/ubuntu-optee-rpi3/RPi3_OPTEE_3.1/optee_os/lib/libutee/tee_api_objects.c:508
    1308:	34000080 	cbz	w0, 1318 <TEE_CloseAndDeletePersistentObject+0x20>
/home/zliu/ubuntu-optee-rpi3/RPi3_OPTEE_3.1/optee_os/lib/libutee/tee_api_objects.c:510
    130c:	a8c17bfd 	ldp	x29, x30, [sp], #16
/home/zliu/ubuntu-optee-rpi3/RPi3_OPTEE_3.1/optee_os/lib/libutee/tee_api_objects.c:509
    1310:	52800000 	mov	w0, #0x0                   	// #0
    1314:	14000a00 	b	3b14 <TEE_Panic>
/home/zliu/ubuntu-optee-rpi3/RPi3_OPTEE_3.1/optee_os/lib/libutee/tee_api_objects.c:510
    1318:	a8c17bfd 	ldp	x29, x30, [sp], #16
    131c:	d65f03c0 	ret
    1320:	d65f03c0 	ret

0000000000001324 <TEE_RenamePersistentObject>:
TEE_RenamePersistentObject():
/home/zliu/ubuntu-optee-rpi3/RPi3_OPTEE_3.1/optee_os/lib/libutee/tee_api_objects.c:531
    1324:	a9be7bfd 	stp	x29, x30, [sp, #-32]!
    1328:	910003fd 	mov	x29, sp
    132c:	f9000bf3 	str	x19, [sp, #16]
/home/zliu/ubuntu-optee-rpi3/RPi3_OPTEE_3.1/optee_os/lib/libutee/tee_api_objects.c:535
    1330:	129ffef3 	mov	w19, #0xffff0008            	// #-65528
/home/zliu/ubuntu-optee-rpi3/RPi3_OPTEE_3.1/optee_os/lib/libutee/tee_api_objects.c:534
    1334:	b4000100 	cbz	x0, 1354 <TEE_RenamePersistentObject+0x30>
/home/zliu/ubuntu-optee-rpi3/RPi3_OPTEE_3.1/optee_os/lib/libutee/tee_api_objects.c:544
    1338:	7101005f 	cmp	w2, #0x40
/home/zliu/ubuntu-optee-rpi3/RPi3_OPTEE_3.1/optee_os/lib/libutee/tee_api_objects.c:545
    133c:	129fff33 	mov	w19, #0xffff0006            	// #-65530
/home/zliu/ubuntu-optee-rpi3/RPi3_OPTEE_3.1/optee_os/lib/libutee/tee_api_objects.c:544
    1340:	fa409824 	ccmp	x1, #0x0, #0x4, ls  // ls = plast
    1344:	54000080 	b.eq	1354 <TEE_RenamePersistentObject+0x30>  // b.none
/home/zliu/ubuntu-optee-rpi3/RPi3_OPTEE_3.1/optee_os/lib/libutee/tee_api_objects.c:549
    1348:	2a0203e2 	mov	w2, w2
    134c:	94000b29 	bl	3ff0 <utee_storage_obj_rename>
    1350:	2a0003f3 	mov	w19, w0
/home/zliu/ubuntu-optee-rpi3/RPi3_OPTEE_3.1/optee_os/lib/libutee/tee_api_objects.c:553
    1354:	7100027f 	cmp	w19, #0x0
    1358:	129fff80 	mov	w0, #0xffff0003            	// #-65533
    135c:	7a401264 	ccmp	w19, w0, #0x4, ne  // ne = any
    1360:	54000100 	b.eq	1380 <TEE_RenamePersistentObject+0x5c>  // b.none
/home/zliu/ubuntu-optee-rpi3/RPi3_OPTEE_3.1/optee_os/lib/libutee/tee_api_objects.c:555
    1364:	121e7a61 	and	w1, w19, #0xfffffffd
    1368:	52800020 	mov	w0, #0x1                   	// #1
    136c:	72be0200 	movk	w0, #0xf010, lsl #16
    1370:	6b00003f 	cmp	w1, w0
    1374:	54000060 	b.eq	1380 <TEE_RenamePersistentObject+0x5c>  // b.none
/home/zliu/ubuntu-optee-rpi3/RPi3_OPTEE_3.1/optee_os/lib/libutee/tee_api_objects.c:557
    1378:	2a1303e0 	mov	w0, w19
    137c:	940009e6 	bl	3b14 <TEE_Panic>
/home/zliu/ubuntu-optee-rpi3/RPi3_OPTEE_3.1/optee_os/lib/libutee/tee_api_objects.c:560
    1380:	2a1303e0 	mov	w0, w19
    1384:	f9400bf3 	ldr	x19, [sp, #16]
    1388:	a8c27bfd 	ldp	x29, x30, [sp], #32
    138c:	d65f03c0 	ret

0000000000001390 <TEE_AllocatePersistentObjectEnumerator>:
TEE_AllocatePersistentObjectEnumerator():
/home/zliu/ubuntu-optee-rpi3/RPi3_OPTEE_3.1/optee_os/lib/libutee/tee_api_objects.c:564
    1390:	a9bd7bfd 	stp	x29, x30, [sp, #-48]!
    1394:	910003fd 	mov	x29, sp
    1398:	a90153f3 	stp	x19, x20, [sp, #16]
/home/zliu/ubuntu-optee-rpi3/RPi3_OPTEE_3.1/optee_os/lib/libutee/tee_api_objects.c:569
    139c:	129fff33 	mov	w19, #0xffff0006            	// #-65530
/home/zliu/ubuntu-optee-rpi3/RPi3_OPTEE_3.1/optee_os/lib/libutee/tee_api_objects.c:568
    13a0:	b40001e0 	cbz	x0, 13dc <TEE_AllocatePersistentObjectEnumerator+0x4c>
    13a4:	aa0003f4 	mov	x20, x0
/home/zliu/ubuntu-optee-rpi3/RPi3_OPTEE_3.1/optee_os/lib/libutee/tee_api_objects.c:571
    13a8:	9100b3a0 	add	x0, x29, #0x2c
    13ac:	94000b14 	bl	3ffc <utee_storage_alloc_enum>
    13b0:	2a0003f3 	mov	w19, w0
/home/zliu/ubuntu-optee-rpi3/RPi3_OPTEE_3.1/optee_os/lib/libutee/tee_api_objects.c:573
    13b4:	34000040 	cbz	w0, 13bc <TEE_AllocatePersistentObjectEnumerator+0x2c>
/home/zliu/ubuntu-optee-rpi3/RPi3_OPTEE_3.1/optee_os/lib/libutee/tee_api_objects.c:574
    13b8:	b9002fbf 	str	wzr, [x29, #44]
/home/zliu/ubuntu-optee-rpi3/RPi3_OPTEE_3.1/optee_os/lib/libutee/tee_api_objects.c:576
    13bc:	b9402fa0 	ldr	w0, [x29, #44]
/home/zliu/ubuntu-optee-rpi3/RPi3_OPTEE_3.1/optee_os/lib/libutee/tee_api_objects.c:578
    13c0:	7100027f 	cmp	w19, #0x0
/home/zliu/ubuntu-optee-rpi3/RPi3_OPTEE_3.1/optee_os/lib/libutee/tee_api_objects.c:576
    13c4:	f9000280 	str	x0, [x20]
/home/zliu/ubuntu-optee-rpi3/RPi3_OPTEE_3.1/optee_os/lib/libutee/tee_api_objects.c:578
    13c8:	129fff80 	mov	w0, #0xffff0003            	// #-65533
    13cc:	7a401264 	ccmp	w19, w0, #0x4, ne  // ne = any
    13d0:	54000060 	b.eq	13dc <TEE_AllocatePersistentObjectEnumerator+0x4c>  // b.none
/home/zliu/ubuntu-optee-rpi3/RPi3_OPTEE_3.1/optee_os/lib/libutee/tee_api_objects.c:580
    13d4:	2a1303e0 	mov	w0, w19
    13d8:	940009cf 	bl	3b14 <TEE_Panic>
/home/zliu/ubuntu-optee-rpi3/RPi3_OPTEE_3.1/optee_os/lib/libutee/tee_api_objects.c:583
    13dc:	2a1303e0 	mov	w0, w19
    13e0:	a94153f3 	ldp	x19, x20, [sp, #16]
    13e4:	a8c37bfd 	ldp	x29, x30, [sp], #48
    13e8:	d65f03c0 	ret

00000000000013ec <TEE_FreePersistentObjectEnumerator>:
TEE_FreePersistentObjectEnumerator():
/home/zliu/ubuntu-optee-rpi3/RPi3_OPTEE_3.1/optee_os/lib/libutee/tee_api_objects.c:589
    13ec:	b4000120 	cbz	x0, 1410 <TEE_FreePersistentObjectEnumerator+0x24>
/home/zliu/ubuntu-optee-rpi3/RPi3_OPTEE_3.1/optee_os/lib/libutee/tee_api_objects.c:586
    13f0:	a9bf7bfd 	stp	x29, x30, [sp, #-16]!
    13f4:	910003fd 	mov	x29, sp
/home/zliu/ubuntu-optee-rpi3/RPi3_OPTEE_3.1/optee_os/lib/libutee/tee_api_objects.c:592
    13f8:	94000b04 	bl	4008 <utee_storage_free_enum>
/home/zliu/ubuntu-optee-rpi3/RPi3_OPTEE_3.1/optee_os/lib/libutee/tee_api_objects.c:594
    13fc:	34000060 	cbz	w0, 1408 <TEE_FreePersistentObjectEnumerator+0x1c>
/home/zliu/ubuntu-optee-rpi3/RPi3_OPTEE_3.1/optee_os/lib/libutee/tee_api_objects.c:596
    1400:	a8c17bfd 	ldp	x29, x30, [sp], #16
/home/zliu/ubuntu-optee-rpi3/RPi3_OPTEE_3.1/optee_os/lib/libutee/tee_api_objects.c:595
    1404:	140009c4 	b	3b14 <TEE_Panic>
/home/zliu/ubuntu-optee-rpi3/RPi3_OPTEE_3.1/optee_os/lib/libutee/tee_api_objects.c:596
    1408:	a8c17bfd 	ldp	x29, x30, [sp], #16
    140c:	d65f03c0 	ret
    1410:	d65f03c0 	ret

0000000000001414 <TEE_ResetPersistentObjectEnumerator>:
TEE_ResetPersistentObjectEnumerator():
/home/zliu/ubuntu-optee-rpi3/RPi3_OPTEE_3.1/optee_os/lib/libutee/tee_api_objects.c:602
    1414:	b4000120 	cbz	x0, 1438 <TEE_ResetPersistentObjectEnumerator+0x24>
/home/zliu/ubuntu-optee-rpi3/RPi3_OPTEE_3.1/optee_os/lib/libutee/tee_api_objects.c:599
    1418:	a9bf7bfd 	stp	x29, x30, [sp, #-16]!
    141c:	910003fd 	mov	x29, sp
/home/zliu/ubuntu-optee-rpi3/RPi3_OPTEE_3.1/optee_os/lib/libutee/tee_api_objects.c:605
    1420:	94000afd 	bl	4014 <utee_storage_reset_enum>
/home/zliu/ubuntu-optee-rpi3/RPi3_OPTEE_3.1/optee_os/lib/libutee/tee_api_objects.c:607
    1424:	34000060 	cbz	w0, 1430 <TEE_ResetPersistentObjectEnumerator+0x1c>
/home/zliu/ubuntu-optee-rpi3/RPi3_OPTEE_3.1/optee_os/lib/libutee/tee_api_objects.c:609
    1428:	a8c17bfd 	ldp	x29, x30, [sp], #16
/home/zliu/ubuntu-optee-rpi3/RPi3_OPTEE_3.1/optee_os/lib/libutee/tee_api_objects.c:608
    142c:	140009ba 	b	3b14 <TEE_Panic>
/home/zliu/ubuntu-optee-rpi3/RPi3_OPTEE_3.1/optee_os/lib/libutee/tee_api_objects.c:609
    1430:	a8c17bfd 	ldp	x29, x30, [sp], #16
    1434:	d65f03c0 	ret
    1438:	d65f03c0 	ret

000000000000143c <TEE_StartPersistentObjectEnumerator>:
TEE_StartPersistentObjectEnumerator():
/home/zliu/ubuntu-optee-rpi3/RPi3_OPTEE_3.1/optee_os/lib/libutee/tee_api_objects.c:614
    143c:	a9be7bfd 	stp	x29, x30, [sp, #-32]!
/home/zliu/ubuntu-optee-rpi3/RPi3_OPTEE_3.1/optee_os/lib/libutee/tee_api_objects.c:617
    1440:	2a0103e1 	mov	w1, w1
/home/zliu/ubuntu-optee-rpi3/RPi3_OPTEE_3.1/optee_os/lib/libutee/tee_api_objects.c:614
    1444:	910003fd 	mov	x29, sp
    1448:	f9000bf3 	str	x19, [sp, #16]
/home/zliu/ubuntu-optee-rpi3/RPi3_OPTEE_3.1/optee_os/lib/libutee/tee_api_objects.c:617
    144c:	94000af5 	bl	4020 <utee_storage_start_enum>
/home/zliu/ubuntu-optee-rpi3/RPi3_OPTEE_3.1/optee_os/lib/libutee/tee_api_objects.c:620
    1450:	7100001f 	cmp	w0, #0x0
    1454:	129ffee1 	mov	w1, #0xffff0008            	// #-65528
/home/zliu/ubuntu-optee-rpi3/RPi3_OPTEE_3.1/optee_os/lib/libutee/tee_api_objects.c:617
    1458:	2a0003f3 	mov	w19, w0
/home/zliu/ubuntu-optee-rpi3/RPi3_OPTEE_3.1/optee_os/lib/libutee/tee_api_objects.c:620
    145c:	7a411004 	ccmp	w0, w1, #0x4, ne  // ne = any
    1460:	540000e0 	b.eq	147c <TEE_StartPersistentObjectEnumerator+0x40>  // b.none
/home/zliu/ubuntu-optee-rpi3/RPi3_OPTEE_3.1/optee_os/lib/libutee/tee_api_objects.c:622
    1464:	121e7802 	and	w2, w0, #0xfffffffd
    1468:	52800021 	mov	w1, #0x1                   	// #1
    146c:	72be0201 	movk	w1, #0xf010, lsl #16
    1470:	6b01005f 	cmp	w2, w1
    1474:	54000040 	b.eq	147c <TEE_StartPersistentObjectEnumerator+0x40>  // b.none
/home/zliu/ubuntu-optee-rpi3/RPi3_OPTEE_3.1/optee_os/lib/libutee/tee_api_objects.c:624
    1478:	940009a7 	bl	3b14 <TEE_Panic>
/home/zliu/ubuntu-optee-rpi3/RPi3_OPTEE_3.1/optee_os/lib/libutee/tee_api_objects.c:627
    147c:	2a1303e0 	mov	w0, w19
    1480:	f9400bf3 	ldr	x19, [sp, #16]
    1484:	a8c27bfd 	ldp	x29, x30, [sp], #32
    1488:	d65f03c0 	ret

000000000000148c <TEE_GetNextPersistentObject>:
TEE_GetNextPersistentObject():
/home/zliu/ubuntu-optee-rpi3/RPi3_OPTEE_3.1/optee_os/lib/libutee/tee_api_objects.c:632
    148c:	a9bb7bfd 	stp	x29, x30, [sp, #-80]!
/home/zliu/ubuntu-optee-rpi3/RPi3_OPTEE_3.1/optee_os/lib/libutee/tee_api_objects.c:643
    1490:	f100005f 	cmp	x2, #0x0
    1494:	fa401864 	ccmp	x3, #0x0, #0x4, ne  // ne = any
/home/zliu/ubuntu-optee-rpi3/RPi3_OPTEE_3.1/optee_os/lib/libutee/tee_api_objects.c:632
    1498:	910003fd 	mov	x29, sp
    149c:	a90153f3 	stp	x19, x20, [sp, #16]
    14a0:	129fff33 	mov	w19, #0xffff0006            	// #-65530
/home/zliu/ubuntu-optee-rpi3/RPi3_OPTEE_3.1/optee_os/lib/libutee/tee_api_objects.c:643
    14a4:	54000180 	b.eq	14d4 <TEE_GetNextPersistentObject+0x48>  // b.none
    14a8:	aa0303f4 	mov	x20, x3
/home/zliu/ubuntu-optee-rpi3/RPi3_OPTEE_3.1/optee_os/lib/libutee/tee_api_objects.c:652
    14ac:	910143a3 	add	x3, x29, #0x50
/home/zliu/ubuntu-optee-rpi3/RPi3_OPTEE_3.1/optee_os/lib/libutee/tee_api_objects.c:651
    14b0:	f100003f 	cmp	x1, #0x0
/home/zliu/ubuntu-optee-rpi3/RPi3_OPTEE_3.1/optee_os/lib/libutee/tee_api_objects.c:652
    14b4:	b9400284 	ldr	w4, [x20]
    14b8:	f81d8c64 	str	x4, [x3, #-40]!
/home/zliu/ubuntu-optee-rpi3/RPi3_OPTEE_3.1/optee_os/lib/libutee/tee_api_objects.c:653
    14bc:	9100c3a4 	add	x4, x29, #0x30
    14c0:	9a810081 	csel	x1, x4, x1, eq  // eq = none
    14c4:	94000ada 	bl	402c <utee_storage_next_enum>
    14c8:	2a0003f3 	mov	w19, w0
/home/zliu/ubuntu-optee-rpi3/RPi3_OPTEE_3.1/optee_os/lib/libutee/tee_api_objects.c:655
    14cc:	f94017a0 	ldr	x0, [x29, #40]
    14d0:	b9000280 	str	w0, [x20]
/home/zliu/ubuntu-optee-rpi3/RPi3_OPTEE_3.1/optee_os/lib/libutee/tee_api_objects.c:658
    14d4:	7100027f 	cmp	w19, #0x0
    14d8:	129ffee0 	mov	w0, #0xffff0008            	// #-65528
    14dc:	7a401264 	ccmp	w19, w0, #0x4, ne  // ne = any
    14e0:	54000100 	b.eq	1500 <TEE_GetNextPersistentObject+0x74>  // b.none
/home/zliu/ubuntu-optee-rpi3/RPi3_OPTEE_3.1/optee_os/lib/libutee/tee_api_objects.c:660
    14e4:	121e7a61 	and	w1, w19, #0xfffffffd
    14e8:	52800020 	mov	w0, #0x1                   	// #1
    14ec:	72be0200 	movk	w0, #0xf010, lsl #16
    14f0:	6b00003f 	cmp	w1, w0
    14f4:	54000060 	b.eq	1500 <TEE_GetNextPersistentObject+0x74>  // b.none
/home/zliu/ubuntu-optee-rpi3/RPi3_OPTEE_3.1/optee_os/lib/libutee/tee_api_objects.c:662
    14f8:	2a1303e0 	mov	w0, w19
    14fc:	94000986 	bl	3b14 <TEE_Panic>
/home/zliu/ubuntu-optee-rpi3/RPi3_OPTEE_3.1/optee_os/lib/libutee/tee_api_objects.c:665
    1500:	2a1303e0 	mov	w0, w19
    1504:	a94153f3 	ldp	x19, x20, [sp, #16]
    1508:	a8c57bfd 	ldp	x29, x30, [sp], #80
    150c:	d65f03c0 	ret

0000000000001510 <TEE_ReadObjectData>:
TEE_ReadObjectData():
/home/zliu/ubuntu-optee-rpi3/RPi3_OPTEE_3.1/optee_os/lib/libutee/tee_api_objects.c:671
    1510:	a9bd7bfd 	stp	x29, x30, [sp, #-48]!
    1514:	910003fd 	mov	x29, sp
    1518:	a90153f3 	stp	x19, x20, [sp, #16]
    151c:	129fff33 	mov	w19, #0xffff0006            	// #-65530
/home/zliu/ubuntu-optee-rpi3/RPi3_OPTEE_3.1/optee_os/lib/libutee/tee_api_objects.c:675
    1520:	b4000140 	cbz	x0, 1548 <TEE_ReadObjectData+0x38>
    1524:	aa0303f4 	mov	x20, x3
/home/zliu/ubuntu-optee-rpi3/RPi3_OPTEE_3.1/optee_os/lib/libutee/tee_api_objects.c:680
    1528:	9100c3a3 	add	x3, x29, #0x30
/home/zliu/ubuntu-optee-rpi3/RPi3_OPTEE_3.1/optee_os/lib/libutee/tee_api_objects.c:681
    152c:	2a0203e2 	mov	w2, w2
/home/zliu/ubuntu-optee-rpi3/RPi3_OPTEE_3.1/optee_os/lib/libutee/tee_api_objects.c:680
    1530:	b9400284 	ldr	w4, [x20]
    1534:	f81f8c64 	str	x4, [x3, #-8]!
/home/zliu/ubuntu-optee-rpi3/RPi3_OPTEE_3.1/optee_os/lib/libutee/tee_api_objects.c:681
    1538:	94000ac0 	bl	4038 <utee_storage_obj_read>
    153c:	2a0003f3 	mov	w19, w0
/home/zliu/ubuntu-optee-rpi3/RPi3_OPTEE_3.1/optee_os/lib/libutee/tee_api_objects.c:683
    1540:	f94017a0 	ldr	x0, [x29, #40]
    1544:	b9000280 	str	w0, [x20]
/home/zliu/ubuntu-optee-rpi3/RPi3_OPTEE_3.1/optee_os/lib/libutee/tee_api_objects.c:687
    1548:	121e7a60 	and	w0, w19, #0xfffffffd
    154c:	7100027f 	cmp	w19, #0x0
    1550:	52800021 	mov	w1, #0x1                   	// #1
    1554:	72be0201 	movk	w1, #0xf010, lsl #16
    1558:	7a411004 	ccmp	w0, w1, #0x4, ne  // ne = any
    155c:	54000060 	b.eq	1568 <TEE_ReadObjectData+0x58>  // b.none
/home/zliu/ubuntu-optee-rpi3/RPi3_OPTEE_3.1/optee_os/lib/libutee/tee_api_objects.c:689
    1560:	2a1303e0 	mov	w0, w19
    1564:	9400096c 	bl	3b14 <TEE_Panic>
/home/zliu/ubuntu-optee-rpi3/RPi3_OPTEE_3.1/optee_os/lib/libutee/tee_api_objects.c:692
    1568:	2a1303e0 	mov	w0, w19
    156c:	a94153f3 	ldp	x19, x20, [sp, #16]
    1570:	a8c37bfd 	ldp	x29, x30, [sp], #48
    1574:	d65f03c0 	ret

0000000000001578 <TEE_WriteObjectData>:
TEE_WriteObjectData():
/home/zliu/ubuntu-optee-rpi3/RPi3_OPTEE_3.1/optee_os/lib/libutee/tee_api_objects.c:696
    1578:	a9be7bfd 	stp	x29, x30, [sp, #-32]!
    157c:	910003fd 	mov	x29, sp
    1580:	f9000bf3 	str	x19, [sp, #16]
    1584:	129fff33 	mov	w19, #0xffff0006            	// #-65530
/home/zliu/ubuntu-optee-rpi3/RPi3_OPTEE_3.1/optee_os/lib/libutee/tee_api_objects.c:699
    1588:	b4000080 	cbz	x0, 1598 <TEE_WriteObjectData+0x20>
/home/zliu/ubuntu-optee-rpi3/RPi3_OPTEE_3.1/optee_os/lib/libutee/tee_api_objects.c:709
    158c:	2a0203e2 	mov	w2, w2
    1590:	94000aad 	bl	4044 <utee_storage_obj_write>
    1594:	2a0003f3 	mov	w19, w0
/home/zliu/ubuntu-optee-rpi3/RPi3_OPTEE_3.1/optee_os/lib/libutee/tee_api_objects.c:712
    1598:	7100027f 	cmp	w19, #0x0
    159c:	1299f7c0 	mov	w0, #0xffff3041            	// #-53183
    15a0:	7a401264 	ccmp	w19, w0, #0x4, ne  // ne = any
    15a4:	54000140 	b.eq	15cc <TEE_WriteObjectData+0x54>  // b.none
/home/zliu/ubuntu-optee-rpi3/RPi3_OPTEE_3.1/optee_os/lib/libutee/tee_api_objects.c:715
    15a8:	121e7a61 	and	w1, w19, #0xfffffffd
    15ac:	52800020 	mov	w0, #0x1                   	// #1
    15b0:	72be0200 	movk	w0, #0xf010, lsl #16
    15b4:	6b00003f 	cmp	w1, w0
    15b8:	1299fe00 	mov	w0, #0xffff300f            	// #-53233
    15bc:	7a401264 	ccmp	w19, w0, #0x4, ne  // ne = any
    15c0:	54000060 	b.eq	15cc <TEE_WriteObjectData+0x54>  // b.none
/home/zliu/ubuntu-optee-rpi3/RPi3_OPTEE_3.1/optee_os/lib/libutee/tee_api_objects.c:717
    15c4:	2a1303e0 	mov	w0, w19
    15c8:	94000953 	bl	3b14 <TEE_Panic>
/home/zliu/ubuntu-optee-rpi3/RPi3_OPTEE_3.1/optee_os/lib/libutee/tee_api_objects.c:720
    15cc:	2a1303e0 	mov	w0, w19
    15d0:	f9400bf3 	ldr	x19, [sp, #16]
    15d4:	a8c27bfd 	ldp	x29, x30, [sp], #32
    15d8:	d65f03c0 	ret

00000000000015dc <TEE_TruncateObjectData>:
TEE_TruncateObjectData():
/home/zliu/ubuntu-optee-rpi3/RPi3_OPTEE_3.1/optee_os/lib/libutee/tee_api_objects.c:723
    15dc:	a9be7bfd 	stp	x29, x30, [sp, #-32]!
    15e0:	910003fd 	mov	x29, sp
    15e4:	f9000bf3 	str	x19, [sp, #16]
    15e8:	129fff33 	mov	w19, #0xffff0006            	// #-65530
/home/zliu/ubuntu-optee-rpi3/RPi3_OPTEE_3.1/optee_os/lib/libutee/tee_api_objects.c:726
    15ec:	b4000080 	cbz	x0, 15fc <TEE_TruncateObjectData+0x20>
/home/zliu/ubuntu-optee-rpi3/RPi3_OPTEE_3.1/optee_os/lib/libutee/tee_api_objects.c:731
    15f0:	2a0103e1 	mov	w1, w1
    15f4:	94000a97 	bl	4050 <utee_storage_obj_trunc>
    15f8:	2a0003f3 	mov	w19, w0
/home/zliu/ubuntu-optee-rpi3/RPi3_OPTEE_3.1/optee_os/lib/libutee/tee_api_objects.c:734
    15fc:	7100027f 	cmp	w19, #0x0
    1600:	1299f7c0 	mov	w0, #0xffff3041            	// #-53183
    1604:	7a401264 	ccmp	w19, w0, #0x4, ne  // ne = any
    1608:	54000100 	b.eq	1628 <TEE_TruncateObjectData+0x4c>  // b.none
/home/zliu/ubuntu-optee-rpi3/RPi3_OPTEE_3.1/optee_os/lib/libutee/tee_api_objects.c:736
    160c:	121e7a61 	and	w1, w19, #0xfffffffd
    1610:	52800020 	mov	w0, #0x1                   	// #1
    1614:	72be0200 	movk	w0, #0xf010, lsl #16
    1618:	6b00003f 	cmp	w1, w0
    161c:	54000060 	b.eq	1628 <TEE_TruncateObjectData+0x4c>  // b.none
/home/zliu/ubuntu-optee-rpi3/RPi3_OPTEE_3.1/optee_os/lib/libutee/tee_api_objects.c:738
    1620:	2a1303e0 	mov	w0, w19
    1624:	9400093c 	bl	3b14 <TEE_Panic>
/home/zliu/ubuntu-optee-rpi3/RPi3_OPTEE_3.1/optee_os/lib/libutee/tee_api_objects.c:741
    1628:	2a1303e0 	mov	w0, w19
    162c:	f9400bf3 	ldr	x19, [sp, #16]
    1630:	a8c27bfd 	ldp	x29, x30, [sp], #32
    1634:	d65f03c0 	ret

0000000000001638 <TEE_SeekObjectData>:
TEE_SeekObjectData():
/home/zliu/ubuntu-optee-rpi3/RPi3_OPTEE_3.1/optee_os/lib/libutee/tee_api_objects.c:745
    1638:	a9bb7bfd 	stp	x29, x30, [sp, #-80]!
    163c:	910003fd 	mov	x29, sp
    1640:	a90153f3 	stp	x19, x20, [sp, #16]
/home/zliu/ubuntu-optee-rpi3/RPi3_OPTEE_3.1/optee_os/lib/libutee/tee_api_objects.c:750
    1644:	129fff33 	mov	w19, #0xffff0006            	// #-65530
/home/zliu/ubuntu-optee-rpi3/RPi3_OPTEE_3.1/optee_os/lib/libutee/tee_api_objects.c:745
    1648:	a9025bf5 	stp	x21, x22, [sp, #32]
/home/zliu/ubuntu-optee-rpi3/RPi3_OPTEE_3.1/optee_os/lib/libutee/tee_api_objects.c:749
    164c:	b40003e0 	cbz	x0, 16c8 <TEE_SeekObjectData+0x90>
    1650:	aa0003f6 	mov	x22, x0
    1654:	2a0103f4 	mov	w20, w1
    1658:	2a0203f5 	mov	w21, w2
/home/zliu/ubuntu-optee-rpi3/RPi3_OPTEE_3.1/optee_os/lib/libutee/tee_api_objects.c:754
    165c:	9100c3a1 	add	x1, x29, #0x30
    1660:	94000a28 	bl	3f00 <utee_cryp_obj_get_info>
    1664:	2a0003f3 	mov	w19, w0
/home/zliu/ubuntu-optee-rpi3/RPi3_OPTEE_3.1/optee_os/lib/libutee/tee_api_objects.c:755
    1668:	35000300 	cbnz	w0, 16c8 <TEE_SeekObjectData+0x90>
/home/zliu/ubuntu-optee-rpi3/RPi3_OPTEE_3.1/optee_os/lib/libutee/tee_api_objects.c:758
    166c:	710006bf 	cmp	w21, #0x1
    1670:	540000c0 	b.eq	1688 <TEE_SeekObjectData+0x50>  // b.none
    1674:	34000115 	cbz	w21, 1694 <TEE_SeekObjectData+0x5c>
    1678:	71000abf 	cmp	w21, #0x2
    167c:	54000180 	b.eq	16ac <TEE_SeekObjectData+0x74>  // b.none
/home/zliu/ubuntu-optee-rpi3/RPi3_OPTEE_3.1/optee_os/lib/libutee/tee_api_objects.c:784
    1680:	129ffef3 	mov	w19, #0xffff0008            	// #-65528
    1684:	14000011 	b	16c8 <TEE_SeekObjectData+0x90>
/home/zliu/ubuntu-optee-rpi3/RPi3_OPTEE_3.1/optee_os/lib/libutee/tee_api_objects.c:769
    1688:	b94047a0 	ldr	w0, [x29, #68]
/home/zliu/ubuntu-optee-rpi3/RPi3_OPTEE_3.1/optee_os/lib/libutee/tee_api_objects.c:766
    168c:	7100029f 	cmp	w20, #0x0
    1690:	5400014c 	b.gt	16b8 <TEE_SeekObjectData+0x80>
/home/zliu/ubuntu-optee-rpi3/RPi3_OPTEE_3.1/optee_os/lib/libutee/tee_api_objects.c:788
    1694:	2a1503e2 	mov	w2, w21
    1698:	2a1403e1 	mov	w1, w20
    169c:	aa1603e0 	mov	x0, x22
    16a0:	94000a6f 	bl	405c <utee_storage_obj_seek>
    16a4:	2a0003f3 	mov	w19, w0
    16a8:	14000008 	b	16c8 <TEE_SeekObjectData+0x90>
/home/zliu/ubuntu-optee-rpi3/RPi3_OPTEE_3.1/optee_os/lib/libutee/tee_api_objects.c:776
    16ac:	7100029f 	cmp	w20, #0x0
    16b0:	54ffff2d 	b.le	1694 <TEE_SeekObjectData+0x5c>
/home/zliu/ubuntu-optee-rpi3/RPi3_OPTEE_3.1/optee_os/lib/libutee/tee_api_objects.c:778 (discriminator 1)
    16b4:	b94043a0 	ldr	w0, [x29, #64]
    16b8:	0b000281 	add	w1, w20, w0
/home/zliu/ubuntu-optee-rpi3/RPi3_OPTEE_3.1/optee_os/lib/libutee/tee_api_objects.c:771 (discriminator 1)
    16bc:	1299fe13 	mov	w19, #0xffff300f            	// #-53233
/home/zliu/ubuntu-optee-rpi3/RPi3_OPTEE_3.1/optee_os/lib/libutee/tee_api_objects.c:776 (discriminator 1)
    16c0:	6b01001f 	cmp	w0, w1
    16c4:	54fffe89 	b.ls	1694 <TEE_SeekObjectData+0x5c>  // b.plast
/home/zliu/ubuntu-optee-rpi3/RPi3_OPTEE_3.1/optee_os/lib/libutee/tee_api_objects.c:791
    16c8:	7100027f 	cmp	w19, #0x0
    16cc:	1299fe00 	mov	w0, #0xffff300f            	// #-53233
    16d0:	7a401264 	ccmp	w19, w0, #0x4, ne  // ne = any
    16d4:	54000100 	b.eq	16f4 <TEE_SeekObjectData+0xbc>  // b.none
/home/zliu/ubuntu-optee-rpi3/RPi3_OPTEE_3.1/optee_os/lib/libutee/tee_api_objects.c:793
    16d8:	121e7a61 	and	w1, w19, #0xfffffffd
    16dc:	52800020 	mov	w0, #0x1                   	// #1
    16e0:	72be0200 	movk	w0, #0xf010, lsl #16
    16e4:	6b00003f 	cmp	w1, w0
    16e8:	54000060 	b.eq	16f4 <TEE_SeekObjectData+0xbc>  // b.none
/home/zliu/ubuntu-optee-rpi3/RPi3_OPTEE_3.1/optee_os/lib/libutee/tee_api_objects.c:795
    16ec:	2a1303e0 	mov	w0, w19
    16f0:	94000909 	bl	3b14 <TEE_Panic>
/home/zliu/ubuntu-optee-rpi3/RPi3_OPTEE_3.1/optee_os/lib/libutee/tee_api_objects.c:798
    16f4:	2a1303e0 	mov	w0, w19
    16f8:	a94153f3 	ldp	x19, x20, [sp, #16]
    16fc:	a9425bf5 	ldp	x21, x22, [sp, #32]
    1700:	a8c57bfd 	ldp	x29, x30, [sp], #80
    1704:	d65f03c0 	ret

0000000000001708 <TEE_FreeOperation>:
TEE_FreeOperation():
/home/zliu/ubuntu-optee-rpi3/RPi3_OPTEE_3.1/optee_os/lib/libutee/tee_api_operations.c:367
    1708:	a9be7bfd 	stp	x29, x30, [sp, #-32]!
    170c:	910003fd 	mov	x29, sp
    1710:	f9000bf3 	str	x19, [sp, #16]
    1714:	aa0003f3 	mov	x19, x0
/home/zliu/ubuntu-optee-rpi3/RPi3_OPTEE_3.1/optee_os/lib/libutee/tee_api_operations.c:370
    1718:	b5000060 	cbnz	x0, 1724 <TEE_FreeOperation+0x1c>
/home/zliu/ubuntu-optee-rpi3/RPi3_OPTEE_3.1/optee_os/lib/libutee/tee_api_operations.c:371
    171c:	52800000 	mov	w0, #0x0                   	// #0
    1720:	940008fd 	bl	3b14 <TEE_Panic>
/home/zliu/ubuntu-optee-rpi3/RPi3_OPTEE_3.1/optee_os/lib/libutee/tee_api_operations.c:378
    1724:	b9405a60 	ldr	w0, [x19, #88]
    1728:	940009e1 	bl	3eac <utee_cryp_state_free>
/home/zliu/ubuntu-optee-rpi3/RPi3_OPTEE_3.1/optee_os/lib/libutee/tee_api_operations.c:379
    172c:	34000040 	cbz	w0, 1734 <TEE_FreeOperation+0x2c>
/home/zliu/ubuntu-optee-rpi3/RPi3_OPTEE_3.1/optee_os/lib/libutee/tee_api_operations.c:380
    1730:	940008f9 	bl	3b14 <TEE_Panic>
/home/zliu/ubuntu-optee-rpi3/RPi3_OPTEE_3.1/optee_os/lib/libutee/tee_api_operations.c:382
    1734:	f9401e60 	ldr	x0, [x19, #56]
    1738:	97fffcc0 	bl	a38 <TEE_Free>
/home/zliu/ubuntu-optee-rpi3/RPi3_OPTEE_3.1/optee_os/lib/libutee/tee_api_operations.c:383
    173c:	aa1303e0 	mov	x0, x19
/home/zliu/ubuntu-optee-rpi3/RPi3_OPTEE_3.1/optee_os/lib/libutee/tee_api_operations.c:384
    1740:	f9400bf3 	ldr	x19, [sp, #16]
    1744:	a8c27bfd 	ldp	x29, x30, [sp], #32
/home/zliu/ubuntu-optee-rpi3/RPi3_OPTEE_3.1/optee_os/lib/libutee/tee_api_operations.c:383
    1748:	17fffcbc 	b	a38 <TEE_Free>

000000000000174c <TEE_AllocateOperation>:
TEE_AllocateOperation():
/home/zliu/ubuntu-optee-rpi3/RPi3_OPTEE_3.1/optee_os/lib/libutee/tee_api_operations.c:60
    174c:	a9b97bfd 	stp	x29, x30, [sp, #-112]!
    1750:	910003fd 	mov	x29, sp
    1754:	a90363f7 	stp	x23, x24, [sp, #48]
    1758:	2a0203f8 	mov	w24, w2
    175c:	a90153f3 	stp	x19, x20, [sp, #16]
    1760:	2a0303f7 	mov	w23, w3
    1764:	a9025bf5 	stp	x21, x22, [sp, #32]
    1768:	2a0103f3 	mov	w19, w1
    176c:	a9046bf9 	stp	x25, x26, [sp, #64]
    1770:	a90573fb 	stp	x27, x28, [sp, #80]
    1774:	f90037a0 	str	x0, [x29, #104]
/home/zliu/ubuntu-optee-rpi3/RPi3_OPTEE_3.1/optee_os/lib/libutee/tee_api_operations.c:69
    1778:	b5000040 	cbnz	x0, 1780 <TEE_AllocateOperation+0x34>
/home/zliu/ubuntu-optee-rpi3/RPi3_OPTEE_3.1/optee_os/lib/libutee/tee_api_operations.c:70
    177c:	940008e6 	bl	3b14 <TEE_Panic>
/home/zliu/ubuntu-optee-rpi3/RPi3_OPTEE_3.1/optee_os/lib/libutee/tee_api_operations.c:72
    1780:	52808200 	mov	w0, #0x410                 	// #1040
    1784:	72a20000 	movk	w0, #0x1000, lsl #16
    1788:	6b00027f 	cmp	w19, w0
    178c:	54002cc0 	b.eq	1d24 <TEE_AllocateOperation+0x5d8>  // b.none
/home/zliu/ubuntu-optee-rpi3/RPi3_OPTEE_3.1/optee_os/lib/libutee/tee_api_operations.c:76
    1790:	52882620 	mov	w0, #0x4131                	// #16689
    1794:	72ae0000 	movk	w0, #0x7000, lsl #16
    1798:	6b00027f 	cmp	w19, w0
    179c:	54000e60 	b.eq	1968 <TEE_AllocateOperation+0x21c>  // b.none
    17a0:	540007c8 	b.hi	1898 <TEE_AllocateOperation+0x14c>  // b.pmore
    17a4:	52842620 	mov	w0, #0x2131                	// #8497
    17a8:	72ae0000 	movk	w0, #0x7000, lsl #16
    17ac:	6b00027f 	cmp	w19, w0
    17b0:	54000aa0 	b.eq	1904 <TEE_AllocateOperation+0x1b8>  // b.none
    17b4:	54000568 	b.hi	1860 <TEE_AllocateOperation+0x114>  // b.pmore
    17b8:	52820820 	mov	w0, #0x1041                	// #4161
    17bc:	72ae0000 	movk	w0, #0x7000, lsl #16
    17c0:	6b00027f 	cmp	w19, w0
    17c4:	54000840 	b.eq	18cc <TEE_AllocateOperation+0x180>  // b.none
    17c8:	11400400 	add	w0, w0, #0x1, lsl #12
    17cc:	6b00027f 	cmp	w19, w0
    17d0:	54000d40 	b.eq	1978 <TEE_AllocateOperation+0x22c>  // b.none
/home/zliu/ubuntu-optee-rpi3/RPi3_OPTEE_3.1/optee_os/lib/libutee/tee_api_operations.c:131
    17d4:	52842620 	mov	w0, #0x2131                	// #8497
    17d8:	72ae0000 	movk	w0, #0x7000, lsl #16
    17dc:	6b00027f 	cmp	w19, w0
    17e0:	540009e0 	b.eq	191c <TEE_AllocateOperation+0x1d0>  // b.none
    17e4:	54001ae8 	b.hi	1b40 <TEE_AllocateOperation+0x3f4>  // b.pmore
    17e8:	5280a260 	mov	w0, #0x513                 	// #1299
    17ec:	72a60000 	movk	w0, #0x3000, lsl #16
    17f0:	6b00027f 	cmp	w19, w0
    17f4:	54001000 	b.eq	19f4 <TEE_AllocateOperation+0x2a8>  // b.none
    17f8:	54001208 	b.hi	1a38 <TEE_AllocateOperation+0x2ec>  // b.pmore
    17fc:	52806200 	mov	w0, #0x310                 	// #784
    1800:	72a20000 	movk	w0, #0x1000, lsl #16
    1804:	6b00027f 	cmp	w19, w0
    1808:	54002a80 	b.eq	1d58 <TEE_AllocateOperation+0x60c>  // b.none
    180c:	52802220 	mov	w0, #0x111                 	// #273
    1810:	54000dc8 	b.hi	19c8 <TEE_AllocateOperation+0x27c>  // b.pmore
    1814:	72a20000 	movk	w0, #0x1000, lsl #16
    1818:	6b00027f 	cmp	w19, w0
    181c:	54000c08 	b.hi	199c <TEE_AllocateOperation+0x250>  // b.pmore
    1820:	52802200 	mov	w0, #0x110                 	// #272
    1824:	72a20000 	movk	w0, #0x1000, lsl #16
    1828:	6b00027f 	cmp	w19, w0
    182c:	540029a2 	b.cs	1d60 <TEE_AllocateOperation+0x614>  // b.hs, b.nlast
    1830:	52800200 	mov	w0, #0x10                  	// #16
    1834:	72a20000 	movk	w0, #0x1000, lsl #16
    1838:	6b00027f 	cmp	w19, w0
    183c:	540000e3 	b.cc	1858 <TEE_AllocateOperation+0x10c>  // b.lo, b.ul, b.last
    1840:	11000400 	add	w0, w0, #0x1
    1844:	6b00027f 	cmp	w19, w0
    1848:	540028c9 	b.ls	1d60 <TEE_AllocateOperation+0x614>  // b.plast
    184c:	11000800 	add	w0, w0, #0x2
    1850:	6b00027f 	cmp	w19, w0
    1854:	54002860 	b.eq	1d60 <TEE_AllocateOperation+0x614>  // b.none
/home/zliu/ubuntu-optee-rpi3/RPi3_OPTEE_3.1/optee_os/lib/libutee/tee_api_operations.c:270
    1858:	129ffeb4 	mov	w20, #0xffff000a            	// #-65526
    185c:	1400003b 	b	1948 <TEE_AllocateOperation+0x1fc>
/home/zliu/ubuntu-optee-rpi3/RPi3_OPTEE_3.1/optee_os/lib/libutee/tee_api_operations.c:76
    1860:	52862620 	mov	w0, #0x3131                	// #12593
    1864:	72ae0000 	movk	w0, #0x7000, lsl #16
    1868:	6b00027f 	cmp	w19, w0
    186c:	54000680 	b.eq	193c <TEE_AllocateOperation+0x1f0>  // b.none
    1870:	113c4000 	add	w0, w0, #0xf10
    1874:	6b00027f 	cmp	w19, w0
    1878:	54000860 	b.eq	1984 <TEE_AllocateOperation+0x238>  // b.none
    187c:	52860820 	mov	w0, #0x3041                	// #12353
    1880:	72ae0000 	movk	w0, #0x7000, lsl #16
    1884:	6b00027f 	cmp	w19, w0
    1888:	54fffa61 	b.ne	17d4 <TEE_AllocateOperation+0x88>  // b.any
/home/zliu/ubuntu-optee-rpi3/RPi3_OPTEE_3.1/optee_os/lib/libutee/tee_api_operations.c:81
    188c:	129ffeb4 	mov	w20, #0xffff000a            	// #-65526
/home/zliu/ubuntu-optee-rpi3/RPi3_OPTEE_3.1/optee_os/lib/libutee/tee_api_operations.c:110
    1890:	710402ff 	cmp	w23, #0x100
    1894:	14000010 	b	18d4 <TEE_AllocateOperation+0x188>
/home/zliu/ubuntu-optee-rpi3/RPi3_OPTEE_3.1/optee_os/lib/libutee/tee_api_operations.c:76
    1898:	52840840 	mov	w0, #0x2042                	// #8258
    189c:	72b00000 	movk	w0, #0x8000, lsl #16
    18a0:	6b00027f 	cmp	w19, w0
    18a4:	540006a0 	b.eq	1978 <TEE_AllocateOperation+0x22c>  // b.none
    18a8:	540001a8 	b.hi	18dc <TEE_AllocateOperation+0x190>  // b.pmore
    18ac:	528a0820 	mov	w0, #0x5041                	// #20545
    18b0:	72ae0000 	movk	w0, #0x7000, lsl #16
    18b4:	6b00027f 	cmp	w19, w0
    18b8:	540006c0 	b.eq	1990 <TEE_AllocateOperation+0x244>  // b.none
    18bc:	52820840 	mov	w0, #0x1042                	// #4162
    18c0:	72b00000 	movk	w0, #0x8000, lsl #16
    18c4:	6b00027f 	cmp	w19, w0
    18c8:	54fff861 	b.ne	17d4 <TEE_AllocateOperation+0x88>  // b.any
/home/zliu/ubuntu-optee-rpi3/RPi3_OPTEE_3.1/optee_os/lib/libutee/tee_api_operations.c:98
    18cc:	710302ff 	cmp	w23, #0xc0
/home/zliu/ubuntu-optee-rpi3/RPi3_OPTEE_3.1/optee_os/lib/libutee/tee_api_operations.c:81
    18d0:	129ffeb4 	mov	w20, #0xffff000a            	// #-65526
/home/zliu/ubuntu-optee-rpi3/RPi3_OPTEE_3.1/optee_os/lib/libutee/tee_api_operations.c:122
    18d4:	540003a1 	b.ne	1948 <TEE_AllocateOperation+0x1fc>  // b.any
    18d8:	17ffffbf 	b	17d4 <TEE_AllocateOperation+0x88>
/home/zliu/ubuntu-optee-rpi3/RPi3_OPTEE_3.1/optee_os/lib/libutee/tee_api_operations.c:76
    18dc:	52880840 	mov	w0, #0x4042                	// #16450
    18e0:	72b00000 	movk	w0, #0x8000, lsl #16
    18e4:	6b00027f 	cmp	w19, w0
    18e8:	540004e0 	b.eq	1984 <TEE_AllocateOperation+0x238>  // b.none
    18ec:	11400400 	add	w0, w0, #0x1, lsl #12
    18f0:	6b00027f 	cmp	w19, w0
    18f4:	540004e0 	b.eq	1990 <TEE_AllocateOperation+0x244>  // b.none
    18f8:	52860840 	mov	w0, #0x3042                	// #12354
    18fc:	72b00000 	movk	w0, #0x8000, lsl #16
    1900:	17ffffe1 	b	1884 <TEE_AllocateOperation+0x138>
/home/zliu/ubuntu-optee-rpi3/RPi3_OPTEE_3.1/optee_os/lib/libutee/tee_api_operations.c:80
    1904:	510802e0 	sub	w0, w23, #0x200
/home/zliu/ubuntu-optee-rpi3/RPi3_OPTEE_3.1/optee_os/lib/libutee/tee_api_operations.c:81
    1908:	129ffeb4 	mov	w20, #0xffff000a            	// #-65526
/home/zliu/ubuntu-optee-rpi3/RPi3_OPTEE_3.1/optee_os/lib/libutee/tee_api_operations.c:80
    190c:	7108001f 	cmp	w0, #0x200
    1910:	540001c8 	b.hi	1948 <TEE_AllocateOperation+0x1fc>  // b.pmore
/home/zliu/ubuntu-optee-rpi3/RPi3_OPTEE_3.1/optee_os/lib/libutee/tee_api_operations.c:82
    1914:	f24016ff 	tst	x23, #0x3f
    1918:	54000181 	b.ne	1948 <TEE_AllocateOperation+0x1fc>  // b.any
/home/zliu/ubuntu-optee-rpi3/RPi3_OPTEE_3.1/optee_os/lib/libutee/tee_api_operations.c:177
    191c:	71000b1f 	cmp	w24, #0x2
    1920:	540029c0 	b.eq	1e58 <TEE_AllocateOperation+0x70c>  // b.none
/home/zliu/ubuntu-optee-rpi3/RPi3_OPTEE_3.1/optee_os/lib/libutee/tee_api_operations.c:180
    1924:	71000f1f 	cmp	w24, #0x3
    1928:	54fff981 	b.ne	1858 <TEE_AllocateOperation+0x10c>  // b.any
/home/zliu/ubuntu-optee-rpi3/RPi3_OPTEE_3.1/optee_os/lib/libutee/tee_api_operations.c:67
    192c:	52800019 	mov	w25, #0x0                   	// #0
/home/zliu/ubuntu-optee-rpi3/RPi3_OPTEE_3.1/optee_os/lib/libutee/tee_api_operations.c:66
    1930:	5280001a 	mov	w26, #0x0                   	// #0
/home/zliu/ubuntu-optee-rpi3/RPi3_OPTEE_3.1/optee_os/lib/libutee/tee_api_operations.c:181
    1934:	52800403 	mov	w3, #0x20                  	// #32
    1938:	140000d6 	b	1c90 <TEE_AllocateOperation+0x544>
/home/zliu/ubuntu-optee-rpi3/RPi3_OPTEE_3.1/optee_os/lib/libutee/tee_api_operations.c:87
    193c:	712002ff 	cmp	w23, #0x800
/home/zliu/ubuntu-optee-rpi3/RPi3_OPTEE_3.1/optee_os/lib/libutee/tee_api_operations.c:81
    1940:	129ffeb4 	mov	w20, #0xffff000a            	// #-65526
/home/zliu/ubuntu-optee-rpi3/RPi3_OPTEE_3.1/optee_os/lib/libutee/tee_api_operations.c:92
    1944:	54fffec0 	b.eq	191c <TEE_AllocateOperation+0x1d0>  // b.none
/home/zliu/ubuntu-optee-rpi3/RPi3_OPTEE_3.1/optee_os/lib/libutee/tee_api_operations.c:364
    1948:	2a1403e0 	mov	w0, w20
    194c:	a94153f3 	ldp	x19, x20, [sp, #16]
    1950:	a9425bf5 	ldp	x21, x22, [sp, #32]
    1954:	a94363f7 	ldp	x23, x24, [sp, #48]
    1958:	a9446bf9 	ldp	x25, x26, [sp, #64]
    195c:	a94573fb 	ldp	x27, x28, [sp, #80]
    1960:	a8c77bfd 	ldp	x29, x30, [sp], #112
    1964:	d65f03c0 	ret
/home/zliu/ubuntu-optee-rpi3/RPi3_OPTEE_3.1/optee_os/lib/libutee/tee_api_operations.c:92
    1968:	12157ae0 	and	w0, w23, #0xfffffbff
/home/zliu/ubuntu-optee-rpi3/RPi3_OPTEE_3.1/optee_os/lib/libutee/tee_api_operations.c:81
    196c:	129ffeb4 	mov	w20, #0xffff000a            	// #-65526
/home/zliu/ubuntu-optee-rpi3/RPi3_OPTEE_3.1/optee_os/lib/libutee/tee_api_operations.c:92
    1970:	7120001f 	cmp	w0, #0x800
    1974:	17fffff4 	b	1944 <TEE_AllocateOperation+0x1f8>
/home/zliu/ubuntu-optee-rpi3/RPi3_OPTEE_3.1/optee_os/lib/libutee/tee_api_operations.c:81
    1978:	129ffeb4 	mov	w20, #0xffff000a            	// #-65526
/home/zliu/ubuntu-optee-rpi3/RPi3_OPTEE_3.1/optee_os/lib/libutee/tee_api_operations.c:104
    197c:	710382ff 	cmp	w23, #0xe0
    1980:	17ffffd5 	b	18d4 <TEE_AllocateOperation+0x188>
/home/zliu/ubuntu-optee-rpi3/RPi3_OPTEE_3.1/optee_os/lib/libutee/tee_api_operations.c:81
    1984:	129ffeb4 	mov	w20, #0xffff000a            	// #-65526
/home/zliu/ubuntu-optee-rpi3/RPi3_OPTEE_3.1/optee_os/lib/libutee/tee_api_operations.c:116
    1988:	710602ff 	cmp	w23, #0x180
    198c:	17ffffd2 	b	18d4 <TEE_AllocateOperation+0x188>
/home/zliu/ubuntu-optee-rpi3/RPi3_OPTEE_3.1/optee_os/lib/libutee/tee_api_operations.c:81
    1990:	129ffeb4 	mov	w20, #0xffff000a            	// #-65526
/home/zliu/ubuntu-optee-rpi3/RPi3_OPTEE_3.1/optee_os/lib/libutee/tee_api_operations.c:122
    1994:	710826ff 	cmp	w23, #0x209
    1998:	17ffffcf 	b	18d4 <TEE_AllocateOperation+0x188>
/home/zliu/ubuntu-optee-rpi3/RPi3_OPTEE_3.1/optee_os/lib/libutee/tee_api_operations.c:131
    199c:	52802260 	mov	w0, #0x113                 	// #275
    19a0:	72a20000 	movk	w0, #0x1000, lsl #16
    19a4:	6b00027f 	cmp	w19, w0
    19a8:	54001dc0 	b.eq	1d60 <TEE_AllocateOperation+0x614>  // b.none
    19ac:	1103f400 	add	w0, w0, #0xfd
    19b0:	6b00027f 	cmp	w19, w0
    19b4:	54fff521 	b.ne	1858 <TEE_AllocateOperation+0x10c>  // b.any
    19b8:	5280001c 	mov	w28, #0x0                   	// #0
/home/zliu/ubuntu-optee-rpi3/RPi3_OPTEE_3.1/optee_os/lib/libutee/tee_api_operations.c:67
    19bc:	52800019 	mov	w25, #0x0                   	// #0
/home/zliu/ubuntu-optee-rpi3/RPi3_OPTEE_3.1/optee_os/lib/libutee/tee_api_operations.c:64
    19c0:	d2800036 	mov	x22, #0x1                   	// #1
    19c4:	140000df 	b	1d40 <TEE_AllocateOperation+0x5f4>
/home/zliu/ubuntu-optee-rpi3/RPi3_OPTEE_3.1/optee_os/lib/libutee/tee_api_operations.c:131
    19c8:	72a60000 	movk	w0, #0x3000, lsl #16
    19cc:	6b00027f 	cmp	w19, w0
    19d0:	54000208 	b.hi	1a10 <TEE_AllocateOperation+0x2c4>  // b.pmore
    19d4:	52802200 	mov	w0, #0x110                 	// #272
    19d8:	72a60000 	movk	w0, #0x3000, lsl #16
    19dc:	6b00027f 	cmp	w19, w0
    19e0:	540000a2 	b.cs	19f4 <TEE_AllocateOperation+0x2a8>  // b.hs, b.nlast
    19e4:	12a60000 	mov	w0, #0xcfffffff            	// #-805306369
    19e8:	0b000260 	add	w0, w19, w0
    19ec:	7100141f 	cmp	w0, #0x5
    19f0:	54fff348 	b.hi	1858 <TEE_AllocateOperation+0x10c>  // b.pmore
/home/zliu/ubuntu-optee-rpi3/RPi3_OPTEE_3.1/optee_os/lib/libutee/tee_api_operations.c:81
    19f4:	129ffeb4 	mov	w20, #0xffff000a            	// #-65526
/home/zliu/ubuntu-optee-rpi3/RPi3_OPTEE_3.1/optee_os/lib/libutee/tee_api_operations.c:264
    19f8:	7100131f 	cmp	w24, #0x4
    19fc:	54fffa61 	b.ne	1948 <TEE_AllocateOperation+0x1fc>  // b.any
/home/zliu/ubuntu-optee-rpi3/RPi3_OPTEE_3.1/optee_os/lib/libutee/tee_api_operations.c:67
    1a00:	52800019 	mov	w25, #0x0                   	// #0
/home/zliu/ubuntu-optee-rpi3/RPi3_OPTEE_3.1/optee_os/lib/libutee/tee_api_operations.c:66
    1a04:	5280001a 	mov	w26, #0x0                   	// #0
/home/zliu/ubuntu-optee-rpi3/RPi3_OPTEE_3.1/optee_os/lib/libutee/tee_api_operations.c:266
    1a08:	52800103 	mov	w3, #0x8                   	// #8
    1a0c:	140000a1 	b	1c90 <TEE_AllocateOperation+0x544>
/home/zliu/ubuntu-optee-rpi3/RPi3_OPTEE_3.1/optee_os/lib/libutee/tee_api_operations.c:131
    1a10:	52802260 	mov	w0, #0x113                 	// #275
    1a14:	72a60000 	movk	w0, #0x3000, lsl #16
    1a18:	6b00027f 	cmp	w19, w0
    1a1c:	54fffec0 	b.eq	19f4 <TEE_AllocateOperation+0x2a8>  // b.none
    1a20:	54fff1c3 	b.cc	1858 <TEE_AllocateOperation+0x10c>  // b.lo, b.ul, b.last
    1a24:	529f5e00 	mov	w0, #0xfaf0                	// #64240
    1a28:	72b9ffe0 	movk	w0, #0xcfff, lsl #16
    1a2c:	0b000260 	add	w0, w19, w0
    1a30:	7100041f 	cmp	w0, #0x1
    1a34:	17ffffef 	b	19f0 <TEE_AllocateOperation+0x2a4>
    1a38:	52804600 	mov	w0, #0x230                 	// #560
    1a3c:	72ac0420 	movk	w0, #0x6021, lsl #16
    1a40:	6b00027f 	cmp	w19, w0
    1a44:	540003a0 	b.eq	1ab8 <TEE_AllocateOperation+0x36c>  // b.none
    1a48:	54000468 	b.hi	1ad4 <TEE_AllocateOperation+0x388>  // b.pmore
    1a4c:	528000c0 	mov	w0, #0x6                   	// #6
    1a50:	72aa0000 	movk	w0, #0x5000, lsl #16
    1a54:	6b00027f 	cmp	w19, w0
    1a58:	54000228 	b.hi	1a9c <TEE_AllocateOperation+0x350>  // b.pmore
    1a5c:	52800020 	mov	w0, #0x1                   	// #1
    1a60:	72aa0000 	movk	w0, #0x5000, lsl #16
    1a64:	6b00027f 	cmp	w19, w0
    1a68:	54001902 	b.cs	1d88 <TEE_AllocateOperation+0x63c>  // b.hs, b.nlast
    1a6c:	5280e200 	mov	w0, #0x710                 	// #1808
    1a70:	72a80000 	movk	w0, #0x4000, lsl #16
    1a74:	6b00027f 	cmp	w19, w0
    1a78:	54001740 	b.eq	1d60 <TEE_AllocateOperation+0x614>  // b.none
    1a7c:	11040000 	add	w0, w0, #0x100
    1a80:	6b00027f 	cmp	w19, w0
    1a84:	54fff9a0 	b.eq	19b8 <TEE_AllocateOperation+0x26c>  // b.none
    1a88:	5280c200 	mov	w0, #0x610                 	// #1552
    1a8c:	72a60000 	movk	w0, #0x3000, lsl #16
    1a90:	6b00027f 	cmp	w19, w0
    1a94:	54ffee21 	b.ne	1858 <TEE_AllocateOperation+0x10c>  // b.any
    1a98:	17ffffd7 	b	19f4 <TEE_AllocateOperation+0x2a8>
    1a9c:	52800600 	mov	w0, #0x30                  	// #48
    1aa0:	72ac0000 	movk	w0, #0x6000, lsl #16
    1aa4:	6b00027f 	cmp	w19, w0
    1aa8:	54001620 	b.eq	1d6c <TEE_AllocateOperation+0x620>  // b.none
    1aac:	11040000 	add	w0, w0, #0x100
    1ab0:	6b00027f 	cmp	w19, w0
    1ab4:	54ffed21 	b.ne	1858 <TEE_AllocateOperation+0x10c>  // b.any
/home/zliu/ubuntu-optee-rpi3/RPi3_OPTEE_3.1/optee_os/lib/libutee/tee_api_operations.c:193
    1ab8:	34001d98 	cbz	w24, 1e68 <TEE_AllocateOperation+0x71c>
/home/zliu/ubuntu-optee-rpi3/RPi3_OPTEE_3.1/optee_os/lib/libutee/tee_api_operations.c:195
    1abc:	7100071f 	cmp	w24, #0x1
    1ac0:	54ffecc1 	b.ne	1858 <TEE_AllocateOperation+0x10c>  // b.any
/home/zliu/ubuntu-optee-rpi3/RPi3_OPTEE_3.1/optee_os/lib/libutee/tee_api_operations.c:67
    1ac4:	52800019 	mov	w25, #0x0                   	// #0
/home/zliu/ubuntu-optee-rpi3/RPi3_OPTEE_3.1/optee_os/lib/libutee/tee_api_operations.c:196
    1ac8:	2a1803fa 	mov	w26, w24
/home/zliu/ubuntu-optee-rpi3/RPi3_OPTEE_3.1/optee_os/lib/libutee/tee_api_operations.c:197
    1acc:	52800083 	mov	w3, #0x4                   	// #4
    1ad0:	14000070 	b	1c90 <TEE_AllocateOperation+0x544>
/home/zliu/ubuntu-optee-rpi3/RPi3_OPTEE_3.1/optee_os/lib/libutee/tee_api_operations.c:131
    1ad4:	52804600 	mov	w0, #0x230                 	// #560
    1ad8:	72ac0c20 	movk	w0, #0x6061, lsl #16
    1adc:	6b00027f 	cmp	w19, w0
    1ae0:	54fffec0 	b.eq	1ab8 <TEE_AllocateOperation+0x36c>  // b.none
    1ae4:	54000168 	b.hi	1b10 <TEE_AllocateOperation+0x3c4>  // b.pmore
    1ae8:	52804600 	mov	w0, #0x230                 	// #560
    1aec:	72ac0820 	movk	w0, #0x6041, lsl #16
    1af0:	6b00027f 	cmp	w19, w0
    1af4:	54fffe20 	b.eq	1ab8 <TEE_AllocateOperation+0x36c>  // b.none
    1af8:	11440000 	add	w0, w0, #0x100, lsl #12
    1afc:	6b00027f 	cmp	w19, w0
    1b00:	54fffdc0 	b.eq	1ab8 <TEE_AllocateOperation+0x36c>  // b.none
    1b04:	52804600 	mov	w0, #0x230                 	// #560
    1b08:	72ac0620 	movk	w0, #0x6031, lsl #16
    1b0c:	17ffffe9 	b	1ab0 <TEE_AllocateOperation+0x364>
    1b10:	52830600 	mov	w0, #0x1830                	// #6192
    1b14:	72ae0000 	movk	w0, #0x7000, lsl #16
    1b18:	6b00027f 	cmp	w19, w0
    1b1c:	54fff000 	b.eq	191c <TEE_AllocateOperation+0x1d0>  // b.none
    1b20:	11204400 	add	w0, w0, #0x811
    1b24:	6b00027f 	cmp	w19, w0
    1b28:	54ffefa0 	b.eq	191c <TEE_AllocateOperation+0x1d0>  // b.none
    1b2c:	52820820 	mov	w0, #0x1041                	// #4161
    1b30:	72ae0000 	movk	w0, #0x7000, lsl #16
    1b34:	6b00027f 	cmp	w19, w0
    1b38:	54ffe901 	b.ne	1858 <TEE_AllocateOperation+0x10c>  // b.any
    1b3c:	17ffff78 	b	191c <TEE_AllocateOperation+0x1d0>
    1b40:	52800640 	mov	w0, #0x32                  	// #50
    1b44:	72b00000 	movk	w0, #0x8000, lsl #16
    1b48:	6b00027f 	cmp	w19, w0
    1b4c:	54000960 	b.eq	1c78 <TEE_AllocateOperation+0x52c>  // b.none
    1b50:	540006c8 	b.hi	1c28 <TEE_AllocateOperation+0x4dc>  // b.pmore
    1b54:	528a0820 	mov	w0, #0x5041                	// #20545
    1b58:	72ae0000 	movk	w0, #0x7000, lsl #16
    1b5c:	6b00027f 	cmp	w19, w0
    1b60:	54ffede0 	b.eq	191c <TEE_AllocateOperation+0x1d0>  // b.none
    1b64:	54000308 	b.hi	1bc4 <TEE_AllocateOperation+0x478>  // b.pmore
    1b68:	52870600 	mov	w0, #0x3830                	// #14384
    1b6c:	72ae0000 	movk	w0, #0x7000, lsl #16
    1b70:	6b00027f 	cmp	w19, w0
    1b74:	54ffed40 	b.eq	191c <TEE_AllocateOperation+0x1d0>  // b.none
    1b78:	54000148 	b.hi	1ba0 <TEE_AllocateOperation+0x454>  // b.pmore
    1b7c:	52860820 	mov	w0, #0x3041                	// #12353
    1b80:	72ae0000 	movk	w0, #0x7000, lsl #16
    1b84:	6b00027f 	cmp	w19, w0
    1b88:	54ffeca0 	b.eq	191c <TEE_AllocateOperation+0x1d0>  // b.none
    1b8c:	1103c000 	add	w0, w0, #0xf0
    1b90:	6b00027f 	cmp	w19, w0
    1b94:	54ffec40 	b.eq	191c <TEE_AllocateOperation+0x1d0>  // b.none
    1b98:	52850600 	mov	w0, #0x2830                	// #10288
    1b9c:	17ffffe5 	b	1b30 <TEE_AllocateOperation+0x3e4>
    1ba0:	52882620 	mov	w0, #0x4131                	// #16689
    1ba4:	72ae0000 	movk	w0, #0x7000, lsl #16
    1ba8:	6b00027f 	cmp	w19, w0
    1bac:	54ffeb80 	b.eq	191c <TEE_AllocateOperation+0x1d0>  // b.none
    1bb0:	111bfc00 	add	w0, w0, #0x6ff
    1bb4:	6b00027f 	cmp	w19, w0
    1bb8:	54ffeb20 	b.eq	191c <TEE_AllocateOperation+0x1d0>  // b.none
    1bbc:	52880820 	mov	w0, #0x4041                	// #16449
    1bc0:	17ffffdc 	b	1b30 <TEE_AllocateOperation+0x3e4>
    1bc4:	52872600 	mov	w0, #0x3930                	// #14640
    1bc8:	72ae0620 	movk	w0, #0x7031, lsl #16
    1bcc:	6b00027f 	cmp	w19, w0
    1bd0:	54ffea60 	b.eq	191c <TEE_AllocateOperation+0x1d0>  // b.none
    1bd4:	54000168 	b.hi	1c00 <TEE_AllocateOperation+0x4b4>  // b.pmore
    1bd8:	528d0600 	mov	w0, #0x6830                	// #26672
    1bdc:	72ae0000 	movk	w0, #0x7000, lsl #16
    1be0:	6b00027f 	cmp	w19, w0
    1be4:	54ffe9c0 	b.eq	191c <TEE_AllocateOperation+0x1d0>  // b.none
    1be8:	52852600 	mov	w0, #0x2930                	// #10544
    1bec:	72ae0420 	movk	w0, #0x7021, lsl #16
    1bf0:	6b00027f 	cmp	w19, w0
    1bf4:	54ffe940 	b.eq	191c <TEE_AllocateOperation+0x1d0>  // b.none
    1bf8:	528b0600 	mov	w0, #0x5830                	// #22576
    1bfc:	17ffffcd 	b	1b30 <TEE_AllocateOperation+0x3e4>
    1c00:	528b2600 	mov	w0, #0x5930                	// #22832
    1c04:	72ae0a20 	movk	w0, #0x7051, lsl #16
    1c08:	6b00027f 	cmp	w19, w0
    1c0c:	54ffe880 	b.eq	191c <TEE_AllocateOperation+0x1d0>  // b.none
    1c10:	11440400 	add	w0, w0, #0x101, lsl #12
    1c14:	6b00027f 	cmp	w19, w0
    1c18:	54ffe820 	b.eq	191c <TEE_AllocateOperation+0x1d0>  // b.none
    1c1c:	52892600 	mov	w0, #0x4930                	// #18736
    1c20:	72ae0820 	movk	w0, #0x7041, lsl #16
    1c24:	17ffffc4 	b	1b34 <TEE_AllocateOperation+0x3e8>
    1c28:	52861820 	mov	w0, #0x30c1                	// #12481
    1c2c:	72b00000 	movk	w0, #0x8000, lsl #16
    1c30:	6b00027f 	cmp	w19, w0
    1c34:	54000468 	b.hi	1cc0 <TEE_AllocateOperation+0x574>  // b.pmore
    1c38:	52861800 	mov	w0, #0x30c0                	// #12480
    1c3c:	72b00000 	movk	w0, #0x8000, lsl #16
    1c40:	6b00027f 	cmp	w19, w0
    1c44:	540001a2 	b.cs	1c78 <TEE_AllocateOperation+0x52c>  // b.hs, b.nlast
    1c48:	52840840 	mov	w0, #0x2042                	// #8258
    1c4c:	72b00000 	movk	w0, #0x8000, lsl #16
    1c50:	6b00027f 	cmp	w19, w0
    1c54:	54000120 	b.eq	1c78 <TEE_AllocateOperation+0x52c>  // b.none
    1c58:	54000228 	b.hi	1c9c <TEE_AllocateOperation+0x550>  // b.pmore
    1c5c:	52820840 	mov	w0, #0x1042                	// #4162
    1c60:	72b00000 	movk	w0, #0x8000, lsl #16
    1c64:	6b00027f 	cmp	w19, w0
    1c68:	54000080 	b.eq	1c78 <TEE_AllocateOperation+0x52c>  // b.none
    1c6c:	1101f800 	add	w0, w0, #0x7e
    1c70:	6b00027f 	cmp	w19, w0
    1c74:	54ffdf21 	b.ne	1858 <TEE_AllocateOperation+0x10c>  // b.any
/home/zliu/ubuntu-optee-rpi3/RPi3_OPTEE_3.1/optee_os/lib/libutee/tee_api_operations.c:81
    1c78:	129ffeb4 	mov	w20, #0xffff000a            	// #-65526
/home/zliu/ubuntu-optee-rpi3/RPi3_OPTEE_3.1/optee_os/lib/libutee/tee_api_operations.c:232
    1c7c:	71001b1f 	cmp	w24, #0x6
    1c80:	54ffe641 	b.ne	1948 <TEE_AllocateOperation+0x1fc>  // b.any
/home/zliu/ubuntu-optee-rpi3/RPi3_OPTEE_3.1/optee_os/lib/libutee/tee_api_operations.c:67
    1c84:	52800019 	mov	w25, #0x0                   	// #0
/home/zliu/ubuntu-optee-rpi3/RPi3_OPTEE_3.1/optee_os/lib/libutee/tee_api_operations.c:234
    1c88:	5280003a 	mov	w26, #0x1                   	// #1
/home/zliu/ubuntu-optee-rpi3/RPi3_OPTEE_3.1/optee_os/lib/libutee/tee_api_operations.c:235
    1c8c:	52800803 	mov	w3, #0x40                  	// #64
/home/zliu/ubuntu-optee-rpi3/RPi3_OPTEE_3.1/optee_os/lib/libutee/tee_api_operations.c:64
    1c90:	d2800036 	mov	x22, #0x1                   	// #1
    1c94:	5280001c 	mov	w28, #0x0                   	// #0
    1c98:	14000044 	b	1da8 <TEE_AllocateOperation+0x65c>
/home/zliu/ubuntu-optee-rpi3/RPi3_OPTEE_3.1/optee_os/lib/libutee/tee_api_operations.c:131
    1c9c:	52841800 	mov	w0, #0x20c0                	// #8384
    1ca0:	72b00000 	movk	w0, #0x8000, lsl #16
    1ca4:	6b00027f 	cmp	w19, w0
    1ca8:	54ffdd83 	b.cc	1858 <TEE_AllocateOperation+0x10c>  // b.lo, b.ul, b.last
    1cac:	11000800 	add	w0, w0, #0x2
    1cb0:	6b00027f 	cmp	w19, w0
    1cb4:	54fffe29 	b.ls	1c78 <TEE_AllocateOperation+0x52c>  // b.plast
    1cb8:	113e0000 	add	w0, w0, #0xf80
    1cbc:	17ffffed 	b	1c70 <TEE_AllocateOperation+0x524>
    1cc0:	528a0840 	mov	w0, #0x5042                	// #20546
    1cc4:	72b00000 	movk	w0, #0x8000, lsl #16
    1cc8:	6b00027f 	cmp	w19, w0
    1ccc:	54fffd60 	b.eq	1c78 <TEE_AllocateOperation+0x52c>  // b.none
    1cd0:	54000188 	b.hi	1d00 <TEE_AllocateOperation+0x5b4>  // b.pmore
    1cd4:	52880840 	mov	w0, #0x4042                	// #16450
    1cd8:	72b00000 	movk	w0, #0x8000, lsl #16
    1cdc:	6b00027f 	cmp	w19, w0
    1ce0:	54fffcc0 	b.eq	1c78 <TEE_AllocateOperation+0x52c>  // b.none
    1ce4:	5297e800 	mov	w0, #0xbf40                	// #48960
    1ce8:	54ffdb83 	b.cc	1858 <TEE_AllocateOperation+0x10c>  // b.lo, b.ul, b.last
    1cec:	72afffe0 	movk	w0, #0x7fff, lsl #16
    1cf0:	0b000260 	add	w0, w19, w0
    1cf4:	7100041f 	cmp	w0, #0x1
    1cf8:	54fffc09 	b.ls	1c78 <TEE_AllocateOperation+0x52c>  // b.plast
    1cfc:	17fffed7 	b	1858 <TEE_AllocateOperation+0x10c>
    1d00:	528a1800 	mov	w0, #0x50c0                	// #20672
    1d04:	72b00000 	movk	w0, #0x8000, lsl #16
    1d08:	6b00027f 	cmp	w19, w0
    1d0c:	54ffda63 	b.cc	1858 <TEE_AllocateOperation+0x10c>  // b.lo, b.ul, b.last
    1d10:	11000400 	add	w0, w0, #0x1
    1d14:	6b00027f 	cmp	w19, w0
    1d18:	54fffb09 	b.ls	1c78 <TEE_AllocateOperation+0x52c>  // b.plast
    1d1c:	5293e800 	mov	w0, #0x9f40                	// #40768
    1d20:	17fffff3 	b	1cec <TEE_AllocateOperation+0x5a0>
/home/zliu/ubuntu-optee-rpi3/RPi3_OPTEE_3.1/optee_os/lib/libutee/tee_api_operations.c:73
    1d24:	52a0011c 	mov	w28, #0x80000               	// #524288
/home/zliu/ubuntu-optee-rpi3/RPi3_OPTEE_3.1/optee_os/lib/libutee/tee_api_operations.c:134
    1d28:	52800039 	mov	w25, #0x1                   	// #1
/home/zliu/ubuntu-optee-rpi3/RPi3_OPTEE_3.1/optee_os/lib/libutee/tee_api_operations.c:143
    1d2c:	12001e60 	and	w0, w19, #0xff
/home/zliu/ubuntu-optee-rpi3/RPi3_OPTEE_3.1/optee_os/lib/libutee/tee_api_operations.c:146
    1d30:	d2800216 	mov	x22, #0x10                  	// #16
    1d34:	7100401f 	cmp	w0, #0x10
    1d38:	d2800100 	mov	x0, #0x8                   	// #8
    1d3c:	9a8002d6 	csel	x22, x22, x0, eq  // eq = none
/home/zliu/ubuntu-optee-rpi3/RPi3_OPTEE_3.1/optee_os/lib/libutee/tee_api_operations.c:150
    1d40:	34000878 	cbz	w24, 1e4c <TEE_AllocateOperation+0x700>
/home/zliu/ubuntu-optee-rpi3/RPi3_OPTEE_3.1/optee_os/lib/libutee/tee_api_operations.c:152
    1d44:	7100071f 	cmp	w24, #0x1
    1d48:	54ffd881 	b.ne	1858 <TEE_AllocateOperation+0x10c>  // b.any
/home/zliu/ubuntu-optee-rpi3/RPi3_OPTEE_3.1/optee_os/lib/libutee/tee_api_operations.c:66
    1d4c:	5280001a 	mov	w26, #0x0                   	// #0
/home/zliu/ubuntu-optee-rpi3/RPi3_OPTEE_3.1/optee_os/lib/libutee/tee_api_operations.c:153
    1d50:	52800083 	mov	w3, #0x4                   	// #4
    1d54:	14000015 	b	1da8 <TEE_AllocateOperation+0x65c>
/home/zliu/ubuntu-optee-rpi3/RPi3_OPTEE_3.1/optee_os/lib/libutee/tee_api_operations.c:131
    1d58:	5280001c 	mov	w28, #0x0                   	// #0
    1d5c:	17fffff3 	b	1d28 <TEE_AllocateOperation+0x5dc>
    1d60:	5280001c 	mov	w28, #0x0                   	// #0
/home/zliu/ubuntu-optee-rpi3/RPi3_OPTEE_3.1/optee_os/lib/libutee/tee_api_operations.c:67
    1d64:	52800019 	mov	w25, #0x0                   	// #0
    1d68:	17fffff1 	b	1d2c <TEE_AllocateOperation+0x5e0>
/home/zliu/ubuntu-optee-rpi3/RPi3_OPTEE_3.1/optee_os/lib/libutee/tee_api_operations.c:204
    1d6c:	340008b8 	cbz	w24, 1e80 <TEE_AllocateOperation+0x734>
/home/zliu/ubuntu-optee-rpi3/RPi3_OPTEE_3.1/optee_os/lib/libutee/tee_api_operations.c:206
    1d70:	7100071f 	cmp	w24, #0x1
    1d74:	54ffd721 	b.ne	1858 <TEE_AllocateOperation+0x10c>  // b.any
/home/zliu/ubuntu-optee-rpi3/RPi3_OPTEE_3.1/optee_os/lib/libutee/tee_api_operations.c:67
    1d78:	52800019 	mov	w25, #0x0                   	// #0
/home/zliu/ubuntu-optee-rpi3/RPi3_OPTEE_3.1/optee_os/lib/libutee/tee_api_operations.c:207
    1d7c:	5280003a 	mov	w26, #0x1                   	// #1
/home/zliu/ubuntu-optee-rpi3/RPi3_OPTEE_3.1/optee_os/lib/libutee/tee_api_operations.c:208
    1d80:	52800283 	mov	w3, #0x14                  	// #20
    1d84:	17ffffc3 	b	1c90 <TEE_AllocateOperation+0x544>
/home/zliu/ubuntu-optee-rpi3/RPi3_OPTEE_3.1/optee_os/lib/libutee/tee_api_operations.c:81
    1d88:	129ffeb4 	mov	w20, #0xffff000a            	// #-65526
/home/zliu/ubuntu-optee-rpi3/RPi3_OPTEE_3.1/optee_os/lib/libutee/tee_api_operations.c:244
    1d8c:	7100171f 	cmp	w24, #0x5
    1d90:	54ffddc1 	b.ne	1948 <TEE_AllocateOperation+0x1fc>  // b.any
/home/zliu/ubuntu-optee-rpi3/RPi3_OPTEE_3.1/optee_os/lib/libutee/tee_api_operations.c:67
    1d94:	52800019 	mov	w25, #0x0                   	// #0
/home/zliu/ubuntu-optee-rpi3/RPi3_OPTEE_3.1/optee_os/lib/libutee/tee_api_operations.c:66
    1d98:	5280001a 	mov	w26, #0x0                   	// #0
/home/zliu/ubuntu-optee-rpi3/RPi3_OPTEE_3.1/optee_os/lib/libutee/tee_api_operations.c:248
    1d9c:	52800003 	mov	w3, #0x0                   	// #0
/home/zliu/ubuntu-optee-rpi3/RPi3_OPTEE_3.1/optee_os/lib/libutee/tee_api_operations.c:64
    1da0:	d2800036 	mov	x22, #0x1                   	// #1
/home/zliu/ubuntu-optee-rpi3/RPi3_OPTEE_3.1/optee_os/lib/libutee/tee_api_operations.c:247
    1da4:	52a0009c 	mov	w28, #0x40000               	// #262144
/home/zliu/ubuntu-optee-rpi3/RPi3_OPTEE_3.1/optee_os/lib/libutee/tee_api_operations.c:273
    1da8:	52800001 	mov	w1, #0x0                   	// #0
    1dac:	52800c00 	mov	w0, #0x60                  	// #96
    1db0:	b90067a3 	str	w3, [x29, #100]
/home/zliu/ubuntu-optee-rpi3/RPi3_OPTEE_3.1/optee_os/lib/libutee/tee_api_operations.c:275
    1db4:	129ffe74 	mov	w20, #0xffff000c            	// #-65524
/home/zliu/ubuntu-optee-rpi3/RPi3_OPTEE_3.1/optee_os/lib/libutee/tee_api_operations.c:273
    1db8:	97fffb1c 	bl	a28 <TEE_Malloc>
    1dbc:	aa0003f5 	mov	x21, x0
/home/zliu/ubuntu-optee-rpi3/RPi3_OPTEE_3.1/optee_os/lib/libutee/tee_api_operations.c:274
    1dc0:	b4ffdc40 	cbz	x0, 1948 <TEE_AllocateOperation+0x1fc>
/home/zliu/ubuntu-optee-rpi3/RPi3_OPTEE_3.1/optee_os/lib/libutee/tee_api_operations.c:281
    1dc4:	b94067a3 	ldr	w3, [x29, #100]
/home/zliu/ubuntu-optee-rpi3/RPi3_OPTEE_3.1/optee_os/lib/libutee/tee_api_operations.c:278
    1dc8:	531c7e7b 	lsr	w27, w19, #28
/home/zliu/ubuntu-optee-rpi3/RPi3_OPTEE_3.1/optee_os/lib/libutee/tee_api_operations.c:279
    1dcc:	b9000818 	str	w24, [x0, #8]
/home/zliu/ubuntu-optee-rpi3/RPi3_OPTEE_3.1/optee_os/lib/libutee/tee_api_operations.c:284
    1dd0:	f10006df 	cmp	x22, #0x1
/home/zliu/ubuntu-optee-rpi3/RPi3_OPTEE_3.1/optee_os/lib/libutee/tee_api_operations.c:278
    1dd4:	29006c13 	stp	w19, w27, [x0]
/home/zliu/ubuntu-optee-rpi3/RPi3_OPTEE_3.1/optee_os/lib/libutee/tee_api_operations.c:280
    1dd8:	b9001017 	str	w23, [x0, #16]
/home/zliu/ubuntu-optee-rpi3/RPi3_OPTEE_3.1/optee_os/lib/libutee/tee_api_operations.c:282
    1ddc:	29037003 	stp	w3, w28, [x0, #24]
/home/zliu/ubuntu-optee-rpi3/RPi3_OPTEE_3.1/optee_os/lib/libutee/tee_api_operations.c:284
    1de0:	540005a1 	b.ne	1e94 <TEE_AllocateOperation+0x748>  // b.any
/home/zliu/ubuntu-optee-rpi3/RPi3_OPTEE_3.1/optee_os/lib/libutee/tee_api_operations.c:298
    1de4:	390102b9 	strb	w25, [x21, #64]
/home/zliu/ubuntu-optee-rpi3/RPi3_OPTEE_3.1/optee_os/lib/libutee/tee_api_operations.c:300
    1de8:	7100177f 	cmp	w27, #0x5
/home/zliu/ubuntu-optee-rpi3/RPi3_OPTEE_3.1/optee_os/lib/libutee/tee_api_operations.c:297
    1dec:	f90026b6 	str	x22, [x21, #72]
/home/zliu/ubuntu-optee-rpi3/RPi3_OPTEE_3.1/optee_os/lib/libutee/tee_api_operations.c:300
    1df0:	54000641 	b.ne	1eb8 <TEE_AllocateOperation+0x76c>  // b.any
/home/zliu/ubuntu-optee-rpi3/RPi3_OPTEE_3.1/optee_os/lib/libutee/tee_api_operations.c:324
    1df4:	a9420ea2 	ldp	x2, x3, [x21, #32]
    1df8:	910162a4 	add	x4, x21, #0x58
    1dfc:	2a1803e1 	mov	w1, w24
    1e00:	2a1303e0 	mov	w0, w19
    1e04:	94000824 	bl	3e94 <utee_cryp_state_alloc>
/home/zliu/ubuntu-optee-rpi3/RPi3_OPTEE_3.1/optee_os/lib/libutee/tee_api_operations.c:326
    1e08:	35000b00 	cbnz	w0, 1f68 <TEE_AllocateOperation+0x81c>
/home/zliu/ubuntu-optee-rpi3/RPi3_OPTEE_3.1/optee_os/lib/libutee/tee_api_operations.c:334
    1e0c:	7100177f 	cmp	w27, #0x5
    1e10:	54000141 	b.ne	1e38 <TEE_AllocateOperation+0x6ec>  // b.any
/home/zliu/ubuntu-optee-rpi3/RPi3_OPTEE_3.1/optee_os/lib/libutee/tee_api_operations.c:335
    1e14:	b9405aa0 	ldr	w0, [x21, #88]
    1e18:	d2800002 	mov	x2, #0x0                   	// #0
    1e1c:	d2800001 	mov	x1, #0x0                   	// #0
    1e20:	94000826 	bl	3eb8 <utee_hash_init>
    1e24:	2a0003f4 	mov	w20, w0
/home/zliu/ubuntu-optee-rpi3/RPi3_OPTEE_3.1/optee_os/lib/libutee/tee_api_operations.c:336
    1e28:	35000780 	cbnz	w0, 1f18 <TEE_AllocateOperation+0x7cc>
/home/zliu/ubuntu-optee-rpi3/RPi3_OPTEE_3.1/optee_os/lib/libutee/tee_api_operations.c:339
    1e2c:	b9401ea0 	ldr	w0, [x21, #28]
    1e30:	320f0000 	orr	w0, w0, #0x20000
    1e34:	b9001ea0 	str	w0, [x21, #28]
/home/zliu/ubuntu-optee-rpi3/RPi3_OPTEE_3.1/optee_os/lib/libutee/tee_api_operations.c:344
    1e38:	f94037a0 	ldr	x0, [x29, #104]
    1e3c:	52800014 	mov	w20, #0x0                   	// #0
/home/zliu/ubuntu-optee-rpi3/RPi3_OPTEE_3.1/optee_os/lib/libutee/tee_api_operations.c:342
    1e40:	b90032bf 	str	wzr, [x21, #48]
/home/zliu/ubuntu-optee-rpi3/RPi3_OPTEE_3.1/optee_os/lib/libutee/tee_api_operations.c:344
    1e44:	f9000015 	str	x21, [x0]
    1e48:	17fffec0 	b	1948 <TEE_AllocateOperation+0x1fc>
/home/zliu/ubuntu-optee-rpi3/RPi3_OPTEE_3.1/optee_os/lib/libutee/tee_api_operations.c:66
    1e4c:	5280001a 	mov	w26, #0x0                   	// #0
/home/zliu/ubuntu-optee-rpi3/RPi3_OPTEE_3.1/optee_os/lib/libutee/tee_api_operations.c:151
    1e50:	52800043 	mov	w3, #0x2                   	// #2
    1e54:	17ffffd5 	b	1da8 <TEE_AllocateOperation+0x65c>
/home/zliu/ubuntu-optee-rpi3/RPi3_OPTEE_3.1/optee_os/lib/libutee/tee_api_operations.c:67
    1e58:	52800019 	mov	w25, #0x0                   	// #0
/home/zliu/ubuntu-optee-rpi3/RPi3_OPTEE_3.1/optee_os/lib/libutee/tee_api_operations.c:178
    1e5c:	5280003a 	mov	w26, #0x1                   	// #1
/home/zliu/ubuntu-optee-rpi3/RPi3_OPTEE_3.1/optee_os/lib/libutee/tee_api_operations.c:179
    1e60:	52800203 	mov	w3, #0x10                  	// #16
    1e64:	17ffff8b 	b	1c90 <TEE_AllocateOperation+0x544>
    1e68:	5280001c 	mov	w28, #0x0                   	// #0
/home/zliu/ubuntu-optee-rpi3/RPi3_OPTEE_3.1/optee_os/lib/libutee/tee_api_operations.c:67
    1e6c:	52800019 	mov	w25, #0x0                   	// #0
/home/zliu/ubuntu-optee-rpi3/RPi3_OPTEE_3.1/optee_os/lib/libutee/tee_api_operations.c:66
    1e70:	5280001a 	mov	w26, #0x0                   	// #0
/home/zliu/ubuntu-optee-rpi3/RPi3_OPTEE_3.1/optee_os/lib/libutee/tee_api_operations.c:194
    1e74:	52800043 	mov	w3, #0x2                   	// #2
/home/zliu/ubuntu-optee-rpi3/RPi3_OPTEE_3.1/optee_os/lib/libutee/tee_api_operations.c:64
    1e78:	d2800036 	mov	x22, #0x1                   	// #1
    1e7c:	17ffffcb 	b	1da8 <TEE_AllocateOperation+0x65c>
    1e80:	5280001c 	mov	w28, #0x0                   	// #0
/home/zliu/ubuntu-optee-rpi3/RPi3_OPTEE_3.1/optee_os/lib/libutee/tee_api_operations.c:67
    1e84:	52800019 	mov	w25, #0x0                   	// #0
/home/zliu/ubuntu-optee-rpi3/RPi3_OPTEE_3.1/optee_os/lib/libutee/tee_api_operations.c:66
    1e88:	5280001a 	mov	w26, #0x0                   	// #0
/home/zliu/ubuntu-optee-rpi3/RPi3_OPTEE_3.1/optee_os/lib/libutee/tee_api_operations.c:205
    1e8c:	52800443 	mov	w3, #0x22                  	// #34
    1e90:	17fffffa 	b	1e78 <TEE_AllocateOperation+0x72c>
/home/zliu/ubuntu-optee-rpi3/RPi3_OPTEE_3.1/optee_os/lib/libutee/tee_api_operations.c:288
    1e94:	7100033f 	cmp	w25, #0x0
    1e98:	d37ffac0 	lsl	x0, x22, #1
/home/zliu/ubuntu-optee-rpi3/RPi3_OPTEE_3.1/optee_os/lib/libutee/tee_api_operations.c:290
    1e9c:	52b00001 	mov	w1, #0x80000000            	// #-2147483648
    1ea0:	9a961000 	csel	x0, x0, x22, ne  // ne = any
    1ea4:	97fffae1 	bl	a28 <TEE_Malloc>
    1ea8:	f9001ea0 	str	x0, [x21, #56]
/home/zliu/ubuntu-optee-rpi3/RPi3_OPTEE_3.1/optee_os/lib/libutee/tee_api_operations.c:292
    1eac:	b5fff9c0 	cbnz	x0, 1de4 <TEE_AllocateOperation+0x698>
/home/zliu/ubuntu-optee-rpi3/RPi3_OPTEE_3.1/optee_os/lib/libutee/tee_api_operations.c:293
    1eb0:	129ffe74 	mov	w20, #0xffff000c            	// #-65524
    1eb4:	14000019 	b	1f18 <TEE_AllocateOperation+0x7cc>
/home/zliu/ubuntu-optee-rpi3/RPi3_OPTEE_3.1/optee_os/lib/libutee/tee_api_operations.c:302
    1eb8:	7100035f 	cmp	w26, #0x0
    1ebc:	52b40001 	mov	w1, #0xa0000000            	// #-1610612736
    1ec0:	52b42000 	mov	w0, #0xa1000000            	// #-1593835520
    1ec4:	1a811000 	csel	w0, w0, w1, ne  // ne = any
/home/zliu/ubuntu-optee-rpi3/RPi3_OPTEE_3.1/optee_os/lib/libutee/tee_api_operations.c:309
    1ec8:	b9401ea1 	ldr	w1, [x21, #28]
/home/zliu/ubuntu-optee-rpi3/RPi3_OPTEE_3.1/optee_os/lib/libutee/tee_api_operations.c:302
    1ecc:	12001e76 	and	w22, w19, #0xff
    1ed0:	2a160016 	orr	w22, w0, w22
/home/zliu/ubuntu-optee-rpi3/RPi3_OPTEE_3.1/optee_os/lib/libutee/tee_api_operations.c:310
    1ed4:	53017ee0 	lsr	w0, w23, #1
/home/zliu/ubuntu-optee-rpi3/RPi3_OPTEE_3.1/optee_os/lib/libutee/tee_api_operations.c:312
    1ed8:	910082a2 	add	x2, x21, #0x20
/home/zliu/ubuntu-optee-rpi3/RPi3_OPTEE_3.1/optee_os/lib/libutee/tee_api_operations.c:310
    1edc:	f26d003f 	tst	x1, #0x80000
    1ee0:	1a971017 	csel	w23, w0, w23, ne  // ne = any
/home/zliu/ubuntu-optee-rpi3/RPi3_OPTEE_3.1/optee_os/lib/libutee/tee_api_operations.c:312
    1ee4:	2a1603e0 	mov	w0, w22
    1ee8:	2a1703e1 	mov	w1, w23
    1eec:	97fffb9d 	bl	d60 <TEE_AllocateTransientObject>
    1ef0:	2a0003f4 	mov	w20, w0
/home/zliu/ubuntu-optee-rpi3/RPi3_OPTEE_3.1/optee_os/lib/libutee/tee_api_operations.c:313
    1ef4:	35000120 	cbnz	w0, 1f18 <TEE_AllocateOperation+0x7cc>
/home/zliu/ubuntu-optee-rpi3/RPi3_OPTEE_3.1/optee_os/lib/libutee/tee_api_operations.c:316
    1ef8:	b9401ea0 	ldr	w0, [x21, #28]
    1efc:	369ff7c0 	tbz	w0, #19, 1df4 <TEE_AllocateOperation+0x6a8>
/home/zliu/ubuntu-optee-rpi3/RPi3_OPTEE_3.1/optee_os/lib/libutee/tee_api_operations.c:317
    1f00:	9100a2a2 	add	x2, x21, #0x28
    1f04:	2a1703e1 	mov	w1, w23
    1f08:	2a1603e0 	mov	w0, w22
    1f0c:	97fffb95 	bl	d60 <TEE_AllocateTransientObject>
    1f10:	2a0003f4 	mov	w20, w0
/home/zliu/ubuntu-optee-rpi3/RPi3_OPTEE_3.1/optee_os/lib/libutee/tee_api_operations.c:319
    1f14:	34fff700 	cbz	w0, 1df4 <TEE_AllocateOperation+0x6a8>
/home/zliu/ubuntu-optee-rpi3/RPi3_OPTEE_3.1/optee_os/lib/libutee/tee_api_operations.c:349
    1f18:	529ffec0 	mov	w0, #0xfff6                	// #65526
    1f1c:	0b000280 	add	w0, w20, w0
/home/zliu/ubuntu-optee-rpi3/RPi3_OPTEE_3.1/optee_os/lib/libutee/tee_api_operations.c:348
    1f20:	721e781f 	tst	w0, #0xfffffffd
    1f24:	54000060 	b.eq	1f30 <TEE_AllocateOperation+0x7e4>  // b.none
/home/zliu/ubuntu-optee-rpi3/RPi3_OPTEE_3.1/optee_os/lib/libutee/tee_api_operations.c:350
    1f28:	2a1403e0 	mov	w0, w20
    1f2c:	940006fa 	bl	3b14 <TEE_Panic>
/home/zliu/ubuntu-optee-rpi3/RPi3_OPTEE_3.1/optee_os/lib/libutee/tee_api_operations.c:352
    1f30:	b9405aa0 	ldr	w0, [x21, #88]
    1f34:	34000080 	cbz	w0, 1f44 <TEE_AllocateOperation+0x7f8>
/home/zliu/ubuntu-optee-rpi3/RPi3_OPTEE_3.1/optee_os/lib/libutee/tee_api_operations.c:353
    1f38:	aa1503e0 	mov	x0, x21
    1f3c:	97fffdf3 	bl	1708 <TEE_FreeOperation>
    1f40:	17fffe82 	b	1948 <TEE_AllocateOperation+0x1fc>
/home/zliu/ubuntu-optee-rpi3/RPi3_OPTEE_3.1/optee_os/lib/libutee/tee_api_operations.c:355
    1f44:	f9401ea0 	ldr	x0, [x21, #56]
    1f48:	97fffabc 	bl	a38 <TEE_Free>
/home/zliu/ubuntu-optee-rpi3/RPi3_OPTEE_3.1/optee_os/lib/libutee/tee_api_operations.c:356
    1f4c:	f94012a0 	ldr	x0, [x21, #32]
    1f50:	97fffb9d 	bl	dc4 <TEE_FreeTransientObject>
/home/zliu/ubuntu-optee-rpi3/RPi3_OPTEE_3.1/optee_os/lib/libutee/tee_api_operations.c:357
    1f54:	f94016a0 	ldr	x0, [x21, #40]
    1f58:	97fffb9b 	bl	dc4 <TEE_FreeTransientObject>
/home/zliu/ubuntu-optee-rpi3/RPi3_OPTEE_3.1/optee_os/lib/libutee/tee_api_operations.c:358
    1f5c:	aa1503e0 	mov	x0, x21
    1f60:	97fffab6 	bl	a38 <TEE_Free>
    1f64:	17fffe79 	b	1948 <TEE_AllocateOperation+0x1fc>
    1f68:	2a0003f4 	mov	w20, w0
    1f6c:	17ffffeb 	b	1f18 <TEE_AllocateOperation+0x7cc>

0000000000001f70 <TEE_GetOperationInfo>:
TEE_GetOperationInfo():
/home/zliu/ubuntu-optee-rpi3/RPi3_OPTEE_3.1/optee_os/lib/libutee/tee_api_operations.c:388
    1f70:	a9be7bfd 	stp	x29, x30, [sp, #-32]!
    1f74:	910003fd 	mov	x29, sp
    1f78:	a90153f3 	stp	x19, x20, [sp, #16]
    1f7c:	aa0003f4 	mov	x20, x0
    1f80:	aa0103f3 	mov	x19, x1
/home/zliu/ubuntu-optee-rpi3/RPi3_OPTEE_3.1/optee_os/lib/libutee/tee_api_operations.c:389
    1f84:	b5000060 	cbnz	x0, 1f90 <TEE_GetOperationInfo+0x20>
/home/zliu/ubuntu-optee-rpi3/RPi3_OPTEE_3.1/optee_os/lib/libutee/tee_api_operations.c:390
    1f88:	52800000 	mov	w0, #0x0                   	// #0
    1f8c:	940006e2 	bl	3b14 <TEE_Panic>
/home/zliu/ubuntu-optee-rpi3/RPi3_OPTEE_3.1/optee_os/lib/libutee/tee_api_operations.c:392
    1f90:	b5000073 	cbnz	x19, 1f9c <TEE_GetOperationInfo+0x2c>
/home/zliu/ubuntu-optee-rpi3/RPi3_OPTEE_3.1/optee_os/lib/libutee/tee_api_operations.c:393
    1f94:	52800000 	mov	w0, #0x0                   	// #0
    1f98:	940006df 	bl	3b14 <TEE_Panic>
/home/zliu/ubuntu-optee-rpi3/RPi3_OPTEE_3.1/optee_os/lib/libutee/tee_api_operations.c:395
    1f9c:	aa1403e1 	mov	x1, x20
    1fa0:	d2800402 	mov	x2, #0x20                  	// #32
    1fa4:	aa1303e0 	mov	x0, x19
    1fa8:	94001059 	bl	610c <memcpy>
/home/zliu/ubuntu-optee-rpi3/RPi3_OPTEE_3.1/optee_os/lib/libutee/tee_api_operations.c:396
    1fac:	a94153f3 	ldp	x19, x20, [sp, #16]
    1fb0:	a8c27bfd 	ldp	x29, x30, [sp], #32
    1fb4:	d65f03c0 	ret

0000000000001fb8 <TEE_GetOperationInfoMultiple>:
TEE_GetOperationInfoMultiple():
/home/zliu/ubuntu-optee-rpi3/RPi3_OPTEE_3.1/optee_os/lib/libutee/tee_api_operations.c:401
    1fb8:	a9b97bfd 	stp	x29, x30, [sp, #-112]!
/home/zliu/ubuntu-optee-rpi3/RPi3_OPTEE_3.1/optee_os/lib/libutee/tee_api_operations.c:418
    1fbc:	f100005f 	cmp	x2, #0x0
    1fc0:	fa401824 	ccmp	x1, #0x0, #0x4, ne  // ne = any
/home/zliu/ubuntu-optee-rpi3/RPi3_OPTEE_3.1/optee_os/lib/libutee/tee_api_operations.c:401
    1fc4:	910003fd 	mov	x29, sp
    1fc8:	a9025bf5 	stp	x21, x22, [sp, #32]
/home/zliu/ubuntu-optee-rpi3/RPi3_OPTEE_3.1/optee_os/lib/libutee/tee_api_operations.c:418
    1fcc:	fa401804 	ccmp	x0, #0x0, #0x4, ne  // ne = any
/home/zliu/ubuntu-optee-rpi3/RPi3_OPTEE_3.1/optee_os/lib/libutee/tee_api_operations.c:401
    1fd0:	a90153f3 	stp	x19, x20, [sp, #16]
/home/zliu/ubuntu-optee-rpi3/RPi3_OPTEE_3.1/optee_os/lib/libutee/tee_api_operations.c:419
    1fd4:	129fff35 	mov	w21, #0xffff0006            	// #-65530
/home/zliu/ubuntu-optee-rpi3/RPi3_OPTEE_3.1/optee_os/lib/libutee/tee_api_operations.c:418
    1fd8:	540004a0 	b.eq	206c <TEE_GetOperationInfoMultiple+0xb4>  // b.none
/home/zliu/ubuntu-optee-rpi3/RPi3_OPTEE_3.1/optee_os/lib/libutee/tee_api_operations.c:423
    1fdc:	b9400056 	ldr	w22, [x2]
    1fe0:	d10082d6 	sub	x22, x22, #0x20
    1fe4:	d343fed6 	lsr	x22, x22, #3
/home/zliu/ubuntu-optee-rpi3/RPi3_OPTEE_3.1/optee_os/lib/libutee/tee_api_operations.c:426
    1fe8:	71000adf 	cmp	w22, #0x2
    1fec:	54000408 	b.hi	206c <TEE_GetOperationInfoMultiple+0xb4>  // b.pmore
    1ff0:	aa0003f4 	mov	x20, x0
/home/zliu/ubuntu-optee-rpi3/RPi3_OPTEE_3.1/optee_os/lib/libutee/tee_api_operations.c:432
    1ff4:	b9401c00 	ldr	w0, [x0, #28]
/home/zliu/ubuntu-optee-rpi3/RPi3_OPTEE_3.1/optee_os/lib/libutee/tee_api_operations.c:435
    1ff8:	129ffdf5 	mov	w21, #0xffff0010            	// #-65520
/home/zliu/ubuntu-optee-rpi3/RPi3_OPTEE_3.1/optee_os/lib/libutee/tee_api_operations.c:433
    1ffc:	f26d001f 	tst	x0, #0x80000
    2000:	7a421ac4 	ccmp	w22, #0x2, #0x4, ne  // ne = any
    2004:	54000341 	b.ne	206c <TEE_GetOperationInfoMultiple+0xb4>  // b.any
/home/zliu/ubuntu-optee-rpi3/RPi3_OPTEE_3.1/optee_os/lib/libutee/tee_api_operations.c:440
    2008:	92407ec2 	and	x2, x22, #0xffffffff
    200c:	aa0103f3 	mov	x19, x1
    2010:	91008020 	add	x0, x1, #0x20
/home/zliu/ubuntu-optee-rpi3/RPi3_OPTEE_3.1/optee_os/lib/libutee/tee_api_operations.c:433
    2014:	d2800001 	mov	x1, #0x0                   	// #0
/home/zliu/ubuntu-optee-rpi3/RPi3_OPTEE_3.1/optee_os/lib/libutee/tee_api_operations.c:440 (discriminator 1)
    2018:	eb02003f 	cmp	x1, x2
    201c:	540003e3 	b.cc	2098 <TEE_GetOperationInfoMultiple+0xe0>  // b.lo, b.ul, b.last
/home/zliu/ubuntu-optee-rpi3/RPi3_OPTEE_3.1/optee_os/lib/libutee/tee_api_operations.c:445
    2020:	71000adf 	cmp	w22, #0x2
    2024:	54000421 	b.ne	20a8 <TEE_GetOperationInfoMultiple+0xf0>  // b.any
/home/zliu/ubuntu-optee-rpi3/RPi3_OPTEE_3.1/optee_os/lib/libutee/tee_api_operations.c:446
    2028:	f9401680 	ldr	x0, [x20, #40]
    202c:	910143a1 	add	x1, x29, #0x50
    2030:	97fffaae 	bl	ae8 <TEE_GetObjectInfo1>
    2034:	2a0003f5 	mov	w21, w0
/home/zliu/ubuntu-optee-rpi3/RPi3_OPTEE_3.1/optee_os/lib/libutee/tee_api_operations.c:448
    2038:	350001a0 	cbnz	w0, 206c <TEE_GetOperationInfoMultiple+0xb4>
/home/zliu/ubuntu-optee-rpi3/RPi3_OPTEE_3.1/optee_os/lib/libutee/tee_api_operations.c:451
    203c:	b94057a0 	ldr	w0, [x29, #84]
    2040:	b9002a60 	str	w0, [x19, #40]
/home/zliu/ubuntu-optee-rpi3/RPi3_OPTEE_3.1/optee_os/lib/libutee/tee_api_operations.c:453
    2044:	b9401a80 	ldr	w0, [x20, #24]
    2048:	b9002e60 	str	w0, [x19, #44]
/home/zliu/ubuntu-optee-rpi3/RPi3_OPTEE_3.1/optee_os/lib/libutee/tee_api_operations.c:458
    204c:	f9401280 	ldr	x0, [x20, #32]
    2050:	9100c3a1 	add	x1, x29, #0x30
    2054:	97fffaa5 	bl	ae8 <TEE_GetObjectInfo1>
    2058:	2a0003f5 	mov	w21, w0
/home/zliu/ubuntu-optee-rpi3/RPi3_OPTEE_3.1/optee_os/lib/libutee/tee_api_operations.c:460
    205c:	34000480 	cbz	w0, 20ec <TEE_GetOperationInfoMultiple+0x134>
/home/zliu/ubuntu-optee-rpi3/RPi3_OPTEE_3.1/optee_os/lib/libutee/tee_api_operations.c:461
    2060:	71000adf 	cmp	w22, #0x2
    2064:	54000041 	b.ne	206c <TEE_GetOperationInfoMultiple+0xb4>  // b.any
/home/zliu/ubuntu-optee-rpi3/RPi3_OPTEE_3.1/optee_os/lib/libutee/tee_api_operations.c:465
    2068:	29057e7f 	stp	wzr, wzr, [x19, #40]
/home/zliu/ubuntu-optee-rpi3/RPi3_OPTEE_3.1/optee_os/lib/libutee/tee_api_operations.c:487
    206c:	710002bf 	cmp	w21, #0x0
    2070:	129ffde0 	mov	w0, #0xffff0010            	// #-65520
    2074:	7a4012a4 	ccmp	w21, w0, #0x4, ne  // ne = any
    2078:	54000060 	b.eq	2084 <TEE_GetOperationInfoMultiple+0xcc>  // b.none
/home/zliu/ubuntu-optee-rpi3/RPi3_OPTEE_3.1/optee_os/lib/libutee/tee_api_operations.c:489
    207c:	2a1503e0 	mov	w0, w21
    2080:	940006a5 	bl	3b14 <TEE_Panic>
/home/zliu/ubuntu-optee-rpi3/RPi3_OPTEE_3.1/optee_os/lib/libutee/tee_api_operations.c:492
    2084:	2a1503e0 	mov	w0, w21
    2088:	a94153f3 	ldp	x19, x20, [sp, #16]
    208c:	a9425bf5 	ldp	x21, x22, [sp, #32]
    2090:	a8c77bfd 	ldp	x29, x30, [sp], #112
    2094:	d65f03c0 	ret
/home/zliu/ubuntu-optee-rpi3/RPi3_OPTEE_3.1/optee_os/lib/libutee/tee_api_operations.c:442 (discriminator 3)
    2098:	29007c1f 	stp	wzr, wzr, [x0]
/home/zliu/ubuntu-optee-rpi3/RPi3_OPTEE_3.1/optee_os/lib/libutee/tee_api_operations.c:440 (discriminator 3)
    209c:	91000421 	add	x1, x1, #0x1
    20a0:	91002000 	add	x0, x0, #0x8
    20a4:	17ffffdd 	b	2018 <TEE_GetOperationInfoMultiple+0x60>
/home/zliu/ubuntu-optee-rpi3/RPi3_OPTEE_3.1/optee_os/lib/libutee/tee_api_operations.c:457
    20a8:	35fffd36 	cbnz	w22, 204c <TEE_GetOperationInfoMultiple+0x94>
/home/zliu/ubuntu-optee-rpi3/RPi3_OPTEE_3.1/optee_os/lib/libutee/tee_api_operations.c:477
    20ac:	b9400280 	ldr	w0, [x20]
/home/zliu/ubuntu-optee-rpi3/RPi3_OPTEE_3.1/optee_os/lib/libutee/tee_api_operations.c:484
    20b0:	52800015 	mov	w21, #0x0                   	// #0
/home/zliu/ubuntu-optee-rpi3/RPi3_OPTEE_3.1/optee_os/lib/libutee/tee_api_operations.c:477
    20b4:	b9000260 	str	w0, [x19]
/home/zliu/ubuntu-optee-rpi3/RPi3_OPTEE_3.1/optee_os/lib/libutee/tee_api_operations.c:478
    20b8:	b9400680 	ldr	w0, [x20, #4]
    20bc:	b9000660 	str	w0, [x19, #4]
/home/zliu/ubuntu-optee-rpi3/RPi3_OPTEE_3.1/optee_os/lib/libutee/tee_api_operations.c:479
    20c0:	b9400a80 	ldr	w0, [x20, #8]
    20c4:	b9000a60 	str	w0, [x19, #8]
/home/zliu/ubuntu-optee-rpi3/RPi3_OPTEE_3.1/optee_os/lib/libutee/tee_api_operations.c:480
    20c8:	b9400e80 	ldr	w0, [x20, #12]
    20cc:	b9000e60 	str	w0, [x19, #12]
/home/zliu/ubuntu-optee-rpi3/RPi3_OPTEE_3.1/optee_os/lib/libutee/tee_api_operations.c:481
    20d0:	b9401280 	ldr	w0, [x20, #16]
    20d4:	b9001260 	str	w0, [x19, #16]
/home/zliu/ubuntu-optee-rpi3/RPi3_OPTEE_3.1/optee_os/lib/libutee/tee_api_operations.c:482
    20d8:	b9401e80 	ldr	w0, [x20, #28]
    20dc:	b9001660 	str	w0, [x19, #20]
/home/zliu/ubuntu-optee-rpi3/RPi3_OPTEE_3.1/optee_os/lib/libutee/tee_api_operations.c:483
    20e0:	b9403280 	ldr	w0, [x20, #48]
/home/zliu/ubuntu-optee-rpi3/RPi3_OPTEE_3.1/optee_os/lib/libutee/tee_api_operations.c:484
    20e4:	29035a60 	stp	w0, w22, [x19, #24]
    20e8:	17ffffe1 	b	206c <TEE_GetOperationInfoMultiple+0xb4>
/home/zliu/ubuntu-optee-rpi3/RPi3_OPTEE_3.1/optee_os/lib/libutee/tee_api_operations.c:470
    20ec:	b94037a0 	ldr	w0, [x29, #52]
    20f0:	b9002260 	str	w0, [x19, #32]
/home/zliu/ubuntu-optee-rpi3/RPi3_OPTEE_3.1/optee_os/lib/libutee/tee_api_operations.c:472
    20f4:	b9401a80 	ldr	w0, [x20, #24]
    20f8:	b9002660 	str	w0, [x19, #36]
    20fc:	17ffffec 	b	20ac <TEE_GetOperationInfoMultiple+0xf4>

0000000000002100 <TEE_ResetOperation>:
TEE_ResetOperation():
/home/zliu/ubuntu-optee-rpi3/RPi3_OPTEE_3.1/optee_os/lib/libutee/tee_api_operations.c:495
    2100:	a9be7bfd 	stp	x29, x30, [sp, #-32]!
    2104:	910003fd 	mov	x29, sp
    2108:	f9000bf3 	str	x19, [sp, #16]
    210c:	aa0003f3 	mov	x19, x0
/home/zliu/ubuntu-optee-rpi3/RPi3_OPTEE_3.1/optee_os/lib/libutee/tee_api_operations.c:498
    2110:	b5000060 	cbnz	x0, 211c <TEE_ResetOperation+0x1c>
/home/zliu/ubuntu-optee-rpi3/RPi3_OPTEE_3.1/optee_os/lib/libutee/tee_api_operations.c:499
    2114:	52800000 	mov	w0, #0x0                   	// #0
    2118:	9400067f 	bl	3b14 <TEE_Panic>
/home/zliu/ubuntu-optee-rpi3/RPi3_OPTEE_3.1/optee_os/lib/libutee/tee_api_operations.c:501
    211c:	b9401e60 	ldr	w0, [x19, #28]
    2120:	37900060 	tbnz	w0, #18, 212c <TEE_ResetOperation+0x2c>
/home/zliu/ubuntu-optee-rpi3/RPi3_OPTEE_3.1/optee_os/lib/libutee/tee_api_operations.c:502
    2124:	52800000 	mov	w0, #0x0                   	// #0
    2128:	9400067b 	bl	3b14 <TEE_Panic>
/home/zliu/ubuntu-optee-rpi3/RPi3_OPTEE_3.1/optee_os/lib/libutee/tee_api_operations.c:506
    212c:	b9400660 	ldr	w0, [x19, #4]
/home/zliu/ubuntu-optee-rpi3/RPi3_OPTEE_3.1/optee_os/lib/libutee/tee_api_operations.c:504
    2130:	b900327f 	str	wzr, [x19, #48]
/home/zliu/ubuntu-optee-rpi3/RPi3_OPTEE_3.1/optee_os/lib/libutee/tee_api_operations.c:506
    2134:	7100141f 	cmp	w0, #0x5
    2138:	540001a1 	b.ne	216c <TEE_ResetOperation+0x6c>  // b.any
/home/zliu/ubuntu-optee-rpi3/RPi3_OPTEE_3.1/optee_os/lib/libutee/tee_api_operations.c:507
    213c:	b9405a60 	ldr	w0, [x19, #88]
    2140:	d2800002 	mov	x2, #0x0                   	// #0
    2144:	d2800001 	mov	x1, #0x0                   	// #0
    2148:	9400075c 	bl	3eb8 <utee_hash_init>
/home/zliu/ubuntu-optee-rpi3/RPi3_OPTEE_3.1/optee_os/lib/libutee/tee_api_operations.c:508
    214c:	34000040 	cbz	w0, 2154 <TEE_ResetOperation+0x54>
/home/zliu/ubuntu-optee-rpi3/RPi3_OPTEE_3.1/optee_os/lib/libutee/tee_api_operations.c:509
    2150:	94000671 	bl	3b14 <TEE_Panic>
/home/zliu/ubuntu-optee-rpi3/RPi3_OPTEE_3.1/optee_os/lib/libutee/tee_api_operations.c:510
    2154:	b9401e60 	ldr	w0, [x19, #28]
    2158:	320f0000 	orr	w0, w0, #0x20000
/home/zliu/ubuntu-optee-rpi3/RPi3_OPTEE_3.1/optee_os/lib/libutee/tee_api_operations.c:512
    215c:	b9001e60 	str	w0, [x19, #28]
/home/zliu/ubuntu-optee-rpi3/RPi3_OPTEE_3.1/optee_os/lib/libutee/tee_api_operations.c:514
    2160:	f9400bf3 	ldr	x19, [sp, #16]
    2164:	a8c27bfd 	ldp	x29, x30, [sp], #32
    2168:	d65f03c0 	ret
/home/zliu/ubuntu-optee-rpi3/RPi3_OPTEE_3.1/optee_os/lib/libutee/tee_api_operations.c:512
    216c:	b9401e60 	ldr	w0, [x19, #28]
    2170:	120e7800 	and	w0, w0, #0xfffdffff
    2174:	17fffffa 	b	215c <TEE_ResetOperation+0x5c>

0000000000002178 <TEE_SetOperationKey>:
TEE_SetOperationKey():
/home/zliu/ubuntu-optee-rpi3/RPi3_OPTEE_3.1/optee_os/lib/libutee/tee_api_operations.c:518
    2178:	a9bb7bfd 	stp	x29, x30, [sp, #-80]!
    217c:	910003fd 	mov	x29, sp
    2180:	a90153f3 	stp	x19, x20, [sp, #16]
    2184:	a9025bf5 	stp	x21, x22, [sp, #32]
/home/zliu/ubuntu-optee-rpi3/RPi3_OPTEE_3.1/optee_os/lib/libutee/tee_api_operations.c:523
    2188:	b50001e0 	cbnz	x0, 21c4 <TEE_SetOperationKey+0x4c>
/home/zliu/ubuntu-optee-rpi3/RPi3_OPTEE_3.1/optee_os/lib/libutee/tee_api_operations.c:536
    218c:	129fff34 	mov	w20, #0xffff0006            	// #-65530
/home/zliu/ubuntu-optee-rpi3/RPi3_OPTEE_3.1/optee_os/lib/libutee/tee_api_operations.c:585
    2190:	121e7a80 	and	w0, w20, #0xfffffffd
    2194:	7100029f 	cmp	w20, #0x0
    2198:	52800021 	mov	w1, #0x1                   	// #1
    219c:	72be0201 	movk	w1, #0xf010, lsl #16
    21a0:	7a411004 	ccmp	w0, w1, #0x4, ne  // ne = any
    21a4:	54000060 	b.eq	21b0 <TEE_SetOperationKey+0x38>  // b.none
/home/zliu/ubuntu-optee-rpi3/RPi3_OPTEE_3.1/optee_os/lib/libutee/tee_api_operations.c:587
    21a8:	2a1403e0 	mov	w0, w20
    21ac:	9400065a 	bl	3b14 <TEE_Panic>
/home/zliu/ubuntu-optee-rpi3/RPi3_OPTEE_3.1/optee_os/lib/libutee/tee_api_operations.c:590
    21b0:	2a1403e0 	mov	w0, w20
    21b4:	a94153f3 	ldp	x19, x20, [sp, #16]
    21b8:	a9425bf5 	ldp	x21, x22, [sp, #32]
    21bc:	a8c57bfd 	ldp	x29, x30, [sp], #80
    21c0:	d65f03c0 	ret
    21c4:	aa0003f3 	mov	x19, x0
/home/zliu/ubuntu-optee-rpi3/RPi3_OPTEE_3.1/optee_os/lib/libutee/tee_api_operations.c:528
    21c8:	b9403000 	ldr	w0, [x0, #48]
    21cc:	35fffe00 	cbnz	w0, 218c <TEE_SetOperationKey+0x14>
    21d0:	aa0103f5 	mov	x21, x1
/home/zliu/ubuntu-optee-rpi3/RPi3_OPTEE_3.1/optee_os/lib/libutee/tee_api_operations.c:533
    21d4:	b5000081 	cbnz	x1, 21e4 <TEE_SetOperationKey+0x6c>
/home/zliu/ubuntu-optee-rpi3/RPi3_OPTEE_3.1/optee_os/lib/libutee/tee_api_operations.c:535
    21d8:	f9401260 	ldr	x0, [x19, #32]
    21dc:	97fffb0f 	bl	e18 <TEE_ResetTransientObject>
    21e0:	17ffffeb 	b	218c <TEE_SetOperationKey+0x14>
/home/zliu/ubuntu-optee-rpi3/RPi3_OPTEE_3.1/optee_os/lib/libutee/tee_api_operations.c:541
    21e4:	b9400660 	ldr	w0, [x19, #4]
    21e8:	7100141f 	cmp	w0, #0x5
    21ec:	54fffd00 	b.eq	218c <TEE_SetOperationKey+0x14>  // b.none
/home/zliu/ubuntu-optee-rpi3/RPi3_OPTEE_3.1/optee_os/lib/libutee/tee_api_operations.c:547
    21f0:	b9401e60 	ldr	w0, [x19, #28]
    21f4:	379ffcc0 	tbnz	w0, #19, 218c <TEE_SetOperationKey+0x14>
/home/zliu/ubuntu-optee-rpi3/RPi3_OPTEE_3.1/optee_os/lib/libutee/tee_api_operations.c:553
    21f8:	9100c3a1 	add	x1, x29, #0x30
    21fc:	aa1503e0 	mov	x0, x21
    2200:	97fffa3a 	bl	ae8 <TEE_GetObjectInfo1>
    2204:	2a0003f4 	mov	w20, w0
/home/zliu/ubuntu-optee-rpi3/RPi3_OPTEE_3.1/optee_os/lib/libutee/tee_api_operations.c:555
    2208:	35fffc40 	cbnz	w0, 2190 <TEE_SetOperationKey+0x18>
/home/zliu/ubuntu-optee-rpi3/RPi3_OPTEE_3.1/optee_os/lib/libutee/tee_api_operations.c:559
    220c:	b9401a60 	ldr	w0, [x19, #24]
    2210:	b9403fa1 	ldr	w1, [x29, #60]
    2214:	6a21001f 	bics	wzr, w0, w1
    2218:	54fffba1 	b.ne	218c <TEE_SetOperationKey+0x14>  // b.any
/home/zliu/ubuntu-optee-rpi3/RPi3_OPTEE_3.1/optee_os/lib/libutee/tee_api_operations.c:565
    221c:	b9401260 	ldr	w0, [x19, #16]
    2220:	b94037b6 	ldr	w22, [x29, #52]
    2224:	6b16001f 	cmp	w0, w22
    2228:	54fffb23 	b.cc	218c <TEE_SetOperationKey+0x14>  // b.lo, b.ul, b.last
/home/zliu/ubuntu-optee-rpi3/RPi3_OPTEE_3.1/optee_os/lib/libutee/tee_api_operations.c:572
    222c:	f9401260 	ldr	x0, [x19, #32]
    2230:	97fffafa 	bl	e18 <TEE_ResetTransientObject>
/home/zliu/ubuntu-optee-rpi3/RPi3_OPTEE_3.1/optee_os/lib/libutee/tee_api_operations.c:573
    2234:	b9401e60 	ldr	w0, [x19, #28]
/home/zliu/ubuntu-optee-rpi3/RPi3_OPTEE_3.1/optee_os/lib/libutee/tee_api_operations.c:575
    2238:	aa1503e1 	mov	x1, x21
/home/zliu/ubuntu-optee-rpi3/RPi3_OPTEE_3.1/optee_os/lib/libutee/tee_api_operations.c:573
    223c:	120d7800 	and	w0, w0, #0xfffbffff
    2240:	b9001e60 	str	w0, [x19, #28]
/home/zliu/ubuntu-optee-rpi3/RPi3_OPTEE_3.1/optee_os/lib/libutee/tee_api_operations.c:575
    2244:	f9401260 	ldr	x0, [x19, #32]
    2248:	97fffb62 	bl	fd0 <TEE_CopyObjectAttributes1>
    224c:	2a0003f4 	mov	w20, w0
/home/zliu/ubuntu-optee-rpi3/RPi3_OPTEE_3.1/optee_os/lib/libutee/tee_api_operations.c:576
    2250:	35fffa00 	cbnz	w0, 2190 <TEE_SetOperationKey+0x18>
/home/zliu/ubuntu-optee-rpi3/RPi3_OPTEE_3.1/optee_os/lib/libutee/tee_api_operations.c:579
    2254:	b9401e60 	ldr	w0, [x19, #28]
/home/zliu/ubuntu-optee-rpi3/RPi3_OPTEE_3.1/optee_os/lib/libutee/tee_api_operations.c:581
    2258:	b9001676 	str	w22, [x19, #20]
/home/zliu/ubuntu-optee-rpi3/RPi3_OPTEE_3.1/optee_os/lib/libutee/tee_api_operations.c:579
    225c:	320e0000 	orr	w0, w0, #0x40000
    2260:	b9001e60 	str	w0, [x19, #28]
    2264:	17ffffcb 	b	2190 <TEE_SetOperationKey+0x18>

0000000000002268 <TEE_SetOperationKey2>:
TEE_SetOperationKey2():
/home/zliu/ubuntu-optee-rpi3/RPi3_OPTEE_3.1/optee_os/lib/libutee/tee_api_operations.c:594
    2268:	a9b87bfd 	stp	x29, x30, [sp, #-128]!
    226c:	910003fd 	mov	x29, sp
    2270:	a90153f3 	stp	x19, x20, [sp, #16]
    2274:	a9025bf5 	stp	x21, x22, [sp, #32]
    2278:	f9001bf7 	str	x23, [sp, #48]
/home/zliu/ubuntu-optee-rpi3/RPi3_OPTEE_3.1/optee_os/lib/libutee/tee_api_operations.c:600
    227c:	b50001e0 	cbnz	x0, 22b8 <TEE_SetOperationKey2+0x50>
/home/zliu/ubuntu-optee-rpi3/RPi3_OPTEE_3.1/optee_os/lib/libutee/tee_api_operations.c:621
    2280:	129fff34 	mov	w20, #0xffff0006            	// #-65530
/home/zliu/ubuntu-optee-rpi3/RPi3_OPTEE_3.1/optee_os/lib/libutee/tee_api_operations.c:708
    2284:	12be0200 	mov	w0, #0xfefffff             	// #267386879
/home/zliu/ubuntu-optee-rpi3/RPi3_OPTEE_3.1/optee_os/lib/libutee/tee_api_operations.c:707
    2288:	7100029f 	cmp	w20, #0x0
/home/zliu/ubuntu-optee-rpi3/RPi3_OPTEE_3.1/optee_os/lib/libutee/tee_api_operations.c:708
    228c:	0b000280 	add	w0, w20, w0
/home/zliu/ubuntu-optee-rpi3/RPi3_OPTEE_3.1/optee_os/lib/libutee/tee_api_operations.c:707
    2290:	7a431800 	ccmp	w0, #0x3, #0x0, ne  // ne = any
    2294:	54000069 	b.ls	22a0 <TEE_SetOperationKey2+0x38>  // b.plast
/home/zliu/ubuntu-optee-rpi3/RPi3_OPTEE_3.1/optee_os/lib/libutee/tee_api_operations.c:712
    2298:	2a1403e0 	mov	w0, w20
    229c:	9400061e 	bl	3b14 <TEE_Panic>
/home/zliu/ubuntu-optee-rpi3/RPi3_OPTEE_3.1/optee_os/lib/libutee/tee_api_operations.c:715
    22a0:	2a1403e0 	mov	w0, w20
    22a4:	f9401bf7 	ldr	x23, [sp, #48]
    22a8:	a94153f3 	ldp	x19, x20, [sp, #16]
    22ac:	a9425bf5 	ldp	x21, x22, [sp, #32]
    22b0:	a8c87bfd 	ldp	x29, x30, [sp], #128
    22b4:	d65f03c0 	ret
    22b8:	aa0003f3 	mov	x19, x0
/home/zliu/ubuntu-optee-rpi3/RPi3_OPTEE_3.1/optee_os/lib/libutee/tee_api_operations.c:605
    22bc:	b9403000 	ldr	w0, [x0, #48]
    22c0:	35fffe00 	cbnz	w0, 2280 <TEE_SetOperationKey2+0x18>
/home/zliu/ubuntu-optee-rpi3/RPi3_OPTEE_3.1/optee_os/lib/libutee/tee_api_operations.c:614
    22c4:	f100003f 	cmp	x1, #0x0
    22c8:	aa0103f6 	mov	x22, x1
    22cc:	aa0203f5 	mov	x21, x2
    22d0:	fa401844 	ccmp	x2, #0x0, #0x4, ne  // ne = any
    22d4:	54000121 	b.ne	22f8 <TEE_SetOperationKey2+0x90>  // b.any
/home/zliu/ubuntu-optee-rpi3/RPi3_OPTEE_3.1/optee_os/lib/libutee/tee_api_operations.c:616
    22d8:	b4000081 	cbz	x1, 22e8 <TEE_SetOperationKey2+0x80>
/home/zliu/ubuntu-optee-rpi3/RPi3_OPTEE_3.1/optee_os/lib/libutee/tee_api_operations.c:620
    22dc:	f9401660 	ldr	x0, [x19, #40]
    22e0:	97ffface 	bl	e18 <TEE_ResetTransientObject>
    22e4:	17ffffe7 	b	2280 <TEE_SetOperationKey2+0x18>
/home/zliu/ubuntu-optee-rpi3/RPi3_OPTEE_3.1/optee_os/lib/libutee/tee_api_operations.c:617
    22e8:	f9401260 	ldr	x0, [x19, #32]
    22ec:	97fffacb 	bl	e18 <TEE_ResetTransientObject>
/home/zliu/ubuntu-optee-rpi3/RPi3_OPTEE_3.1/optee_os/lib/libutee/tee_api_operations.c:619
    22f0:	b5fffc95 	cbnz	x21, 2280 <TEE_SetOperationKey2+0x18>
    22f4:	17fffffa 	b	22dc <TEE_SetOperationKey2+0x74>
/home/zliu/ubuntu-optee-rpi3/RPi3_OPTEE_3.1/optee_os/lib/libutee/tee_api_operations.c:626
    22f8:	b9400660 	ldr	w0, [x19, #4]
    22fc:	7100141f 	cmp	w0, #0x5
    2300:	54fffc00 	b.eq	2280 <TEE_SetOperationKey2+0x18>  // b.none
/home/zliu/ubuntu-optee-rpi3/RPi3_OPTEE_3.1/optee_os/lib/libutee/tee_api_operations.c:632
    2304:	b9401e60 	ldr	w0, [x19, #28]
    2308:	369ffbc0 	tbz	w0, #19, 2280 <TEE_SetOperationKey2+0x18>
/home/zliu/ubuntu-optee-rpi3/RPi3_OPTEE_3.1/optee_os/lib/libutee/tee_api_operations.c:638
    230c:	910103a1 	add	x1, x29, #0x40
    2310:	aa1603e0 	mov	x0, x22
    2314:	97fff9f5 	bl	ae8 <TEE_GetObjectInfo1>
    2318:	2a0003f4 	mov	w20, w0
/home/zliu/ubuntu-optee-rpi3/RPi3_OPTEE_3.1/optee_os/lib/libutee/tee_api_operations.c:640
    231c:	35fffb40 	cbnz	w0, 2284 <TEE_SetOperationKey2+0x1c>
/home/zliu/ubuntu-optee-rpi3/RPi3_OPTEE_3.1/optee_os/lib/libutee/tee_api_operations.c:644
    2320:	b9401a60 	ldr	w0, [x19, #24]
    2324:	b9404fa1 	ldr	w1, [x29, #76]
    2328:	6a21001f 	bics	wzr, w0, w1
    232c:	54fffaa1 	b.ne	2280 <TEE_SetOperationKey2+0x18>  // b.any
/home/zliu/ubuntu-optee-rpi3/RPi3_OPTEE_3.1/optee_os/lib/libutee/tee_api_operations.c:650
    2330:	910183a1 	add	x1, x29, #0x60
    2334:	aa1503e0 	mov	x0, x21
    2338:	97fff9ec 	bl	ae8 <TEE_GetObjectInfo1>
    233c:	2a0003f4 	mov	w20, w0
/home/zliu/ubuntu-optee-rpi3/RPi3_OPTEE_3.1/optee_os/lib/libutee/tee_api_operations.c:652
    2340:	34000100 	cbz	w0, 2360 <TEE_SetOperationKey2+0xf8>
/home/zliu/ubuntu-optee-rpi3/RPi3_OPTEE_3.1/optee_os/lib/libutee/tee_api_operations.c:653
    2344:	52800020 	mov	w0, #0x1                   	// #1
    2348:	72be0200 	movk	w0, #0xf010, lsl #16
    234c:	6b00029f 	cmp	w20, w0
    2350:	54fff9a1 	b.ne	2284 <TEE_SetOperationKey2+0x1c>  // b.any
/home/zliu/ubuntu-optee-rpi3/RPi3_OPTEE_3.1/optee_os/lib/libutee/tee_api_operations.c:654
    2354:	52800054 	mov	w20, #0x2                   	// #2
    2358:	72be0214 	movk	w20, #0xf010, lsl #16
    235c:	17ffffca 	b	2284 <TEE_SetOperationKey2+0x1c>
/home/zliu/ubuntu-optee-rpi3/RPi3_OPTEE_3.1/optee_os/lib/libutee/tee_api_operations.c:659
    2360:	b9401a60 	ldr	w0, [x19, #24]
    2364:	b9406fa1 	ldr	w1, [x29, #108]
    2368:	6a21001f 	bics	wzr, w0, w1
    236c:	54fff8a1 	b.ne	2280 <TEE_SetOperationKey2+0x18>  // b.any
/home/zliu/ubuntu-optee-rpi3/RPi3_OPTEE_3.1/optee_os/lib/libutee/tee_api_operations.c:669
    2370:	b9400261 	ldr	w1, [x19]
    2374:	52808200 	mov	w0, #0x410                 	// #1040
    2378:	72a20000 	movk	w0, #0x1000, lsl #16
    237c:	b94047b7 	ldr	w23, [x29, #68]
    2380:	6b00003f 	cmp	w1, w0
    2384:	54000081 	b.ne	2394 <TEE_SetOperationKey2+0x12c>  // b.any
/home/zliu/ubuntu-optee-rpi3/RPi3_OPTEE_3.1/optee_os/lib/libutee/tee_api_operations.c:669 (discriminator 1)
    2388:	b94067a0 	ldr	w0, [x29, #100]
    238c:	6b0002ff 	cmp	w23, w0
    2390:	54fff781 	b.ne	2280 <TEE_SetOperationKey2+0x18>  // b.any
/home/zliu/ubuntu-optee-rpi3/RPi3_OPTEE_3.1/optee_os/lib/libutee/tee_api_operations.c:676
    2394:	b9401260 	ldr	w0, [x19, #16]
    2398:	6b17001f 	cmp	w0, w23
    239c:	54fff723 	b.cc	2280 <TEE_SetOperationKey2+0x18>  // b.lo, b.ul, b.last
/home/zliu/ubuntu-optee-rpi3/RPi3_OPTEE_3.1/optee_os/lib/libutee/tee_api_operations.c:687
    23a0:	f9401260 	ldr	x0, [x19, #32]
    23a4:	97fffa9d 	bl	e18 <TEE_ResetTransientObject>
/home/zliu/ubuntu-optee-rpi3/RPi3_OPTEE_3.1/optee_os/lib/libutee/tee_api_operations.c:688
    23a8:	f9401660 	ldr	x0, [x19, #40]
    23ac:	97fffa9b 	bl	e18 <TEE_ResetTransientObject>
/home/zliu/ubuntu-optee-rpi3/RPi3_OPTEE_3.1/optee_os/lib/libutee/tee_api_operations.c:689
    23b0:	b9401e60 	ldr	w0, [x19, #28]
/home/zliu/ubuntu-optee-rpi3/RPi3_OPTEE_3.1/optee_os/lib/libutee/tee_api_operations.c:691
    23b4:	aa1603e1 	mov	x1, x22
/home/zliu/ubuntu-optee-rpi3/RPi3_OPTEE_3.1/optee_os/lib/libutee/tee_api_operations.c:689
    23b8:	120d7800 	and	w0, w0, #0xfffbffff
    23bc:	b9001e60 	str	w0, [x19, #28]
/home/zliu/ubuntu-optee-rpi3/RPi3_OPTEE_3.1/optee_os/lib/libutee/tee_api_operations.c:691
    23c0:	f9401260 	ldr	x0, [x19, #32]
    23c4:	97fffb03 	bl	fd0 <TEE_CopyObjectAttributes1>
    23c8:	2a0003f4 	mov	w20, w0
/home/zliu/ubuntu-optee-rpi3/RPi3_OPTEE_3.1/optee_os/lib/libutee/tee_api_operations.c:692
    23cc:	35fff5c0 	cbnz	w0, 2284 <TEE_SetOperationKey2+0x1c>
/home/zliu/ubuntu-optee-rpi3/RPi3_OPTEE_3.1/optee_os/lib/libutee/tee_api_operations.c:695
    23d0:	f9401660 	ldr	x0, [x19, #40]
    23d4:	aa1503e1 	mov	x1, x21
    23d8:	97fffafe 	bl	fd0 <TEE_CopyObjectAttributes1>
    23dc:	2a0003f4 	mov	w20, w0
/home/zliu/ubuntu-optee-rpi3/RPi3_OPTEE_3.1/optee_os/lib/libutee/tee_api_operations.c:696
    23e0:	35fffb20 	cbnz	w0, 2344 <TEE_SetOperationKey2+0xdc>
/home/zliu/ubuntu-optee-rpi3/RPi3_OPTEE_3.1/optee_os/lib/libutee/tee_api_operations.c:702
    23e4:	b9401e60 	ldr	w0, [x19, #28]
/home/zliu/ubuntu-optee-rpi3/RPi3_OPTEE_3.1/optee_os/lib/libutee/tee_api_operations.c:704
    23e8:	b9001677 	str	w23, [x19, #20]
/home/zliu/ubuntu-optee-rpi3/RPi3_OPTEE_3.1/optee_os/lib/libutee/tee_api_operations.c:702
    23ec:	320e0000 	orr	w0, w0, #0x40000
    23f0:	b9001e60 	str	w0, [x19, #28]
    23f4:	17ffffa4 	b	2284 <TEE_SetOperationKey2+0x1c>

00000000000023f8 <TEE_CopyOperation>:
TEE_CopyOperation():
/home/zliu/ubuntu-optee-rpi3/RPi3_OPTEE_3.1/optee_os/lib/libutee/tee_api_operations.c:718
    23f8:	a9be7bfd 	stp	x29, x30, [sp, #-32]!
/home/zliu/ubuntu-optee-rpi3/RPi3_OPTEE_3.1/optee_os/lib/libutee/tee_api_operations.c:721
    23fc:	f100001f 	cmp	x0, #0x0
    2400:	fa401824 	ccmp	x1, #0x0, #0x4, ne  // ne = any
/home/zliu/ubuntu-optee-rpi3/RPi3_OPTEE_3.1/optee_os/lib/libutee/tee_api_operations.c:718
    2404:	910003fd 	mov	x29, sp
    2408:	a90153f3 	stp	x19, x20, [sp, #16]
    240c:	aa0003f4 	mov	x20, x0
    2410:	aa0103f3 	mov	x19, x1
/home/zliu/ubuntu-optee-rpi3/RPi3_OPTEE_3.1/optee_os/lib/libutee/tee_api_operations.c:721
    2414:	54000061 	b.ne	2420 <TEE_CopyOperation+0x28>  // b.any
/home/zliu/ubuntu-optee-rpi3/RPi3_OPTEE_3.1/optee_os/lib/libutee/tee_api_operations.c:722
    2418:	52800000 	mov	w0, #0x0                   	// #0
    241c:	940005be 	bl	3b14 <TEE_Panic>
/home/zliu/ubuntu-optee-rpi3/RPi3_OPTEE_3.1/optee_os/lib/libutee/tee_api_operations.c:723
    2420:	b9400260 	ldr	w0, [x19]
    2424:	b9400281 	ldr	w1, [x20]
    2428:	6b00003f 	cmp	w1, w0
    242c:	54000060 	b.eq	2438 <TEE_CopyOperation+0x40>  // b.none
/home/zliu/ubuntu-optee-rpi3/RPi3_OPTEE_3.1/optee_os/lib/libutee/tee_api_operations.c:724
    2430:	52800000 	mov	w0, #0x0                   	// #0
    2434:	940005b8 	bl	3b14 <TEE_Panic>
/home/zliu/ubuntu-optee-rpi3/RPi3_OPTEE_3.1/optee_os/lib/libutee/tee_api_operations.c:725
    2438:	b9400660 	ldr	w0, [x19, #4]
    243c:	7100141f 	cmp	w0, #0x5
    2440:	540000e0 	b.eq	245c <TEE_CopyOperation+0x64>  // b.none
/home/zliu/ubuntu-optee-rpi3/RPi3_OPTEE_3.1/optee_os/lib/libutee/tee_api_operations.c:729
    2444:	b9401e60 	ldr	w0, [x19, #28]
    2448:	369004e0 	tbz	w0, #18, 24e4 <TEE_CopyOperation+0xec>
/home/zliu/ubuntu-optee-rpi3/RPi3_OPTEE_3.1/optee_os/lib/libutee/tee_api_operations.c:731
    244c:	a9420a61 	ldp	x1, x2, [x19, #32]
/home/zliu/ubuntu-optee-rpi3/RPi3_OPTEE_3.1/optee_os/lib/libutee/tee_api_operations.c:734
    2450:	37980500 	tbnz	w0, #19, 24f0 <TEE_CopyOperation+0xf8>
/home/zliu/ubuntu-optee-rpi3/RPi3_OPTEE_3.1/optee_os/lib/libutee/tee_api_operations.c:736
    2454:	aa1403e0 	mov	x0, x20
    2458:	97ffff48 	bl	2178 <TEE_SetOperationKey>
/home/zliu/ubuntu-optee-rpi3/RPi3_OPTEE_3.1/optee_os/lib/libutee/tee_api_operations.c:741
    245c:	b9401e60 	ldr	w0, [x19, #28]
    2460:	b9001e80 	str	w0, [x20, #28]
/home/zliu/ubuntu-optee-rpi3/RPi3_OPTEE_3.1/optee_os/lib/libutee/tee_api_operations.c:742
    2464:	b9401660 	ldr	w0, [x19, #20]
    2468:	b9001680 	str	w0, [x20, #20]
/home/zliu/ubuntu-optee-rpi3/RPi3_OPTEE_3.1/optee_os/lib/libutee/tee_api_operations.c:743
    246c:	b9403260 	ldr	w0, [x19, #48]
/home/zliu/ubuntu-optee-rpi3/RPi3_OPTEE_3.1/optee_os/lib/libutee/tee_api_operations.c:745
    2470:	39410281 	ldrb	w1, [x20, #64]
/home/zliu/ubuntu-optee-rpi3/RPi3_OPTEE_3.1/optee_os/lib/libutee/tee_api_operations.c:743
    2474:	b9003280 	str	w0, [x20, #48]
/home/zliu/ubuntu-optee-rpi3/RPi3_OPTEE_3.1/optee_os/lib/libutee/tee_api_operations.c:745
    2478:	39410260 	ldrb	w0, [x19, #64]
    247c:	6b00003f 	cmp	w1, w0
    2480:	540000a1 	b.ne	2494 <TEE_CopyOperation+0x9c>  // b.any
/home/zliu/ubuntu-optee-rpi3/RPi3_OPTEE_3.1/optee_os/lib/libutee/tee_api_operations.c:745 (discriminator 1)
    2484:	f9402660 	ldr	x0, [x19, #72]
    2488:	f9402681 	ldr	x1, [x20, #72]
    248c:	eb00003f 	cmp	x1, x0
    2490:	54000060 	b.eq	249c <TEE_CopyOperation+0xa4>  // b.none
/home/zliu/ubuntu-optee-rpi3/RPi3_OPTEE_3.1/optee_os/lib/libutee/tee_api_operations.c:747
    2494:	52800000 	mov	w0, #0x0                   	// #0
    2498:	9400059f 	bl	3b14 <TEE_Panic>
/home/zliu/ubuntu-optee-rpi3/RPi3_OPTEE_3.1/optee_os/lib/libutee/tee_api_operations.c:749
    249c:	f9401e81 	ldr	x1, [x20, #56]
    24a0:	f9401e60 	ldr	x0, [x19, #56]
    24a4:	b40002c1 	cbz	x1, 24fc <TEE_CopyOperation+0x104>
/home/zliu/ubuntu-optee-rpi3/RPi3_OPTEE_3.1/optee_os/lib/libutee/tee_api_operations.c:750
    24a8:	b5000040 	cbnz	x0, 24b0 <TEE_CopyOperation+0xb8>
/home/zliu/ubuntu-optee-rpi3/RPi3_OPTEE_3.1/optee_os/lib/libutee/tee_api_operations.c:751
    24ac:	9400059a 	bl	3b14 <TEE_Panic>
/home/zliu/ubuntu-optee-rpi3/RPi3_OPTEE_3.1/optee_os/lib/libutee/tee_api_operations.c:753
    24b0:	f9401e61 	ldr	x1, [x19, #56]
    24b4:	f9402a62 	ldr	x2, [x19, #80]
    24b8:	f9401e80 	ldr	x0, [x20, #56]
    24bc:	94000f14 	bl	610c <memcpy>
/home/zliu/ubuntu-optee-rpi3/RPi3_OPTEE_3.1/optee_os/lib/libutee/tee_api_operations.c:754
    24c0:	f9402a60 	ldr	x0, [x19, #80]
    24c4:	f9002a80 	str	x0, [x20, #80]
/home/zliu/ubuntu-optee-rpi3/RPi3_OPTEE_3.1/optee_os/lib/libutee/tee_api_operations.c:759
    24c8:	b9405a61 	ldr	w1, [x19, #88]
    24cc:	b9405a80 	ldr	w0, [x20, #88]
    24d0:	94000674 	bl	3ea0 <utee_cryp_state_copy>
/home/zliu/ubuntu-optee-rpi3/RPi3_OPTEE_3.1/optee_os/lib/libutee/tee_api_operations.c:760
    24d4:	340001c0 	cbz	w0, 250c <TEE_CopyOperation+0x114>
/home/zliu/ubuntu-optee-rpi3/RPi3_OPTEE_3.1/optee_os/lib/libutee/tee_api_operations.c:762
    24d8:	a94153f3 	ldp	x19, x20, [sp, #16]
    24dc:	a8c27bfd 	ldp	x29, x30, [sp], #32
/home/zliu/ubuntu-optee-rpi3/RPi3_OPTEE_3.1/optee_os/lib/libutee/tee_api_operations.c:761
    24e0:	1400058d 	b	3b14 <TEE_Panic>
/home/zliu/ubuntu-optee-rpi3/RPi3_OPTEE_3.1/optee_os/lib/libutee/tee_api_operations.c:727
    24e4:	d2800002 	mov	x2, #0x0                   	// #0
/home/zliu/ubuntu-optee-rpi3/RPi3_OPTEE_3.1/optee_os/lib/libutee/tee_api_operations.c:726
    24e8:	d2800001 	mov	x1, #0x0                   	// #0
    24ec:	17ffffd9 	b	2450 <TEE_CopyOperation+0x58>
/home/zliu/ubuntu-optee-rpi3/RPi3_OPTEE_3.1/optee_os/lib/libutee/tee_api_operations.c:738
    24f0:	aa1403e0 	mov	x0, x20
    24f4:	97ffff5d 	bl	2268 <TEE_SetOperationKey2>
    24f8:	17ffffd9 	b	245c <TEE_CopyOperation+0x64>
/home/zliu/ubuntu-optee-rpi3/RPi3_OPTEE_3.1/optee_os/lib/libutee/tee_api_operations.c:755
    24fc:	b4fffe60 	cbz	x0, 24c8 <TEE_CopyOperation+0xd0>
/home/zliu/ubuntu-optee-rpi3/RPi3_OPTEE_3.1/optee_os/lib/libutee/tee_api_operations.c:756
    2500:	52800000 	mov	w0, #0x0                   	// #0
    2504:	94000584 	bl	3b14 <TEE_Panic>
    2508:	17fffff0 	b	24c8 <TEE_CopyOperation+0xd0>
/home/zliu/ubuntu-optee-rpi3/RPi3_OPTEE_3.1/optee_os/lib/libutee/tee_api_operations.c:762
    250c:	a94153f3 	ldp	x19, x20, [sp, #16]
    2510:	a8c27bfd 	ldp	x29, x30, [sp], #32
    2514:	d65f03c0 	ret

0000000000002518 <TEE_DigestUpdate>:
TEE_DigestUpdate():
/home/zliu/ubuntu-optee-rpi3/RPi3_OPTEE_3.1/optee_os/lib/libutee/tee_api_operations.c:784
    2518:	a9bd7bfd 	stp	x29, x30, [sp, #-48]!
    251c:	910003fd 	mov	x29, sp
    2520:	a90153f3 	stp	x19, x20, [sp, #16]
    2524:	aa0003f3 	mov	x19, x0
    2528:	f90013f5 	str	x21, [sp, #32]
    252c:	aa0103f4 	mov	x20, x1
    2530:	2a0203f5 	mov	w21, w2
/home/zliu/ubuntu-optee-rpi3/RPi3_OPTEE_3.1/optee_os/lib/libutee/tee_api_operations.c:787
    2534:	b4000080 	cbz	x0, 2544 <TEE_DigestUpdate+0x2c>
/home/zliu/ubuntu-optee-rpi3/RPi3_OPTEE_3.1/optee_os/lib/libutee/tee_api_operations.c:787 (discriminator 1)
    2538:	b9400400 	ldr	w0, [x0, #4]
    253c:	7100141f 	cmp	w0, #0x5
    2540:	54000060 	b.eq	254c <TEE_DigestUpdate+0x34>  // b.none
/home/zliu/ubuntu-optee-rpi3/RPi3_OPTEE_3.1/optee_os/lib/libutee/tee_api_operations.c:789
    2544:	52800000 	mov	w0, #0x0                   	// #0
    2548:	94000573 	bl	3b14 <TEE_Panic>
/home/zliu/ubuntu-optee-rpi3/RPi3_OPTEE_3.1/optee_os/lib/libutee/tee_api_operations.c:791
    254c:	52800020 	mov	w0, #0x1                   	// #1
    2550:	b9003260 	str	w0, [x19, #48]
/home/zliu/ubuntu-optee-rpi3/RPi3_OPTEE_3.1/optee_os/lib/libutee/tee_api_operations.c:793
    2554:	b9405a60 	ldr	w0, [x19, #88]
    2558:	2a1503e2 	mov	w2, w21
    255c:	aa1403e1 	mov	x1, x20
    2560:	94000659 	bl	3ec4 <utee_hash_update>
/home/zliu/ubuntu-optee-rpi3/RPi3_OPTEE_3.1/optee_os/lib/libutee/tee_api_operations.c:794
    2564:	340000a0 	cbz	w0, 2578 <TEE_DigestUpdate+0x60>
/home/zliu/ubuntu-optee-rpi3/RPi3_OPTEE_3.1/optee_os/lib/libutee/tee_api_operations.c:796
    2568:	a94153f3 	ldp	x19, x20, [sp, #16]
    256c:	f94013f5 	ldr	x21, [sp, #32]
    2570:	a8c37bfd 	ldp	x29, x30, [sp], #48
/home/zliu/ubuntu-optee-rpi3/RPi3_OPTEE_3.1/optee_os/lib/libutee/tee_api_operations.c:795
    2574:	14000568 	b	3b14 <TEE_Panic>
/home/zliu/ubuntu-optee-rpi3/RPi3_OPTEE_3.1/optee_os/lib/libutee/tee_api_operations.c:796
    2578:	a94153f3 	ldp	x19, x20, [sp, #16]
    257c:	f94013f5 	ldr	x21, [sp, #32]
    2580:	a8c37bfd 	ldp	x29, x30, [sp], #48
    2584:	d65f03c0 	ret

0000000000002588 <TEE_DigestDoFinal>:
TEE_DigestDoFinal():
/home/zliu/ubuntu-optee-rpi3/RPi3_OPTEE_3.1/optee_os/lib/libutee/tee_api_operations.c:800
    2588:	a9bc7bfd 	stp	x29, x30, [sp, #-64]!
    258c:	910003fd 	mov	x29, sp
    2590:	a90153f3 	stp	x19, x20, [sp, #16]
    2594:	aa0003f3 	mov	x19, x0
    2598:	f90013f5 	str	x21, [sp, #32]
/home/zliu/ubuntu-optee-rpi3/RPi3_OPTEE_3.1/optee_os/lib/libutee/tee_api_operations.c:809
    259c:	129fff34 	mov	w20, #0xffff0006            	// #-65530
/home/zliu/ubuntu-optee-rpi3/RPi3_OPTEE_3.1/optee_os/lib/libutee/tee_api_operations.c:804
    25a0:	b4000400 	cbz	x0, 2620 <TEE_DigestDoFinal+0x98>
/home/zliu/ubuntu-optee-rpi3/RPi3_OPTEE_3.1/optee_os/lib/libutee/tee_api_operations.c:805 (discriminator 1)
    25a4:	f100003f 	cmp	x1, #0x0
/home/zliu/ubuntu-optee-rpi3/RPi3_OPTEE_3.1/optee_os/lib/libutee/tee_api_operations.c:804 (discriminator 1)
    25a8:	7a400844 	ccmp	w2, #0x0, #0x4, eq  // eq = none
    25ac:	540003a1 	b.ne	2620 <TEE_DigestDoFinal+0x98>  // b.any
/home/zliu/ubuntu-optee-rpi3/RPi3_OPTEE_3.1/optee_os/lib/libutee/tee_api_operations.c:806
    25b0:	f100007f 	cmp	x3, #0x0
    25b4:	aa0403f5 	mov	x21, x4
    25b8:	fa401884 	ccmp	x4, #0x0, #0x4, ne  // ne = any
    25bc:	54000320 	b.eq	2620 <TEE_DigestDoFinal+0x98>  // b.none
/home/zliu/ubuntu-optee-rpi3/RPi3_OPTEE_3.1/optee_os/lib/libutee/tee_api_operations.c:807
    25c0:	b9400660 	ldr	w0, [x19, #4]
    25c4:	7100141f 	cmp	w0, #0x5
    25c8:	540002c1 	b.ne	2620 <TEE_DigestDoFinal+0x98>  // b.any
/home/zliu/ubuntu-optee-rpi3/RPi3_OPTEE_3.1/optee_os/lib/libutee/tee_api_operations.c:813
    25cc:	910103a4 	add	x4, x29, #0x40
    25d0:	b94002a0 	ldr	w0, [x21]
/home/zliu/ubuntu-optee-rpi3/RPi3_OPTEE_3.1/optee_os/lib/libutee/tee_api_operations.c:814
    25d4:	2a0203e2 	mov	w2, w2
/home/zliu/ubuntu-optee-rpi3/RPi3_OPTEE_3.1/optee_os/lib/libutee/tee_api_operations.c:813
    25d8:	f81f8c80 	str	x0, [x4, #-8]!
/home/zliu/ubuntu-optee-rpi3/RPi3_OPTEE_3.1/optee_os/lib/libutee/tee_api_operations.c:814
    25dc:	b9405a60 	ldr	w0, [x19, #88]
    25e0:	9400063c 	bl	3ed0 <utee_hash_final>
    25e4:	2a0003f4 	mov	w20, w0
/home/zliu/ubuntu-optee-rpi3/RPi3_OPTEE_3.1/optee_os/lib/libutee/tee_api_operations.c:815
    25e8:	f9401fa0 	ldr	x0, [x29, #56]
    25ec:	b90002a0 	str	w0, [x21]
/home/zliu/ubuntu-optee-rpi3/RPi3_OPTEE_3.1/optee_os/lib/libutee/tee_api_operations.c:816
    25f0:	35000194 	cbnz	w20, 2620 <TEE_DigestDoFinal+0x98>
init_hash_operation():
/home/zliu/ubuntu-optee-rpi3/RPi3_OPTEE_3.1/optee_os/lib/libutee/tee_api_operations.c:775
    25f4:	b9405a60 	ldr	w0, [x19, #88]
    25f8:	d2800002 	mov	x2, #0x0                   	// #0
    25fc:	d2800001 	mov	x1, #0x0                   	// #0
    2600:	9400062e 	bl	3eb8 <utee_hash_init>
/home/zliu/ubuntu-optee-rpi3/RPi3_OPTEE_3.1/optee_os/lib/libutee/tee_api_operations.c:776
    2604:	34000040 	cbz	w0, 260c <TEE_DigestDoFinal+0x84>
/home/zliu/ubuntu-optee-rpi3/RPi3_OPTEE_3.1/optee_os/lib/libutee/tee_api_operations.c:777
    2608:	94000543 	bl	3b14 <TEE_Panic>
/home/zliu/ubuntu-optee-rpi3/RPi3_OPTEE_3.1/optee_os/lib/libutee/tee_api_operations.c:779
    260c:	b9401e60 	ldr	w0, [x19, #28]
TEE_DigestDoFinal():
/home/zliu/ubuntu-optee-rpi3/RPi3_OPTEE_3.1/optee_os/lib/libutee/tee_api_operations.c:822
    2610:	b900327f 	str	wzr, [x19, #48]
init_hash_operation():
/home/zliu/ubuntu-optee-rpi3/RPi3_OPTEE_3.1/optee_os/lib/libutee/tee_api_operations.c:779
    2614:	320f0000 	orr	w0, w0, #0x20000
/home/zliu/ubuntu-optee-rpi3/RPi3_OPTEE_3.1/optee_os/lib/libutee/tee_api_operations.c:778
    2618:	f9002a7f 	str	xzr, [x19, #80]
/home/zliu/ubuntu-optee-rpi3/RPi3_OPTEE_3.1/optee_os/lib/libutee/tee_api_operations.c:779
    261c:	b9001e60 	str	w0, [x19, #28]
TEE_DigestDoFinal():
/home/zliu/ubuntu-optee-rpi3/RPi3_OPTEE_3.1/optee_os/lib/libutee/tee_api_operations.c:825
    2620:	7100029f 	cmp	w20, #0x0
    2624:	129ffde0 	mov	w0, #0xffff0010            	// #-65520
    2628:	7a401284 	ccmp	w20, w0, #0x4, ne  // ne = any
    262c:	54000060 	b.eq	2638 <TEE_DigestDoFinal+0xb0>  // b.none
/home/zliu/ubuntu-optee-rpi3/RPi3_OPTEE_3.1/optee_os/lib/libutee/tee_api_operations.c:827
    2630:	2a1403e0 	mov	w0, w20
    2634:	94000538 	bl	3b14 <TEE_Panic>
/home/zliu/ubuntu-optee-rpi3/RPi3_OPTEE_3.1/optee_os/lib/libutee/tee_api_operations.c:830
    2638:	2a1403e0 	mov	w0, w20
    263c:	f94013f5 	ldr	x21, [sp, #32]
    2640:	a94153f3 	ldp	x19, x20, [sp, #16]
    2644:	a8c47bfd 	ldp	x29, x30, [sp], #64
    2648:	d65f03c0 	ret

000000000000264c <TEE_CipherInit>:
TEE_CipherInit():
/home/zliu/ubuntu-optee-rpi3/RPi3_OPTEE_3.1/optee_os/lib/libutee/tee_api_operations.c:836
    264c:	a9bd7bfd 	stp	x29, x30, [sp, #-48]!
    2650:	910003fd 	mov	x29, sp
    2654:	a90153f3 	stp	x19, x20, [sp, #16]
    2658:	aa0003f3 	mov	x19, x0
    265c:	f90013f5 	str	x21, [sp, #32]
    2660:	aa0103f4 	mov	x20, x1
    2664:	2a0203f5 	mov	w21, w2
/home/zliu/ubuntu-optee-rpi3/RPi3_OPTEE_3.1/optee_os/lib/libutee/tee_api_operations.c:839
    2668:	b5000060 	cbnz	x0, 2674 <TEE_CipherInit+0x28>
/home/zliu/ubuntu-optee-rpi3/RPi3_OPTEE_3.1/optee_os/lib/libutee/tee_api_operations.c:840
    266c:	52800000 	mov	w0, #0x0                   	// #0
    2670:	94000529 	bl	3b14 <TEE_Panic>
/home/zliu/ubuntu-optee-rpi3/RPi3_OPTEE_3.1/optee_os/lib/libutee/tee_api_operations.c:842
    2674:	b9400660 	ldr	w0, [x19, #4]
    2678:	7100041f 	cmp	w0, #0x1
    267c:	54000060 	b.eq	2688 <TEE_CipherInit+0x3c>  // b.none
/home/zliu/ubuntu-optee-rpi3/RPi3_OPTEE_3.1/optee_os/lib/libutee/tee_api_operations.c:843
    2680:	52800000 	mov	w0, #0x0                   	// #0
    2684:	94000524 	bl	3b14 <TEE_Panic>
/home/zliu/ubuntu-optee-rpi3/RPi3_OPTEE_3.1/optee_os/lib/libutee/tee_api_operations.c:845
    2688:	b9401e60 	ldr	w0, [x19, #28]
    268c:	36900060 	tbz	w0, #18, 2698 <TEE_CipherInit+0x4c>
/home/zliu/ubuntu-optee-rpi3/RPi3_OPTEE_3.1/optee_os/lib/libutee/tee_api_operations.c:845 (discriminator 1)
    2690:	f9401260 	ldr	x0, [x19, #32]
    2694:	b5000060 	cbnz	x0, 26a0 <TEE_CipherInit+0x54>
/home/zliu/ubuntu-optee-rpi3/RPi3_OPTEE_3.1/optee_os/lib/libutee/tee_api_operations.c:847
    2698:	52800000 	mov	w0, #0x0                   	// #0
    269c:	9400051e 	bl	3b14 <TEE_Panic>
/home/zliu/ubuntu-optee-rpi3/RPi3_OPTEE_3.1/optee_os/lib/libutee/tee_api_operations.c:849
    26a0:	b9403260 	ldr	w0, [x19, #48]
    26a4:	34000060 	cbz	w0, 26b0 <TEE_CipherInit+0x64>
/home/zliu/ubuntu-optee-rpi3/RPi3_OPTEE_3.1/optee_os/lib/libutee/tee_api_operations.c:850
    26a8:	aa1303e0 	mov	x0, x19
    26ac:	97fffe95 	bl	2100 <TEE_ResetOperation>
/home/zliu/ubuntu-optee-rpi3/RPi3_OPTEE_3.1/optee_os/lib/libutee/tee_api_operations.c:852
    26b0:	52800020 	mov	w0, #0x1                   	// #1
    26b4:	b9003260 	str	w0, [x19, #48]
/home/zliu/ubuntu-optee-rpi3/RPi3_OPTEE_3.1/optee_os/lib/libutee/tee_api_operations.c:854
    26b8:	b9405a60 	ldr	w0, [x19, #88]
    26bc:	2a1503e2 	mov	w2, w21
    26c0:	aa1403e1 	mov	x1, x20
    26c4:	94000606 	bl	3edc <utee_cipher_init>
/home/zliu/ubuntu-optee-rpi3/RPi3_OPTEE_3.1/optee_os/lib/libutee/tee_api_operations.c:855
    26c8:	34000040 	cbz	w0, 26d0 <TEE_CipherInit+0x84>
/home/zliu/ubuntu-optee-rpi3/RPi3_OPTEE_3.1/optee_os/lib/libutee/tee_api_operations.c:856
    26cc:	94000512 	bl	3b14 <TEE_Panic>
/home/zliu/ubuntu-optee-rpi3/RPi3_OPTEE_3.1/optee_os/lib/libutee/tee_api_operations.c:859
    26d0:	b9401e60 	ldr	w0, [x19, #28]
/home/zliu/ubuntu-optee-rpi3/RPi3_OPTEE_3.1/optee_os/lib/libutee/tee_api_operations.c:860
    26d4:	f94013f5 	ldr	x21, [sp, #32]
/home/zliu/ubuntu-optee-rpi3/RPi3_OPTEE_3.1/optee_os/lib/libutee/tee_api_operations.c:859
    26d8:	320f0000 	orr	w0, w0, #0x20000
/home/zliu/ubuntu-optee-rpi3/RPi3_OPTEE_3.1/optee_os/lib/libutee/tee_api_operations.c:858
    26dc:	f9002a7f 	str	xzr, [x19, #80]
/home/zliu/ubuntu-optee-rpi3/RPi3_OPTEE_3.1/optee_os/lib/libutee/tee_api_operations.c:859
    26e0:	b9001e60 	str	w0, [x19, #28]
/home/zliu/ubuntu-optee-rpi3/RPi3_OPTEE_3.1/optee_os/lib/libutee/tee_api_operations.c:860
    26e4:	a94153f3 	ldp	x19, x20, [sp, #16]
    26e8:	a8c37bfd 	ldp	x29, x30, [sp], #48
    26ec:	d65f03c0 	ret

00000000000026f0 <TEE_CipherUpdate>:
TEE_CipherUpdate():
/home/zliu/ubuntu-optee-rpi3/RPi3_OPTEE_3.1/optee_os/lib/libutee/tee_api_operations.c:962
    26f0:	a9bd7bfd 	stp	x29, x30, [sp, #-48]!
    26f4:	910003fd 	mov	x29, sp
    26f8:	a90153f3 	stp	x19, x20, [sp, #16]
/home/zliu/ubuntu-optee-rpi3/RPi3_OPTEE_3.1/optee_os/lib/libutee/tee_api_operations.c:971
    26fc:	129fff33 	mov	w19, #0xffff0006            	// #-65530
/home/zliu/ubuntu-optee-rpi3/RPi3_OPTEE_3.1/optee_os/lib/libutee/tee_api_operations.c:967
    2700:	b40003c0 	cbz	x0, 2778 <TEE_CipherUpdate+0x88>
/home/zliu/ubuntu-optee-rpi3/RPi3_OPTEE_3.1/optee_os/lib/libutee/tee_api_operations.c:968 (discriminator 1)
    2704:	f100003f 	cmp	x1, #0x0
    2708:	aa0403f4 	mov	x20, x4
    270c:	1a9f17e5 	cset	w5, eq  // eq = none
    2710:	7100005f 	cmp	w2, #0x0
    2714:	2a0203e6 	mov	w6, w2
    2718:	1a9f07e2 	cset	w2, ne  // ne = any
    271c:	f100029f 	cmp	x20, #0x0
    2720:	0a0200a4 	and	w4, w5, w2
    2724:	1a9f17e2 	cset	w2, eq  // eq = none
    2728:	2a040042 	orr	w2, w2, w4
    272c:	35000262 	cbnz	w2, 2778 <TEE_CipherUpdate+0x88>
/home/zliu/ubuntu-optee-rpi3/RPi3_OPTEE_3.1/optee_os/lib/libutee/tee_api_operations.c:969
    2730:	b5000063 	cbnz	x3, 273c <TEE_CipherUpdate+0x4c>
/home/zliu/ubuntu-optee-rpi3/RPi3_OPTEE_3.1/optee_os/lib/libutee/tee_api_operations.c:970
    2734:	b9400282 	ldr	w2, [x20]
    2738:	35000202 	cbnz	w2, 2778 <TEE_CipherUpdate+0x88>
/home/zliu/ubuntu-optee-rpi3/RPi3_OPTEE_3.1/optee_os/lib/libutee/tee_api_operations.c:975
    273c:	b9400402 	ldr	w2, [x0, #4]
/home/zliu/ubuntu-optee-rpi3/RPi3_OPTEE_3.1/optee_os/lib/libutee/tee_api_operations.c:971
    2740:	129fff33 	mov	w19, #0xffff0006            	// #-65530
/home/zliu/ubuntu-optee-rpi3/RPi3_OPTEE_3.1/optee_os/lib/libutee/tee_api_operations.c:975
    2744:	7100045f 	cmp	w2, #0x1
    2748:	54000181 	b.ne	2778 <TEE_CipherUpdate+0x88>  // b.any
/home/zliu/ubuntu-optee-rpi3/RPi3_OPTEE_3.1/optee_os/lib/libutee/tee_api_operations.c:980
    274c:	b9401c02 	ldr	w2, [x0, #28]
    2750:	36880142 	tbz	w2, #17, 2778 <TEE_CipherUpdate+0x88>
/home/zliu/ubuntu-optee-rpi3/RPi3_OPTEE_3.1/optee_os/lib/libutee/tee_api_operations.c:985
    2754:	b9403002 	ldr	w2, [x0, #48]
    2758:	7100045f 	cmp	w2, #0x1
    275c:	540000e1 	b.ne	2778 <TEE_CipherUpdate+0x88>  // b.any
/home/zliu/ubuntu-optee-rpi3/RPi3_OPTEE_3.1/optee_os/lib/libutee/tee_api_operations.c:990
    2760:	710000df 	cmp	w6, #0x0
    2764:	1a9f17e2 	cset	w2, eq  // eq = none
    2768:	6a0200bf 	tst	w5, w2
    276c:	540001a0 	b.eq	27a0 <TEE_CipherUpdate+0xb0>  // b.none
/home/zliu/ubuntu-optee-rpi3/RPi3_OPTEE_3.1/optee_os/lib/libutee/tee_api_operations.c:992
    2770:	52800013 	mov	w19, #0x0                   	// #0
/home/zliu/ubuntu-optee-rpi3/RPi3_OPTEE_3.1/optee_os/lib/libutee/tee_api_operations.c:991
    2774:	b900029f 	str	wzr, [x20]
/home/zliu/ubuntu-optee-rpi3/RPi3_OPTEE_3.1/optee_os/lib/libutee/tee_api_operations.c:1036
    2778:	7100027f 	cmp	w19, #0x0
    277c:	129ffde0 	mov	w0, #0xffff0010            	// #-65520
    2780:	7a401264 	ccmp	w19, w0, #0x4, ne  // ne = any
    2784:	54000060 	b.eq	2790 <TEE_CipherUpdate+0xa0>  // b.none
/home/zliu/ubuntu-optee-rpi3/RPi3_OPTEE_3.1/optee_os/lib/libutee/tee_api_operations.c:1038
    2788:	2a1303e0 	mov	w0, w19
    278c:	940004e2 	bl	3b14 <TEE_Panic>
/home/zliu/ubuntu-optee-rpi3/RPi3_OPTEE_3.1/optee_os/lib/libutee/tee_api_operations.c:1041
    2790:	2a1303e0 	mov	w0, w19
    2794:	a94153f3 	ldp	x19, x20, [sp, #16]
    2798:	a8c37bfd 	ldp	x29, x30, [sp], #48
    279c:	d65f03c0 	ret
/home/zliu/ubuntu-optee-rpi3/RPi3_OPTEE_3.1/optee_os/lib/libutee/tee_api_operations.c:997
    27a0:	f9402405 	ldr	x5, [x0, #72]
    27a4:	2a0603e2 	mov	w2, w6
/home/zliu/ubuntu-optee-rpi3/RPi3_OPTEE_3.1/optee_os/lib/libutee/tee_api_operations.c:1001
    27a8:	aa0203e4 	mov	x4, x2
/home/zliu/ubuntu-optee-rpi3/RPi3_OPTEE_3.1/optee_os/lib/libutee/tee_api_operations.c:997
    27ac:	f10004bf 	cmp	x5, #0x1
    27b0:	540000a9 	b.ls	27c4 <TEE_CipherUpdate+0xd4>  // b.plast
/home/zliu/ubuntu-optee-rpi3/RPi3_OPTEE_3.1/optee_os/lib/libutee/tee_api_operations.c:998
    27b4:	f9402804 	ldr	x4, [x0, #80]
    27b8:	8b040044 	add	x4, x2, x4
    27bc:	9ac50884 	udiv	x4, x4, x5
    27c0:	9b057c84 	mul	x4, x4, x5
/home/zliu/ubuntu-optee-rpi3/RPi3_OPTEE_3.1/optee_os/lib/libutee/tee_api_operations.c:1003
    27c4:	39410007 	ldrb	w7, [x0, #64]
    27c8:	340000a7 	cbz	w7, 27dc <TEE_CipherUpdate+0xec>
/home/zliu/ubuntu-optee-rpi3/RPi3_OPTEE_3.1/optee_os/lib/libutee/tee_api_operations.c:1004
    27cc:	d37ff8a7 	lsl	x7, x5, #1
/home/zliu/ubuntu-optee-rpi3/RPi3_OPTEE_3.1/optee_os/lib/libutee/tee_api_operations.c:1005
    27d0:	cb070088 	sub	x8, x4, x7
    27d4:	eb07009f 	cmp	x4, x7
    27d8:	9a9f8104 	csel	x4, x8, xzr, hi  // hi = pmore
/home/zliu/ubuntu-optee-rpi3/RPi3_OPTEE_3.1/optee_os/lib/libutee/tee_api_operations.c:1014
    27dc:	b9400287 	ldr	w7, [x20]
    27e0:	eb07009f 	cmp	x4, x7
    27e4:	54000089 	b.ls	27f4 <TEE_CipherUpdate+0x104>  // b.plast
/home/zliu/ubuntu-optee-rpi3/RPi3_OPTEE_3.1/optee_os/lib/libutee/tee_api_operations.c:1016
    27e8:	129ffdf3 	mov	w19, #0xffff0010            	// #-65520
/home/zliu/ubuntu-optee-rpi3/RPi3_OPTEE_3.1/optee_os/lib/libutee/tee_api_operations.c:1015
    27ec:	b9000284 	str	w4, [x20]
/home/zliu/ubuntu-optee-rpi3/RPi3_OPTEE_3.1/optee_os/lib/libutee/tee_api_operations.c:1017
    27f0:	17ffffe2 	b	2778 <TEE_CipherUpdate+0x88>
/home/zliu/ubuntu-optee-rpi3/RPi3_OPTEE_3.1/optee_os/lib/libutee/tee_api_operations.c:1020
    27f4:	f90017a7 	str	x7, [x29, #40]
/home/zliu/ubuntu-optee-rpi3/RPi3_OPTEE_3.1/optee_os/lib/libutee/tee_api_operations.c:1021
    27f8:	f10004bf 	cmp	x5, #0x1
    27fc:	54000189 	b.ls	282c <TEE_CipherUpdate+0x13c>  // b.plast
/home/zliu/ubuntu-optee-rpi3/RPi3_OPTEE_3.1/optee_os/lib/libutee/tee_api_operations.c:1022
    2800:	aa0303e4 	mov	x4, x3
    2804:	aa0203e3 	mov	x3, x2
    2808:	aa0103e2 	mov	x2, x1
    280c:	d0000041 	adrp	x1, c000 <__func__.3927+0x294>
    2810:	9100a3a5 	add	x5, x29, #0x28
    2814:	f9449421 	ldr	x1, [x1, #2344]
    2818:	94000438 	bl	38f8 <tee_buffer_update>
/home/zliu/ubuntu-optee-rpi3/RPi3_OPTEE_3.1/optee_os/lib/libutee/tee_api_operations.c:1026
    281c:	2a0003f3 	mov	w19, w0
/home/zliu/ubuntu-optee-rpi3/RPi3_OPTEE_3.1/optee_os/lib/libutee/tee_api_operations.c:1033
    2820:	f94017a0 	ldr	x0, [x29, #40]
    2824:	b9000280 	str	w0, [x20]
    2828:	17ffffd4 	b	2778 <TEE_CipherUpdate+0x88>
/home/zliu/ubuntu-optee-rpi3/RPi3_OPTEE_3.1/optee_os/lib/libutee/tee_api_operations.c:1025
    282c:	340000a6 	cbz	w6, 2840 <TEE_CipherUpdate+0x150>
/home/zliu/ubuntu-optee-rpi3/RPi3_OPTEE_3.1/optee_os/lib/libutee/tee_api_operations.c:1026
    2830:	b9405800 	ldr	w0, [x0, #88]
    2834:	9100a3a4 	add	x4, x29, #0x28
    2838:	940005ac 	bl	3ee8 <utee_cipher_update>
    283c:	17fffff8 	b	281c <TEE_CipherUpdate+0x12c>
/home/zliu/ubuntu-optee-rpi3/RPi3_OPTEE_3.1/optee_os/lib/libutee/tee_api_operations.c:1029
    2840:	52800013 	mov	w19, #0x0                   	// #0
/home/zliu/ubuntu-optee-rpi3/RPi3_OPTEE_3.1/optee_os/lib/libutee/tee_api_operations.c:1030
    2844:	f90017bf 	str	xzr, [x29, #40]
    2848:	17fffff6 	b	2820 <TEE_CipherUpdate+0x130>

000000000000284c <TEE_CipherDoFinal>:
TEE_CipherDoFinal():
/home/zliu/ubuntu-optee-rpi3/RPi3_OPTEE_3.1/optee_os/lib/libutee/tee_api_operations.c:1046
    284c:	a9bb7bfd 	stp	x29, x30, [sp, #-80]!
    2850:	910003fd 	mov	x29, sp
    2854:	a90153f3 	stp	x19, x20, [sp, #16]
/home/zliu/ubuntu-optee-rpi3/RPi3_OPTEE_3.1/optee_os/lib/libutee/tee_api_operations.c:1057
    2858:	129fff34 	mov	w20, #0xffff0006            	// #-65530
/home/zliu/ubuntu-optee-rpi3/RPi3_OPTEE_3.1/optee_os/lib/libutee/tee_api_operations.c:1046
    285c:	a9025bf5 	stp	x21, x22, [sp, #32]
    2860:	a90363f7 	stp	x23, x24, [sp, #48]
/home/zliu/ubuntu-optee-rpi3/RPi3_OPTEE_3.1/optee_os/lib/libutee/tee_api_operations.c:1053
    2864:	b40005e0 	cbz	x0, 2920 <TEE_CipherDoFinal+0xd4>
/home/zliu/ubuntu-optee-rpi3/RPi3_OPTEE_3.1/optee_os/lib/libutee/tee_api_operations.c:1054 (discriminator 1)
    2868:	f100003f 	cmp	x1, #0x0
    286c:	aa0403f5 	mov	x21, x4
    2870:	7a400844 	ccmp	w2, #0x0, #0x4, eq  // eq = none
    2874:	fa400884 	ccmp	x4, #0x0, #0x4, eq  // eq = none
    2878:	54000540 	b.eq	2920 <TEE_CipherDoFinal+0xd4>  // b.none
    287c:	aa0003f3 	mov	x19, x0
    2880:	aa0303f8 	mov	x24, x3
/home/zliu/ubuntu-optee-rpi3/RPi3_OPTEE_3.1/optee_os/lib/libutee/tee_api_operations.c:1055
    2884:	b5000063 	cbnz	x3, 2890 <TEE_CipherDoFinal+0x44>
/home/zliu/ubuntu-optee-rpi3/RPi3_OPTEE_3.1/optee_os/lib/libutee/tee_api_operations.c:1056
    2888:	b9400080 	ldr	w0, [x4]
    288c:	350004a0 	cbnz	w0, 2920 <TEE_CipherDoFinal+0xd4>
/home/zliu/ubuntu-optee-rpi3/RPi3_OPTEE_3.1/optee_os/lib/libutee/tee_api_operations.c:1061
    2890:	b9400660 	ldr	w0, [x19, #4]
/home/zliu/ubuntu-optee-rpi3/RPi3_OPTEE_3.1/optee_os/lib/libutee/tee_api_operations.c:1057
    2894:	129fff34 	mov	w20, #0xffff0006            	// #-65530
/home/zliu/ubuntu-optee-rpi3/RPi3_OPTEE_3.1/optee_os/lib/libutee/tee_api_operations.c:1061
    2898:	7100041f 	cmp	w0, #0x1
    289c:	54000421 	b.ne	2920 <TEE_CipherDoFinal+0xd4>  // b.any
/home/zliu/ubuntu-optee-rpi3/RPi3_OPTEE_3.1/optee_os/lib/libutee/tee_api_operations.c:1066
    28a0:	b9401e60 	ldr	w0, [x19, #28]
    28a4:	368803e0 	tbz	w0, #17, 2920 <TEE_CipherDoFinal+0xd4>
/home/zliu/ubuntu-optee-rpi3/RPi3_OPTEE_3.1/optee_os/lib/libutee/tee_api_operations.c:1071
    28a8:	b9403260 	ldr	w0, [x19, #48]
    28ac:	7100041f 	cmp	w0, #0x1
    28b0:	54000381 	b.ne	2920 <TEE_CipherDoFinal+0xd4>  // b.any
/home/zliu/ubuntu-optee-rpi3/RPi3_OPTEE_3.1/optee_os/lib/libutee/tee_api_operations.c:1080
    28b4:	b9400260 	ldr	w0, [x19]
    28b8:	529ffe03 	mov	w3, #0xfff0                	// #65520
    28bc:	72bdffe3 	movk	w3, #0xefff, lsl #16
    28c0:	2a0203e2 	mov	w2, w2
    28c4:	12177800 	and	w0, w0, #0xfffffeff
    28c8:	0b030003 	add	w3, w0, w3
/home/zliu/ubuntu-optee-rpi3/RPi3_OPTEE_3.1/optee_os/lib/libutee/tee_api_operations.c:1084
    28cc:	7100047f 	cmp	w3, #0x1
    28d0:	52800263 	mov	w3, #0x13                  	// #19
    28d4:	72a20003 	movk	w3, #0x1000, lsl #16
    28d8:	7a438004 	ccmp	w0, w3, #0x4, hi  // hi = pmore
    28dc:	f9402663 	ldr	x3, [x19, #72]
    28e0:	540000c1 	b.ne	28f8 <TEE_CipherDoFinal+0xac>  // b.any
/home/zliu/ubuntu-optee-rpi3/RPi3_OPTEE_3.1/optee_os/lib/libutee/tee_api_operations.c:1086
    28e4:	f9402a60 	ldr	x0, [x19, #80]
    28e8:	8b000040 	add	x0, x2, x0
    28ec:	9ac30804 	udiv	x4, x0, x3
    28f0:	9b038080 	msub	x0, x4, x3, x0
    28f4:	b5000160 	cbnz	x0, 2920 <TEE_CipherDoFinal+0xd4>
/home/zliu/ubuntu-optee-rpi3/RPi3_OPTEE_3.1/optee_os/lib/libutee/tee_api_operations.c:1101
    28f8:	aa0203e0 	mov	x0, x2
/home/zliu/ubuntu-optee-rpi3/RPi3_OPTEE_3.1/optee_os/lib/libutee/tee_api_operations.c:1098
    28fc:	f100047f 	cmp	x3, #0x1
    2900:	54000069 	b.ls	290c <TEE_CipherDoFinal+0xc0>  // b.plast
/home/zliu/ubuntu-optee-rpi3/RPi3_OPTEE_3.1/optee_os/lib/libutee/tee_api_operations.c:1099
    2904:	f9402a60 	ldr	x0, [x19, #80]
    2908:	8b000040 	add	x0, x2, x0
/home/zliu/ubuntu-optee-rpi3/RPi3_OPTEE_3.1/optee_os/lib/libutee/tee_api_operations.c:1103
    290c:	b94002a4 	ldr	w4, [x21]
    2910:	eb04001f 	cmp	x0, x4
    2914:	540001e9 	b.ls	2950 <TEE_CipherDoFinal+0x104>  // b.plast
